---
triple:          'arm64-apple-darwin'
binary-path:     '../../../../Binaries/ThirdParty/ShaderConductor/Mac/libShaderConductor.dylib'
relocations:
  - { offset: 0x44, size: 0x8, addend: 0x0, symName: __ZN4llvm30VerifyDisableABIBreakingChecksE, symObjAddr: 0x124D0, symBinAddr: 0x234688, symSize: 0x0 }
  - { offset: 0x621BA, size: 0x8, addend: 0x0, symName: __ZNSt3__17getlineB9nqe210106IcNS_11char_traitsIcEENS_9allocatorIcEEEERNS_13basic_istreamIT_T0_EES9_RNS_12basic_stringIS6_S7_T1_EES6_, symObjAddr: 0x9538, symBinAddr: 0xB0D8, symSize: 0x310 }
  - { offset: 0x64B2C, size: 0x8, addend: 0x0, symName: __ZNSt3__112__destroy_atB9nqe210106INS_4pairIKN11spirv_cross7TypedIDILNS2_5TypesE4EEENS2_14SPIREntryPointEEELi0EEEvPT_, symObjAddr: 0xB19C, symBinAddr: 0xCBAC, symSize: 0x8C }
  - { offset: 0x650D6, size: 0x8, addend: 0x0, symName: __ZNSt3__112__destroy_atB9nqe210106INS_4pairIKN11spirv_cross7TypedIDILNS2_5TypesE0EEENS2_4MetaEEELi0EEEvPT_, symObjAddr: 0xB228, symBinAddr: 0xCC38, symSize: 0x90 }
  - { offset: 0x6550B, size: 0x8, addend: 0x0, symName: __ZNSt3__120__throw_length_errorB9nqe210106EPKc, symObjAddr: 0xB584, symBinAddr: 0xCF18, symSize: 0x50 }
  - { offset: 0x6554C, size: 0x8, addend: 0x0, symName: __ZNSt3__120__throw_out_of_rangeB9nqe210106EPKc, symObjAddr: 0xBAE0, symBinAddr: 0xD474, symSize: 0x50 }
  - { offset: 0x65FF5, size: 0x8, addend: 0x0, symName: __ZNSt3__125__throw_bad_function_callB9nqe210106Ev, symObjAddr: 0xD704, symBinAddr: 0xF020, symSize: 0x34 }
  - { offset: 0x66090, size: 0x8, addend: 0x0, symName: __ZNSt3__127__tree_balance_after_insertB9nqe210106IPNS_16__tree_node_baseIPvEEEEvT_S5_, symObjAddr: 0xD9DC, symBinAddr: 0xF2F8, symSize: 0x1CC }
  - { offset: 0x66828, size: 0x8, addend: 0x0, symName: __ZNSt3__116__throw_bad_castB9nqe210106Ev, symObjAddr: 0xFC40, symBinAddr: 0x1155C, symSize: 0x28 }
  - { offset: 0x689F4, size: 0x8, addend: 0x0, symName: __ZSt28__throw_bad_array_new_lengthB9nqe210106v, symObjAddr: 0xB5F8, symBinAddr: 0xCF8C, symSize: 0x28 }
  - { offset: 0x68C2D, size: 0x8, addend: 0x0, symName: __ZTVNSt3__118basic_stringstreamIcNS_11char_traitsIcEENS_9allocatorIcEEEE, symObjAddr: 0x12D70, symBinAddr: 0x22C158, symSize: 0x0 }
  - { offset: 0x68F74, size: 0x8, addend: 0x0, symName: __ZTVNSt3__115basic_stringbufIcNS_11char_traitsIcEENS_9allocatorIcEEEE, symObjAddr: 0x12F68, symBinAddr: 0x22C350, symSize: 0x0 }
  - { offset: 0x68F89, size: 0x8, addend: 0x0, symName: '__ZTVNSt3__110__function6__funcIZN12_GLOBAL__N_112CrossCompileERKN15ShaderConductor8Compiler10ResultDescERKNS4_10SourceDescERKNS4_7OptionsERKNS4_10TargetDescEE3$_0FvRKN11spirv_cross8SPIRTypeERKNS_12basic_stringIcNS_11char_traitsIcEENS_9allocatorIcEEEERSR_EEE', symObjAddr: 0x13000, symBinAddr: 0x22C3E8, symSize: 0x0 }
  - { offset: 0x68F99, size: 0x8, addend: 0x0, symName: __ZN12_GLOBAL__N_112CrossCompileERKN15ShaderConductor8Compiler10ResultDescERKNS1_10SourceDescERKNS1_7OptionsERKNS1_10TargetDescE, symObjAddr: 0x1B0, symBinAddr: 0x1E40, symSize: 0x3760 }
  - { offset: 0x78A8C, size: 0x8, addend: 0x0, symName: __ZN12_GLOBAL__N_125s_globalAllocatorOverrideE, symObjAddr: 0x3CFF60, symBinAddr: 0x234A48, symSize: 0x0 }
  - { offset: 0x78AAC, size: 0x8, addend: 0x0, symName: __ZN12_GLOBAL__N_111AppendErrorERN15ShaderConductor8Compiler10ResultDescERKNSt3__112basic_stringIcNS4_11char_traitsIcEENS4_9allocatorIcEEEE, symObjAddr: 0x9250, symBinAddr: 0xADF0, symSize: 0x168 }
  - { offset: 0x793BC, size: 0x8, addend: 0x0, symName: __ZN12_GLOBAL__N_115CompileToBinaryERKN15ShaderConductor8Compiler10SourceDescERKNS1_7OptionsENS0_15ShadingLanguageEb, symObjAddr: 0x4C00, symBinAddr: 0x6890, symSize: 0x1830 }
  - { offset: 0x81850, size: 0x8, addend: 0x0, symName: __ZN12_GLOBAL__N_119DefaultLoadCallbackEPKc, symObjAddr: 0x4770, symBinAddr: 0x6400, symSize: 0x490 }
  - { offset: 0x827F3, size: 0x8, addend: 0x0, symName: __ZN12_GLOBAL__N_117ShaderProfileNameEN15ShaderConductor11ShaderStageENS0_8Compiler11ShaderModelE, symObjAddr: 0x8B24, symBinAddr: 0xA6C4, symSize: 0x184 }
  - { offset: 0x829D9, size: 0x8, addend: 0x0, symName: __ZN12_GLOBAL__N_116ConvertDxcResultERN15ShaderConductor8Compiler10ResultDescEP19IDxcOperationResultNS0_15ShadingLanguageEbb, symObjAddr: 0x8CA8, symBinAddr: 0xA848, symSize: 0x32C }
  - { offset: 0x99F51, size: 0x8, addend: 0x0, symName: __ZTVNSt3__117bad_function_callE, symObjAddr: 0x13098, symBinAddr: 0x22C480, symSize: 0x0 }
  - { offset: 0x99F86, size: 0x8, addend: 0x0, symName: __ZTVNSt3__114basic_ifstreamIcNS_11char_traitsIcEEEE, symObjAddr: 0x130D0, symBinAddr: 0x22C4B8, symSize: 0x0 }
  - { offset: 0x9A56F, size: 0x8, addend: 0x0, symName: __ZTVNSt3__113basic_filebufIcNS_11char_traitsIcEEEE, symObjAddr: 0x131A8, symBinAddr: 0x22C590, symSize: 0x0 }
  - { offset: 0x9A584, size: 0x8, addend: 0x0, symName: __ZTVN12_GLOBAL__N_116ScIncludeHandlerE, symObjAddr: 0x13240, symBinAddr: 0x22C628, symSize: 0x0 }
  - { offset: 0x9C0A3, size: 0x8, addend: 0x0, symName: __ZL16CLSID_DxcLibrary, symObjAddr: 0x13ADC, symBinAddr: 0x1DF4BC, symSize: 0x0 }
  - { offset: 0x9C0BE, size: 0x8, addend: 0x0, symName: __ZL17CLSID_DxcCompiler, symObjAddr: 0x13AEC, symBinAddr: 0x1DF4CC, symSize: 0x0 }
  - { offset: 0x9C0DD, size: 0x8, addend: 0x0, symName: __ZL17CLSID_DxcRewriter, symObjAddr: 0x13AFC, symBinAddr: 0x1DF4DC, symSize: 0x0 }
  - { offset: 0x9C1AC, size: 0x8, addend: 0x0, symName: __ZL15CLSID_DxcLinker, symObjAddr: 0x13B0C, symBinAddr: 0x1DF4EC, symSize: 0x0 }
  - { offset: 0x9C1C1, size: 0x8, addend: 0x0, symName: __ZTVNSt3__110__function6__funcIPFN15ShaderConductor4BlobEPKcES6_EE, symObjAddr: 0x132D8, symBinAddr: 0x22C698, symSize: 0x0 }
  - { offset: 0x9C1FB, size: 0x8, addend: 0x0, symName: '__ZTVNSt3__110__function6__funcIZN15ShaderConductor8Compiler8OptimizeERKNS3_10ResultDescEPKPKcjE3$_0Fv19spv_message_level_tS8_RK14spv_position_tS8_EEE', symObjAddr: 0x13388, symBinAddr: 0x22C748, symSize: 0x0 }
  - { offset: 0x9C209, size: 0x8, addend: 0x0, symName: __ZN15ShaderConductor8Compiler8OptimizeERKNS0_10ResultDescEPKPKcj, symObjAddr: 0x7CCC, symBinAddr: 0x986C, symSize: 0x49C }
  - { offset: 0xA5172, size: 0x8, addend: 0x0, symName: __Z14FindVariableIDRKNSt3__112basic_stringIcNS_11char_traitsIcEENS_9allocatorIcEEEERN11spirv_cross7TypedIDILNS8_5TypesE0EEERNS8_11SmallVectorINS8_8ResourceELm8EEEPKSF_, symObjAddr: 0x0, symBinAddr: 0x1C90, symSize: 0x14C }
  - { offset: 0xA54F4, size: 0x8, addend: 0x0, symName: __ZN15ShaderConductor8Compiler13ConvertBinaryERKNS0_10ResultDescERKNS0_10SourceDescERKNS0_7OptionsERKNS0_10TargetDescE, symObjAddr: 0x14C, symBinAddr: 0x1DDC, symSize: 0x64 }
  - { offset: 0xA5564, size: 0x8, addend: 0x0, symName: __ZN12_GLOBAL__N_112CrossCompileERKN15ShaderConductor8Compiler10ResultDescERKNS1_10SourceDescERKNS1_7OptionsERKNS1_10TargetDescE, symObjAddr: 0x1B0, symBinAddr: 0x1E40, symSize: 0x3760 }
  - { offset: 0xA5578, size: 0x8, addend: 0x0, symName: __ZN15ShaderConductor8Compiler10ResultDescC2ERKS1_, symObjAddr: 0x90C0, symBinAddr: 0xAC60, symSize: 0x190 }
  - { offset: 0xA9A43, size: 0x8, addend: 0x0, symName: __ZN15ShaderConductor4BlobaSERKS0_, symObjAddr: 0x3CAC, symBinAddr: 0x593C, symSize: 0xD8 }
  - { offset: 0xA9FE9, size: 0x8, addend: 0x0, symName: __ZN11spirv_cross12CompilerGLSLC2EPKjm, symObjAddr: 0x9F4C, symBinAddr: 0xBA7C, symSize: 0x55C }
  - { offset: 0xABA65, size: 0x8, addend: 0x0, symName: __ZNSt3__112basic_stringIcNS_11char_traitsIcEENS_9allocatorIcEEE20__throw_length_errorB9nqe210106Ev, symObjAddr: 0xB570, symBinAddr: 0xCF04, symSize: 0x14 }
  - { offset: 0xABA8C, size: 0x8, addend: 0x0, symName: __ZNSt3__13mapIjiNS_4lessIjEENS_9allocatorINS_4pairIKjiEEEEE6insertB9nqe210106INS_20__map_const_iteratorINS_21__tree_const_iteratorINS_12__value_typeIjiEEPNS_11__tree_nodeISD_PvEElEEEEEEvT_SK_, symObjAddr: 0xD750, symBinAddr: 0xF06C, symSize: 0xF4 }
  - { offset: 0xABAD4, size: 0x8, addend: 0x0, symName: __ZNSt3__13mapIjiNS_4lessIjEENS_9allocatorINS_4pairIKjiEEEEE6insertB9nqe210106INS_20__map_const_iteratorINS_21__tree_const_iteratorINS_12__value_typeIjiEEPNS_11__tree_nodeISD_PvEElEEEEEEvT_SK_, symObjAddr: 0xD750, symBinAddr: 0xF06C, symSize: 0xF4 }
  - { offset: 0xABE26, size: 0x8, addend: 0x0, symName: __ZNSt3__16__treeINS_12basic_stringIcNS_11char_traitsIcEENS_9allocatorIcEEEENS_4lessIS6_EENS4_IS6_EEE30__emplace_hint_unique_key_argsIS6_JRKS6_EEENS_4pairINS_15__tree_iteratorIS6_PNS_11__tree_nodeIS6_PvEElEEbEENS_21__tree_const_iteratorIS6_SJ_lEERKT_DpOT0_, symObjAddr: 0xDBEC, symBinAddr: 0xF508, symSize: 0xF0 }
  - { offset: 0xAC1AB, size: 0x8, addend: 0x0, symName: __ZL13remap_genericRN11spirv_cross8CompilerERKNS_11SmallVectorINS_8ResourceELm8EEERK5Remap, symObjAddr: 0xCAAC, symBinAddr: 0xE3F0, symSize: 0x104 }
  - { offset: 0xAC4D7, size: 0x8, addend: 0x0, symName: __ZN11spirv_cross15ShaderResourcesD2Ev, symObjAddr: 0xCBB0, symBinAddr: 0xE4F4, symSize: 0x5F8 }
  - { offset: 0xAE03F, size: 0x8, addend: 0x0, symName: __ZL9remap_plsRKNSt3__16vectorI6PLSArgNS_9allocatorIS1_EEEERN11spirv_cross11SmallVectorINS7_8ResourceELm8EEEPKSA_, symObjAddr: 0x9998, symBinAddr: 0xB4C8, symSize: 0x140 }
  - { offset: 0xAE64D, size: 0x8, addend: 0x0, symName: __ZNSt3__16vectorIN11spirv_cross13PlsInOutRemapENS_9allocatorIS2_EEE24__emplace_back_slow_pathIJS2_EEEPS2_DpOT_, symObjAddr: 0xD374, symBinAddr: 0xECA4, symSize: 0x1E0 }
  - { offset: 0xAEE6A, size: 0x8, addend: 0x0, symName: __ZN11spirv_cross12CompilerGLSL25remap_pixel_local_storageENSt3__16vectorINS_8PlsRemapENS1_9allocatorIS3_EEEES6_NS2_INS_13PlsInOutRemapENS4_IS7_EEEE, symObjAddr: 0x9AD8, symBinAddr: 0xB608, symSize: 0x1B0 }
  - { offset: 0xAF780, size: 0x8, addend: 0x0, symName: __ZL21ParseSpirvCrossOptionRKN15ShaderConductor11MacroDefineEPKcRb, symObjAddr: 0xB620, symBinAddr: 0xCFB4, symSize: 0x110 }
  - { offset: 0xAFC8B, size: 0x8, addend: 0x0, symName: __ZL21ParseSpirvCrossOptionRKN15ShaderConductor11MacroDefineEPKcRj, symObjAddr: 0xB730, symBinAddr: 0xD0C4, symSize: 0x108 }
  - { offset: 0xB01C9, size: 0x8, addend: 0x0, symName: __ZNSt3__118basic_stringstreamIcNS_11char_traitsIcEENS_9allocatorIcEEEC1B9nqe210106ERKNS_12basic_stringIcS2_S4_EEj, symObjAddr: 0x9400, symBinAddr: 0xAFA0, symSize: 0x138 }
  - { offset: 0xB043A, size: 0x8, addend: 0x0, symName: __ZNSt3__16vectorINS_12basic_stringIcNS_11char_traitsIcEENS_9allocatorIcEEEENS4_IS6_EEE24__emplace_back_slow_pathIJRKS6_EEEPS6_DpOT_, symObjAddr: 0xC71C, symBinAddr: 0xE088, symSize: 0x148 }
  - { offset: 0xB0891, size: 0x8, addend: 0x0, symName: __ZL10pls_formatPKc, symObjAddr: 0xB838, symBinAddr: 0xD1CC, symSize: 0x168 }
  - { offset: 0xB09C9, size: 0x8, addend: 0x0, symName: __ZNSt3__16vectorI11PLSInOutArgNS_9allocatorIS1_EEE24__emplace_back_slow_pathIJS1_EEEPS1_DpOT_, symObjAddr: 0xBB54, symBinAddr: 0xD4E8, symSize: 0x1BC }
  - { offset: 0xB11E8, size: 0x8, addend: 0x0, symName: __ZNSt3__16vectorI5RemapNS_9allocatorIS1_EEE24__emplace_back_slow_pathIJS1_EEEPS1_DpOT_, symObjAddr: 0xC8DC, symBinAddr: 0xE234, symSize: 0x1BC }
  - { offset: 0xB19E7, size: 0x8, addend: 0x0, symName: __ZN12_GLOBAL__N_112CrossCompileERKN15ShaderConductor8Compiler10ResultDescERKNS1_10SourceDescERKNS1_7OptionsERKNS1_10TargetDescE.cold.3, symObjAddr: 0x11218, symBinAddr: 0x1DD660, symSize: 0x30 }
  - { offset: 0xB1A16, size: 0x8, addend: 0x0, symName: __ZN12_GLOBAL__N_112CrossCompileERKN15ShaderConductor8Compiler10ResultDescERKNS1_10SourceDescERKNS1_7OptionsERKNS1_10TargetDescE.cold.4, symObjAddr: 0x11248, symBinAddr: 0x1DD690, symSize: 0x30 }
  - { offset: 0xB1A45, size: 0x8, addend: 0x0, symName: __ZN12_GLOBAL__N_112CrossCompileERKN15ShaderConductor8Compiler10ResultDescERKNS1_10SourceDescERKNS1_7OptionsERKNS1_10TargetDescE.cold.5, symObjAddr: 0x11278, symBinAddr: 0x1DD6C0, symSize: 0x30 }
  - { offset: 0xB1A74, size: 0x8, addend: 0x0, symName: __ZN12_GLOBAL__N_112CrossCompileERKN15ShaderConductor8Compiler10ResultDescERKNS1_10SourceDescERKNS1_7OptionsERKNS1_10TargetDescE.cold.6, symObjAddr: 0x112A8, symBinAddr: 0x1DD6F0, symSize: 0x30 }
  - { offset: 0xB1AA3, size: 0x8, addend: 0x0, symName: __ZNSt3__112basic_stringIcNS_11char_traitsIcEENS_9allocatorIcEEE20__throw_length_errorB9nqe210106Ev, symObjAddr: 0xB570, symBinAddr: 0xCF04, symSize: 0x14 }
  - { offset: 0xB1ABB, size: 0x8, addend: 0x0, symName: __ZNSt3__120__throw_length_errorB9nqe210106EPKc, symObjAddr: 0xB584, symBinAddr: 0xCF18, symSize: 0x50 }
  - { offset: 0xB1C41, size: 0x8, addend: 0x0, symName: __ZNK12_GLOBAL__N_110Dxcompiler7LibraryEv, symObjAddr: 0x69D4, symBinAddr: 0x85BC, symSize: 0xCC }
  - { offset: 0xB1C4C, size: 0x8, addend: 0x0, symName: __ZNKSt3__112basic_stringIcNS_11char_traitsIcEENS_9allocatorIcEEE6substrB9nqe210106Emm, symObjAddr: 0xB9A0, symBinAddr: 0xD334, symSize: 0xCC }
  - { offset: 0xB1F8E, size: 0x8, addend: 0x0, symName: __ZN11PLSInOutArgD1Ev, symObjAddr: 0xBA6C, symBinAddr: 0xD400, symSize: 0x4C }
  - { offset: 0xB1F99, size: 0x8, addend: 0x0, symName: __ZNSt3__16__treeINS_12basic_stringIcNS_11char_traitsIcEENS_9allocatorIcEEEENS_4lessIS6_EENS4_IS6_EEE25__emplace_unique_key_argsIS6_JS6_EEENS_4pairINS_15__tree_iteratorIS6_PNS_11__tree_nodeIS6_PvEElEEbEERKT_DpOT0_, symObjAddr: 0xE244, symBinAddr: 0xFB60, symSize: 0x16C }
  - { offset: 0xB24B9, size: 0x8, addend: 0x0, symName: __ZNSt3__13mapIjiNS_4lessIjEENS_9allocatorINS_4pairIKjiEEEEEixEOj, symObjAddr: 0xE184, symBinAddr: 0xFAA0, symSize: 0xC0 }
  - { offset: 0xB2771, size: 0x8, addend: 0x0, symName: __ZN12_GLOBAL__N_112CrossCompileERKN15ShaderConductor8Compiler10ResultDescERKNS1_10SourceDescERKNS1_7OptionsERKNS1_10TargetDescE.cold.1, symObjAddr: 0x111B8, symBinAddr: 0x1DD600, symSize: 0x30 }
  - { offset: 0xB27A0, size: 0x8, addend: 0x0, symName: __ZN12_GLOBAL__N_112CrossCompileERKN15ShaderConductor8Compiler10ResultDescERKNS1_10SourceDescERKNS1_7OptionsERKNS1_10TargetDescE.cold.2, symObjAddr: 0x111E8, symBinAddr: 0x1DD630, symSize: 0x30 }
  - { offset: 0xB27CF, size: 0x8, addend: 0x0, symName: __ZNSt3__16__treeINS_12__value_typeIjiEENS_19__map_value_compareIjNS_4pairIKjiEENS_4lessIjEELb1EEENS_9allocatorIS6_EEE14__assign_multiINS_21__tree_const_iteratorIS2_PNS_11__tree_nodeIS2_PvEElEEEEvT_SK_, symObjAddr: 0xE3B0, symBinAddr: 0xFCCC, symSize: 0x27C }
  - { offset: 0xB2CC0, size: 0x8, addend: 0x0, symName: __ZNSt3__16__treeINS_12basic_stringIcNS_11char_traitsIcEENS_9allocatorIcEEEENS_4lessIS6_EENS4_IS6_EEE14__assign_multiINS_21__tree_const_iteratorIS6_PNS_11__tree_nodeIS6_PvEElEEEEvT_SI_, symObjAddr: 0xE770, symBinAddr: 0x1008C, symSize: 0x240 }
  - { offset: 0xB30E8, size: 0x8, addend: 0x0, symName: __ZNSt3__16__treeINS_12basic_stringIcNS_11char_traitsIcEENS_9allocatorIcEEEENS_4lessIS6_EENS4_IS6_EEE7destroyEPNS_11__tree_nodeIS6_PvEE, symObjAddr: 0xE134, symBinAddr: 0xFA50, symSize: 0x50 }
  - { offset: 0xB3325, size: 0x8, addend: 0x0, symName: __ZNSt3__16__treeINS_12__value_typeIjiEENS_19__map_value_compareIjNS_4pairIKjiEENS_4lessIjEELb1EEENS_9allocatorIS6_EEE7destroyEPNS_11__tree_nodeIS2_PvEE, symObjAddr: 0xDBA8, symBinAddr: 0xF4C4, symSize: 0x44 }
  - { offset: 0xB343D, size: 0x8, addend: 0x0, symName: __ZNSt3__112basic_stringIcNS_11char_traitsIcEENS_9allocatorIcEEE20__throw_out_of_rangeB9nqe210106Ev, symObjAddr: 0xBACC, symBinAddr: 0xD460, symSize: 0x14 }
  - { offset: 0xB3455, size: 0x8, addend: 0x0, symName: __ZNSt3__120__throw_out_of_rangeB9nqe210106EPKc, symObjAddr: 0xBAE0, symBinAddr: 0xD474, symSize: 0x50 }
  - { offset: 0xB3460, size: 0x8, addend: 0x0, symName: __ZNSt3__16vectorI6PLSArgNS_9allocatorIS1_EEE20__throw_length_errorB9nqe210106Ev, symObjAddr: 0xBAB8, symBinAddr: 0xD44C, symSize: 0x14 }
  - { offset: 0xB3478, size: 0x8, addend: 0x0, symName: __ZNSt3__112basic_stringIcNS_11char_traitsIcEENS_9allocatorIcEEE20__throw_out_of_rangeB9nqe210106Ev, symObjAddr: 0xBACC, symBinAddr: 0xD460, symSize: 0x14 }
  - { offset: 0xB348D, size: 0x8, addend: 0x0, symName: __ZNSt3__118basic_stringstreamIcNS_11char_traitsIcEENS_9allocatorIcEEED0Ev, symObjAddr: 0xBD38, symBinAddr: 0xD6A4, symSize: 0x94 }
  - { offset: 0xB3498, size: 0x8, addend: 0x0, symName: __ZN5RemapD1Ev, symObjAddr: 0x9848, symBinAddr: 0xB3E8, symSize: 0x4C }
  - { offset: 0xB369F, size: 0x8, addend: 0x0, symName: __ZN11PLSInOutArgD1Ev, symObjAddr: 0xBA6C, symBinAddr: 0xD400, symSize: 0x4C }
  - { offset: 0xB38AC, size: 0x8, addend: 0x0, symName: __ZNSt3__118basic_stringstreamIcNS_11char_traitsIcEENS_9allocatorIcEEED1Ev, symObjAddr: 0x9894, symBinAddr: 0xB434, symSize: 0x94 }
  - { offset: 0xB3B94, size: 0x8, addend: 0x0, symName: __ZNSt3__16vectorIN11spirv_cross13PlsInOutRemapENS_9allocatorIS2_EEED1B9nqe210106Ev, symObjAddr: 0x9C88, symBinAddr: 0xB7B8, symSize: 0x8C }
  - { offset: 0xB3EF2, size: 0x8, addend: 0x0, symName: __ZNSt3__16vectorIN11spirv_cross8PlsRemapENS_9allocatorIS2_EEED1B9nqe210106Ev, symObjAddr: 0x9D14, symBinAddr: 0xB844, symSize: 0x70 }
  - { offset: 0xB417E, size: 0x8, addend: 0x0, symName: __ZNSt3__16vectorI5RemapNS_9allocatorIS1_EEED1B9nqe210106Ev, symObjAddr: 0x9EC8, symBinAddr: 0xB9F8, symSize: 0x84 }
  - { offset: 0xB4500, size: 0x8, addend: 0x0, symName: __ZN15ShaderConductor4Blob5ResetEPKvj, symObjAddr: 0x39A0, symBinAddr: 0x5630, symSize: 0x9C }
  - { offset: 0xB49AE, size: 0x8, addend: 0x0, symName: __ZN11spirv_cross13PlsInOutRemapD1Ev, symObjAddr: 0xD328, symBinAddr: 0xEC58, symSize: 0x4C }
  - { offset: 0xB4BBB, size: 0x8, addend: 0x0, symName: __ZNSt3__113unordered_setIN11spirv_cross7TypedIDILNS1_5TypesE2EEENS_4hashIS4_EENS_8equal_toIS4_EENS_9allocatorIS4_EEED1B9nqe210106Ev, symObjAddr: 0x93B8, symBinAddr: 0xAF58, symSize: 0x48 }
  - { offset: 0xB4E40, size: 0x8, addend: 0x0, symName: __ZN11spirv_cross11CompilerMSL7OptionsD1Ev, symObjAddr: 0x9E80, symBinAddr: 0xB9B0, symSize: 0x38 }
  - { offset: 0xB4F4B, size: 0x8, addend: 0x0, symName: __ZNSt3__16vectorI11PLSInOutArgNS_9allocatorIS1_EEED1B9nqe210106Ev, symObjAddr: 0x9D84, symBinAddr: 0xB8B4, symSize: 0x8C }
  - { offset: 0xB52A9, size: 0x8, addend: 0x0, symName: __ZNSt3__16vectorI6PLSArgNS_9allocatorIS1_EEED1B9nqe210106Ev, symObjAddr: 0x9E10, symBinAddr: 0xB940, symSize: 0x70 }
  - { offset: 0xB5535, size: 0x8, addend: 0x0, symName: __ZN15ShaderConductor8Compiler10ResultDescD1Ev, symObjAddr: 0x46F0, symBinAddr: 0x6380, symSize: 0x80 }
  - { offset: 0xB5A63, size: 0x8, addend: 0x0, symName: __ZN15ShaderConductor4BlobC2Ev, symObjAddr: 0x3910, symBinAddr: 0x55A0, symSize: 0x8 }
  - { offset: 0xB5A84, size: 0x8, addend: 0x0, symName: __ZN15ShaderConductor4BlobC1Ev, symObjAddr: 0x3918, symBinAddr: 0x55A8, symSize: 0x8 }
  - { offset: 0xB5AA8, size: 0x8, addend: 0x0, symName: __ZN15ShaderConductor4BlobC1Ev, symObjAddr: 0x3918, symBinAddr: 0x55A8, symSize: 0x8 }
  - { offset: 0xB5AC4, size: 0x8, addend: 0x0, symName: __ZN15ShaderConductor4BlobC2EPKvj, symObjAddr: 0x3920, symBinAddr: 0x55B0, symSize: 0x80 }
  - { offset: 0xB5E86, size: 0x8, addend: 0x0, symName: __ZN15ShaderConductor4BlobC1EPKvj, symObjAddr: 0x3A3C, symBinAddr: 0x56CC, symSize: 0x80 }
  - { offset: 0xB6240, size: 0x8, addend: 0x0, symName: __ZN15ShaderConductor4BlobC2ERKS0_, symObjAddr: 0x3ABC, symBinAddr: 0x574C, symSize: 0x8C }
  - { offset: 0xB663C, size: 0x8, addend: 0x0, symName: __ZNK15ShaderConductor4Blob4DataEv, symObjAddr: 0x3B48, symBinAddr: 0x57D8, symSize: 0x18 }
  - { offset: 0xB669D, size: 0x8, addend: 0x0, symName: __ZNK15ShaderConductor4Blob4SizeEv, symObjAddr: 0x3B60, symBinAddr: 0x57F0, symSize: 0x20 }
  - { offset: 0xB672B, size: 0x8, addend: 0x0, symName: __ZN15ShaderConductor4BlobC1ERKS0_, symObjAddr: 0x3B80, symBinAddr: 0x5810, symSize: 0x8C }
  - { offset: 0xB6B4A, size: 0x8, addend: 0x0, symName: __ZN15ShaderConductor4BlobC2EOS0_, symObjAddr: 0x3C0C, symBinAddr: 0x589C, symSize: 0x10 }
  - { offset: 0xB6B9C, size: 0x8, addend: 0x0, symName: __ZN15ShaderConductor4BlobC1EOS0_, symObjAddr: 0x3C1C, symBinAddr: 0x58AC, symSize: 0x10 }
  - { offset: 0xB6BDA, size: 0x8, addend: 0x0, symName: __ZN15ShaderConductor4BlobC1EOS0_, symObjAddr: 0x3C1C, symBinAddr: 0x58AC, symSize: 0x10 }
  - { offset: 0xB6BFE, size: 0x8, addend: 0x0, symName: __ZN15ShaderConductor4BlobD2Ev, symObjAddr: 0x3C2C, symBinAddr: 0x58BC, symSize: 0x40 }
  - { offset: 0xB6D90, size: 0x8, addend: 0x0, symName: __ZN15ShaderConductor4BlobD1Ev, symObjAddr: 0x3C6C, symBinAddr: 0x58FC, symSize: 0x40 }
  - { offset: 0xB6F22, size: 0x8, addend: 0x0, symName: __ZN15ShaderConductor4BlobaSEOS0_, symObjAddr: 0x3D84, symBinAddr: 0x5A14, symSize: 0x18 }
  - { offset: 0xB6F4B, size: 0x8, addend: 0x0, symName: __ZN15ShaderConductor4Blob5ResetEv, symObjAddr: 0x3D9C, symBinAddr: 0x5A2C, symSize: 0x40 }
  - { offset: 0xB70BC, size: 0x8, addend: 0x0, symName: __ZN15ShaderConductor8Compiler7CompileERKNS0_10SourceDescERKNS0_7OptionsERKNS0_10TargetDescE, symObjAddr: 0x3DDC, symBinAddr: 0x5A6C, symSize: 0x48 }
  - { offset: 0xB7262, size: 0x8, addend: 0x0, symName: __ZN15ShaderConductor8Compiler7CompileERKNS0_10SourceDescERKNS0_7OptionsEPKNS0_10TargetDescEjPNS0_10ResultDescE, symObjAddr: 0x3E24, symBinAddr: 0x5AB4, symSize: 0x8CC }
  - { offset: 0xB9ECE, size: 0x8, addend: 0x0, symName: __ZNSt3__110__function12__value_funcIFN15ShaderConductor4BlobEPKcEE4swapB9nqe210106ERS7_, symObjAddr: 0x10E64, symBinAddr: 0x12658, symSize: 0x16C }
  - { offset: 0xBA59D, size: 0x8, addend: 0x0, symName: __ZNSt3__113basic_filebufIcNS_11char_traitsIcEEEC2Ev, symObjAddr: 0xEFA0, symBinAddr: 0x108BC, symSize: 0x154 }
  - { offset: 0xBA6DB, size: 0x8, addend: 0x0, symName: __ZNSt3__113basic_filebufIcNS_11char_traitsIcEEED2Ev, symObjAddr: 0xFC68, symBinAddr: 0x11584, symSize: 0xDC }
  - { offset: 0xBA829, size: 0x8, addend: 0x0, symName: __ZNSt3__16vectorINS_12basic_stringIwNS_11char_traitsIwEENS_9allocatorIwEEEENS4_IS6_EEE9push_backB9nqe210106EOS6_, symObjAddr: 0xFD58, symBinAddr: 0x11660, symSize: 0x124 }
  - { offset: 0xBA834, size: 0x8, addend: 0x0, symName: __ZNSt3__114basic_ifstreamIcNS_11char_traitsIcEEED1Ev, symObjAddr: 0xEE24, symBinAddr: 0x10740, symSize: 0x5C }
  - { offset: 0xBC789, size: 0x8, addend: 0x0, symName: __ZNK12_GLOBAL__N_110Dxcompiler7LibraryEv, symObjAddr: 0x69D4, symBinAddr: 0x85BC, symSize: 0xCC }
  - { offset: 0xBC8D3, size: 0x8, addend: 0x0, symName: __ZNSt3__16vectorINS_12basic_stringIwNS_11char_traitsIwEENS_9allocatorIwEEEENS4_IS6_EEE9push_backB9nqe210106EOS6_, symObjAddr: 0xFD58, symBinAddr: 0x11660, symSize: 0x124 }
  - { offset: 0xBCD98, size: 0x8, addend: 0x0, symName: __ZNSt3__16vectorINS_12basic_stringIwNS_11char_traitsIwEENS_9allocatorIwEEEENS4_IS6_EEE24__emplace_back_slow_pathIJRKS6_EEEPS6_DpOT_, symObjAddr: 0xFF1C, symBinAddr: 0x11784, symSize: 0x148 }
  - { offset: 0xBD1EF, size: 0x8, addend: 0x0, symName: __ZNSt3__112basic_stringIwNS_11char_traitsIwEENS_9allocatorIwEEE25__init_copy_ctor_externalEPKwm, symObjAddr: 0x10064, symBinAddr: 0x118CC, symSize: 0x80 }
  - { offset: 0xBD3E5, size: 0x8, addend: 0x0, symName: __ZNK12_GLOBAL__N_110Dxcompiler8CompilerEv, symObjAddr: 0x6AE8, symBinAddr: 0x8688, symSize: 0xCC }
  - { offset: 0xBD563, size: 0x8, addend: 0x0, symName: __ZN12_GLOBAL__N_116ScIncludeHandler14QueryInterfaceERK4GUIDPPv, symObjAddr: 0x100F8, symBinAddr: 0x1194C, symSize: 0xAC }
  - { offset: 0xBD56E, size: 0x8, addend: 0x0, symName: __ZN12_GLOBAL__N_110DxcompilerC1EP7IMalloc, symObjAddr: 0x103FC, symBinAddr: 0x11C50, symSize: 0x614 }
  - { offset: 0xBE4A6, size: 0x8, addend: 0x0, symName: __ZNSt3__16vectorINS_12basic_stringIwNS_11char_traitsIwEENS_9allocatorIwEEEENS4_IS6_EEED1B9nqe210106Ev, symObjAddr: 0x904C, symBinAddr: 0xABEC, symSize: 0x70 }
  - { offset: 0xBE738, size: 0x8, addend: 0x0, symName: __ZN15ShaderConductor8Compiler11DisassembleERKNS0_15DisassembleDescE, symObjAddr: 0x6430, symBinAddr: 0x80C0, symSize: 0x4FC }
  - { offset: 0xC0110, size: 0x8, addend: 0x0, symName: __ZN15ShaderConductor8Compiler7RewriteENS0_10SourceDescERKNS0_7OptionsE, symObjAddr: 0x6BB4, symBinAddr: 0x8754, symSize: 0x1118 }
  - { offset: 0xC4AAB, size: 0x8, addend: 0x0, symName: __ZNK12_GLOBAL__N_110Dxcompiler8RewriterEv, symObjAddr: 0x10CA0, symBinAddr: 0x12494, symSize: 0xCC }
  - { offset: 0xC594E, size: 0x8, addend: 0x0, symName: __ZN15ShaderConductor8Compiler17OverrideAllocatorEP7IMalloc, symObjAddr: 0x8168, symBinAddr: 0x9D08, symSize: 0xC }
  - { offset: 0xC5978, size: 0x8, addend: 0x0, symName: __ZN15ShaderConductor8Compiler17OverrideAllocatorEP7IMalloc, symObjAddr: 0x8168, symBinAddr: 0x9D08, symSize: 0xC }
  - { offset: 0xC59AF, size: 0x8, addend: 0x0, symName: __ZN15ShaderConductor8Compiler11LinkSupportEv, symObjAddr: 0x8174, symBinAddr: 0x9D14, symSize: 0x90 }
  - { offset: 0xC62C9, size: 0x8, addend: 0x0, symName: __ZN15ShaderConductor8Compiler4LinkERKNS0_8LinkDescERKNS0_7OptionsERKNS0_10TargetDescE, symObjAddr: 0x8204, symBinAddr: 0x9DA4, symSize: 0x920 }
  - { offset: 0xC885A, size: 0x8, addend: 0x0, symName: __ZNSt3__128__exception_guard_exceptionsINS_6vectorI7CComPtrI16IDxcBlobEncodingENS_9allocatorIS4_EEE16__destroy_vectorEED1B9nqe210106Ev, symObjAddr: 0x11130, symBinAddr: 0x12924, symSize: 0x88 }
  - { offset: 0xC8A25, size: 0x8, addend: 0x0, symName: __ZNSt3__128__exception_guard_exceptionsINS_6vectorINS_12basic_stringIwNS_11char_traitsIwEENS_9allocatorIwEEEENS5_IS7_EEE16__destroy_vectorEED1B9nqe210106Ev, symObjAddr: 0x110B0, symBinAddr: 0x128A4, symSize: 0x80 }
  - { offset: 0xC8C85, size: 0x8, addend: 0x0, symName: __ZNSt3__16vectorI7CComPtrI16IDxcBlobEncodingENS_9allocatorIS3_EEED1B9nqe210106Ev, symObjAddr: 0x8FD4, symBinAddr: 0xAB74, symSize: 0x78 }
  - { offset: 0xC9289, size: 0x8, addend: 0x0, symName: __ZN12_GLOBAL__N_116ConvertDxcResultERN15ShaderConductor8Compiler10ResultDescEP19IDxcOperationResultNS0_15ShadingLanguageEbb.cold.1, symObjAddr: 0x112D8, symBinAddr: 0x1DD720, symSize: 0x48 }
  - { offset: 0xC934E, size: 0x8, addend: 0x0, symName: __ZN15ShaderConductor8Compiler8ShutdownEv, symObjAddr: 0x90BC, symBinAddr: 0xAC5C, symSize: 0x4 }
  - { offset: 0xC94FF, size: 0x8, addend: 0x0, symName: __ZNSt3__115basic_stringbufIcNS_11char_traitsIcEENS_9allocatorIcEEE15__init_buf_ptrsB9nqe210106Ev, symObjAddr: 0xC420, symBinAddr: 0xDD8C, symSize: 0x10C }
  - { offset: 0xC98B4, size: 0x8, addend: 0x0, symName: __ZNSt3__112basic_stringIcNS_11char_traitsIcEENS_9allocatorIcEEE6appendB9nqe210106IPKcLi0EEERS5_T_SA_, symObjAddr: 0xC52C, symBinAddr: 0xDE98, symSize: 0x1F0 }
  - { offset: 0xCA447, size: 0x8, addend: 0x0, symName: __ZNSt3__16vectorIN11spirv_cross8PlsRemapENS_9allocatorIS2_EEE24__emplace_back_slow_pathIJS2_EEEPS2_DpOT_, symObjAddr: 0xD1A8, symBinAddr: 0xEAEC, symSize: 0x16C }
  - { offset: 0xCB6D5, size: 0x8, addend: 0x0, symName: __ZNSt3__113unordered_mapIjN11spirv_cross11SmallVectorINS1_7TypedIDILNS1_5TypesE3EEELm8EEENS_4hashIjEENS_8equal_toIjEENS_9allocatorINS_4pairIKjS6_EEEEED1B9nqe210106Ev, symObjAddr: 0xA4A8, symBinAddr: 0xBFD8, symSize: 0x70 }
  - { offset: 0xCBEA7, size: 0x8, addend: 0x0, symName: __ZN11spirv_cross11SmallVectorINSt3__112basic_stringIcNS1_11char_traitsIcEENS1_9allocatorIcEEEELm8EED1Ev, symObjAddr: 0xA5F0, symBinAddr: 0xC048, symSize: 0x84 }
  - { offset: 0xCC18B, size: 0x8, addend: 0x0, symName: __ZN11spirv_cross12CompilerGLSL17BackendVariationsD1Ev, symObjAddr: 0xA6BC, symBinAddr: 0xC0CC, symSize: 0x64 }
  - { offset: 0xCC487, size: 0x8, addend: 0x0, symName: __ZNSt3__113unordered_mapIjNS_12basic_stringIcNS_11char_traitsIcEENS_9allocatorIcEEEENS_4hashIjEENS_8equal_toIjEENS4_INS_4pairIKjS6_EEEEED1B9nqe210106Ev, symObjAddr: 0xA720, symBinAddr: 0xC130, symSize: 0x68 }
  - { offset: 0xCC873, size: 0x8, addend: 0x0, symName: __ZNSt3__112__hash_tableINS_17__hash_value_typeINS_12basic_stringIcNS_11char_traitsIcEENS_9allocatorIcEEEENS_13unordered_setIyNS_4hashIyEENS_8equal_toIyEENS5_IyEEEEEENS_22__unordered_map_hasherIS7_NS_4pairIKS7_SE_EENS9_IS7_EENSB_IS7_EELb1EEENS_21__unordered_map_equalIS7_SJ_SL_SK_Lb1EEENS5_ISJ_EEED2Ev, symObjAddr: 0xABF4, symBinAddr: 0xC604, symSize: 0x90 }
  - { offset: 0xCCEB0, size: 0x8, addend: 0x0, symName: __ZNSt3__113unordered_setINS_12basic_stringIcNS_11char_traitsIcEENS_9allocatorIcEEEENS_4hashIS6_EENS_8equal_toIS6_EENS4_IS6_EEED1B9nqe210106Ev, symObjAddr: 0xA788, symBinAddr: 0xC198, symSize: 0x68 }
  - { offset: 0xCD268, size: 0x8, addend: 0x0, symName: __ZN11spirv_cross12StringStreamILm4096ELm4096EED1Ev, symObjAddr: 0xA7F0, symBinAddr: 0xC200, symSize: 0xA4 }
  - { offset: 0xCD3CA, size: 0x8, addend: 0x0, symName: __ZN11spirv_cross8CompilerD2Ev, symObjAddr: 0xA894, symBinAddr: 0xC2A4, symSize: 0x360 }
  - { offset: 0xD164C, size: 0x8, addend: 0x0, symName: __ZN11spirv_cross3CFGD2Ev, symObjAddr: 0xAC84, symBinAddr: 0xC694, symSize: 0x138 }
  - { offset: 0xD2353, size: 0x8, addend: 0x0, symName: __ZN11spirv_cross8ParsedIRD2Ev, symObjAddr: 0xADBC, symBinAddr: 0xC7CC, symSize: 0x3E0 }
  - { offset: 0xD509C, size: 0x8, addend: 0x0, symName: __ZN11spirv_cross15ObjectPoolGroupD2Ev, symObjAddr: 0xB384, symBinAddr: 0xCD94, symSize: 0x170 }
  - { offset: 0xD540B, size: 0x8, addend: 0x0, symName: __ZN11spirv_cross4Meta10DecorationD2Ev, symObjAddr: 0xB2B8, symBinAddr: 0xCCC8, symSize: 0xCC }
  - { offset: 0xD5EB7, size: 0x8, addend: 0x0, symName: __ZNSt12length_errorC1B9nqe210106EPKc, symObjAddr: 0xB5D4, symBinAddr: 0xCF68, symSize: 0x24 }
  - { offset: 0xD5F42, size: 0x8, addend: 0x0, symName: __ZNSt12out_of_rangeC1B9nqe210106EPKc, symObjAddr: 0xBB30, symBinAddr: 0xD4C4, symSize: 0x24 }
  - { offset: 0xD614B, size: 0x8, addend: 0x0, symName: __ZNSt3__118basic_stringstreamIcNS_11char_traitsIcEENS_9allocatorIcEEED0Ev, symObjAddr: 0xBD38, symBinAddr: 0xD6A4, symSize: 0x94 }
  - { offset: 0xD62F9, size: 0x8, addend: 0x0, symName: __ZThn16_NSt3__118basic_stringstreamIcNS_11char_traitsIcEENS_9allocatorIcEEED1Ev, symObjAddr: 0xBDCC, symBinAddr: 0xD738, symSize: 0x98 }
  - { offset: 0xD64BA, size: 0x8, addend: 0x0, symName: __ZThn16_NSt3__118basic_stringstreamIcNS_11char_traitsIcEENS_9allocatorIcEEED0Ev, symObjAddr: 0xBE64, symBinAddr: 0xD7D0, symSize: 0xA0 }
  - { offset: 0xD667F, size: 0x8, addend: 0x0, symName: __ZTv0_n24_NSt3__118basic_stringstreamIcNS_11char_traitsIcEENS_9allocatorIcEEED1Ev, symObjAddr: 0xBF04, symBinAddr: 0xD870, symSize: 0x94 }
  - { offset: 0xD6822, size: 0x8, addend: 0x0, symName: __ZTv0_n24_NSt3__118basic_stringstreamIcNS_11char_traitsIcEENS_9allocatorIcEEED0Ev, symObjAddr: 0xBF98, symBinAddr: 0xD904, symSize: 0x9C }
  - { offset: 0xD69E3, size: 0x8, addend: 0x0, symName: __ZNSt3__115basic_stringbufIcNS_11char_traitsIcEENS_9allocatorIcEEED1Ev, symObjAddr: 0xC034, symBinAddr: 0xD9A0, symSize: 0x58 }
  - { offset: 0xD6B42, size: 0x8, addend: 0x0, symName: __ZNSt3__115basic_stringbufIcNS_11char_traitsIcEENS_9allocatorIcEEED0Ev, symObjAddr: 0xC08C, symBinAddr: 0xD9F8, symSize: 0x58 }
  - { offset: 0xD6DB6, size: 0x8, addend: 0x0, symName: __ZNSt3__115basic_stringbufIcNS_11char_traitsIcEENS_9allocatorIcEEE7seekoffExNS_8ios_base7seekdirEj, symObjAddr: 0xC0E4, symBinAddr: 0xDA50, symSize: 0x100 }
  - { offset: 0xD6FE0, size: 0x8, addend: 0x0, symName: __ZNSt3__115basic_stringbufIcNS_11char_traitsIcEENS_9allocatorIcEEE7seekposENS_4fposI11__mbstate_tEEj, symObjAddr: 0xC1E4, symBinAddr: 0xDB50, symSize: 0x18 }
  - { offset: 0xD7071, size: 0x8, addend: 0x0, symName: __ZNSt3__115basic_stringbufIcNS_11char_traitsIcEENS_9allocatorIcEEE9underflowEv, symObjAddr: 0xC1FC, symBinAddr: 0xDB68, symSize: 0x50 }
  - { offset: 0xD711C, size: 0x8, addend: 0x0, symName: __ZNSt3__115basic_stringbufIcNS_11char_traitsIcEENS_9allocatorIcEEE9pbackfailEi, symObjAddr: 0xC24C, symBinAddr: 0xDBB8, symSize: 0x6C }
  - { offset: 0xD7319, size: 0x8, addend: 0x0, symName: __ZNSt3__115basic_stringbufIcNS_11char_traitsIcEENS_9allocatorIcEEE8overflowEi, symObjAddr: 0xC2B8, symBinAddr: 0xDC24, symSize: 0x168 }
  - { offset: 0xD7ABE, size: 0x8, addend: 0x0, symName: __ZNSt3__16vectorI5RemapNS_9allocatorIS1_EEE24__emplace_back_slow_pathIJS1_EEEPS1_DpOT_, symObjAddr: 0xC8DC, symBinAddr: 0xE234, symSize: 0x1BC }
  - { offset: 0xD7AC9, size: 0x8, addend: 0x0, symName: __ZNSt3__114__split_bufferINS_12basic_stringIcNS_11char_traitsIcEENS_9allocatorIcEEEERNS4_IS6_EEED1Ev, symObjAddr: 0xC864, symBinAddr: 0xE1D0, symSize: 0x64 }
  - { offset: 0xD7E8D, size: 0x8, addend: 0x0, symName: __ZL13remap_genericRN11spirv_cross8CompilerERKNS_11SmallVectorINS_8ResourceELm8EEERK5Remap, symObjAddr: 0xCAAC, symBinAddr: 0xE3F0, symSize: 0x104 }
  - { offset: 0xD8215, size: 0x8, addend: 0x0, symName: __ZN11spirv_cross13PlsInOutRemapD1Ev, symObjAddr: 0xD328, symBinAddr: 0xEC58, symSize: 0x4C }
  - { offset: 0xD8393, size: 0x8, addend: 0x0, symName: '__ZNSt3__110__function6__funcIZN12_GLOBAL__N_112CrossCompileERKN15ShaderConductor8Compiler10ResultDescERKNS4_10SourceDescERKNS4_7OptionsERKNS4_10TargetDescEE3$_0FvRKN11spirv_cross8SPIRTypeERKNS_12basic_stringIcNS_11char_traitsIcEENS_9allocatorIcEEEERSR_EED1Ev', symObjAddr: 0xD568, symBinAddr: 0xEE84, symSize: 0x4 }
  - { offset: 0xD839E, size: 0x8, addend: 0x0, symName: '__ZNSt3__110__function6__funcIZN12_GLOBAL__N_112CrossCompileERKN15ShaderConductor8Compiler10ResultDescERKNS4_10SourceDescERKNS4_7OptionsERKNS4_10TargetDescEE3$_0FvRKN11spirv_cross8SPIRTypeERKNS_12basic_stringIcNS_11char_traitsIcEENS_9allocatorIcEEEERSR_EED1Ev', symObjAddr: 0xD568, symBinAddr: 0xEE84, symSize: 0x4 }
  - { offset: 0xD83CD, size: 0x8, addend: 0x0, symName: '__ZNSt3__110__function6__funcIZN12_GLOBAL__N_112CrossCompileERKN15ShaderConductor8Compiler10ResultDescERKNS4_10SourceDescERKNS4_7OptionsERKNS4_10TargetDescEE3$_0FvRKN11spirv_cross8SPIRTypeERKNS_12basic_stringIcNS_11char_traitsIcEENS_9allocatorIcEEEERSR_EED0Ev', symObjAddr: 0xD56C, symBinAddr: 0xEE88, symSize: 0x4 }
  - { offset: 0xD8442, size: 0x8, addend: 0x0, symName: '__ZNKSt3__110__function6__funcIZN12_GLOBAL__N_112CrossCompileERKN15ShaderConductor8Compiler10ResultDescERKNS4_10SourceDescERKNS4_7OptionsERKNS4_10TargetDescEE3$_0FvRKN11spirv_cross8SPIRTypeERKNS_12basic_stringIcNS_11char_traitsIcEENS_9allocatorIcEEEERSR_EE7__cloneEv', symObjAddr: 0xD570, symBinAddr: 0xEE8C, symSize: 0x34 }
  - { offset: 0xD84B9, size: 0x8, addend: 0x0, symName: '__ZNKSt3__110__function6__funcIZN12_GLOBAL__N_112CrossCompileERKN15ShaderConductor8Compiler10ResultDescERKNS4_10SourceDescERKNS4_7OptionsERKNS4_10TargetDescEE3$_0FvRKN11spirv_cross8SPIRTypeERKNS_12basic_stringIcNS_11char_traitsIcEENS_9allocatorIcEEEERSR_EE7__cloneEPNS0_6__baseISV_EE', symObjAddr: 0xD5A4, symBinAddr: 0xEEC0, symSize: 0x14 }
  - { offset: 0xD84EF, size: 0x8, addend: 0x0, symName: '__ZNKSt3__110__function6__funcIZN12_GLOBAL__N_112CrossCompileERKN15ShaderConductor8Compiler10ResultDescERKNS4_10SourceDescERKNS4_7OptionsERKNS4_10TargetDescEE3$_0FvRKN11spirv_cross8SPIRTypeERKNS_12basic_stringIcNS_11char_traitsIcEENS_9allocatorIcEEEERSR_EE7__cloneEPNS0_6__baseISV_EE', symObjAddr: 0xD5A4, symBinAddr: 0xEEC0, symSize: 0x14 }
  - { offset: 0xD8516, size: 0x8, addend: 0x0, symName: '__ZNKSt3__110__function6__funcIZN12_GLOBAL__N_112CrossCompileERKN15ShaderConductor8Compiler10ResultDescERKNS4_10SourceDescERKNS4_7OptionsERKNS4_10TargetDescEE3$_0FvRKN11spirv_cross8SPIRTypeERKNS_12basic_stringIcNS_11char_traitsIcEENS_9allocatorIcEEEERSR_EE7__cloneEPNS0_6__baseISV_EE', symObjAddr: 0xD5A4, symBinAddr: 0xEEC0, symSize: 0x14 }
  - { offset: 0xD853C, size: 0x8, addend: 0x0, symName: '__ZNSt3__110__function6__funcIZN12_GLOBAL__N_112CrossCompileERKN15ShaderConductor8Compiler10ResultDescERKNS4_10SourceDescERKNS4_7OptionsERKNS4_10TargetDescEE3$_0FvRKN11spirv_cross8SPIRTypeERKNS_12basic_stringIcNS_11char_traitsIcEENS_9allocatorIcEEEERSR_EE7destroyEv', symObjAddr: 0xD5B8, symBinAddr: 0xEED4, symSize: 0x4 }
  - { offset: 0xD855F, size: 0x8, addend: 0x0, symName: '__ZNSt3__110__function6__funcIZN12_GLOBAL__N_112CrossCompileERKN15ShaderConductor8Compiler10ResultDescERKNS4_10SourceDescERKNS4_7OptionsERKNS4_10TargetDescEE3$_0FvRKN11spirv_cross8SPIRTypeERKNS_12basic_stringIcNS_11char_traitsIcEENS_9allocatorIcEEEERSR_EE18destroy_deallocateEv', symObjAddr: 0xD5BC, symBinAddr: 0xEED8, symSize: 0x14 }
  - { offset: 0xD86B9, size: 0x8, addend: 0x0, symName: '__ZNSt3__110__function6__funcIZN12_GLOBAL__N_112CrossCompileERKN15ShaderConductor8Compiler10ResultDescERKNS4_10SourceDescERKNS4_7OptionsERKNS4_10TargetDescEE3$_0FvRKN11spirv_cross8SPIRTypeERKNS_12basic_stringIcNS_11char_traitsIcEENS_9allocatorIcEEEERSR_EEclESL_ST_SU_', symObjAddr: 0xD5D0, symBinAddr: 0xEEEC, symSize: 0xC8 }
  - { offset: 0xD8BD4, size: 0x8, addend: 0x0, symName: '__ZNKSt3__110__function6__funcIZN12_GLOBAL__N_112CrossCompileERKN15ShaderConductor8Compiler10ResultDescERKNS4_10SourceDescERKNS4_7OptionsERKNS4_10TargetDescEE3$_0FvRKN11spirv_cross8SPIRTypeERKNS_12basic_stringIcNS_11char_traitsIcEENS_9allocatorIcEEEERSR_EE6targetERKSt9type_info', symObjAddr: 0xD698, symBinAddr: 0xEFB4, symSize: 0x60 }
  - { offset: 0xD8C90, size: 0x8, addend: 0x0, symName: '__ZNKSt3__110__function6__funcIZN12_GLOBAL__N_112CrossCompileERKN15ShaderConductor8Compiler10ResultDescERKNS4_10SourceDescERKNS4_7OptionsERKNS4_10TargetDescEE3$_0FvRKN11spirv_cross8SPIRTypeERKNS_12basic_stringIcNS_11char_traitsIcEENS_9allocatorIcEEEERSR_EE11target_typeEv', symObjAddr: 0xD6F8, symBinAddr: 0xF014, symSize: 0xC }
  - { offset: 0xD8D0A, size: 0x8, addend: 0x0, symName: __ZNSt3__117bad_function_callD1Ev, symObjAddr: 0xD738, symBinAddr: 0xF054, symSize: 0x4 }
  - { offset: 0xD8D2E, size: 0x8, addend: 0x0, symName: __ZNSt3__117bad_function_callD1Ev, symObjAddr: 0xD738, symBinAddr: 0xF054, symSize: 0x4 }
  - { offset: 0xD8D67, size: 0x8, addend: 0x0, symName: __ZNSt3__117bad_function_callD0Ev, symObjAddr: 0xD73C, symBinAddr: 0xF058, symSize: 0x14 }
  - { offset: 0xD90D6, size: 0x8, addend: 0x0, symName: __ZNSt3__16__treeINS_12__value_typeIjiEENS_19__map_value_compareIjNS_4pairIKjiEENS_4lessIjEELb1EEENS_9allocatorIS6_EEE12__find_equalIjEERPNS_16__tree_node_baseIPvEENS_21__tree_const_iteratorIS2_PNS_11__tree_nodeIS2_SF_EElEERPNS_15__tree_end_nodeISH_EESI_RKT_, symObjAddr: 0xD844, symBinAddr: 0xF160, symSize: 0x198 }
  - { offset: 0xD913C, size: 0x8, addend: 0x0, symName: __ZNSt3__16__treeINS_12__value_typeIjiEENS_19__map_value_compareIjNS_4pairIKjiEENS_4lessIjEELb1EEENS_9allocatorIS6_EEE12__find_equalIjEERPNS_16__tree_node_baseIPvEENS_21__tree_const_iteratorIS2_PNS_11__tree_nodeIS2_SF_EElEERPNS_15__tree_end_nodeISH_EESI_RKT_, symObjAddr: 0xD844, symBinAddr: 0xF160, symSize: 0x198 }
  - { offset: 0xD915A, size: 0x8, addend: 0x0, symName: __ZNSt3__16__treeINS_12__value_typeIjiEENS_19__map_value_compareIjNS_4pairIKjiEENS_4lessIjEELb1EEENS_9allocatorIS6_EEE12__find_equalIjEERPNS_16__tree_node_baseIPvEENS_21__tree_const_iteratorIS2_PNS_11__tree_nodeIS2_SF_EElEERPNS_15__tree_end_nodeISH_EESI_RKT_, symObjAddr: 0xD844, symBinAddr: 0xF160, symSize: 0x198 }
  - { offset: 0xD98E6, size: 0x8, addend: 0x0, symName: __ZNSt3__16__treeINS_12basic_stringIcNS_11char_traitsIcEENS_9allocatorIcEEEENS_4lessIS6_EENS4_IS6_EEE12__find_equalIS6_EERPNS_16__tree_node_baseIPvEENS_21__tree_const_iteratorIS6_PNS_11__tree_nodeIS6_SD_EElEERPNS_15__tree_end_nodeISF_EESG_RKT_, symObjAddr: 0xDCDC, symBinAddr: 0xF5F8, symSize: 0x3F8 }
  - { offset: 0xDA53A, size: 0x8, addend: 0x0, symName: __ZNSt3__110unique_ptrINS_11__tree_nodeINS_12basic_stringIcNS_11char_traitsIcEENS_9allocatorIcEEEEPvEENS_22__tree_node_destructorINS5_IS9_EEEEED1B9nqe210106Ev, symObjAddr: 0xE0D4, symBinAddr: 0xF9F0, symSize: 0x60 }
  - { offset: 0xDAFC8, size: 0x8, addend: 0x0, symName: __ZNSt3__16__treeINS_12__value_typeIjiEENS_19__map_value_compareIjNS_4pairIKjiEENS_4lessIjEELb1EEENS_9allocatorIS6_EEE20__emplace_hint_multiIJRKS6_EEENS_15__tree_iteratorIS2_PNS_11__tree_nodeIS2_PvEElEENS_21__tree_const_iteratorIS2_SK_lEEDpOT_, symObjAddr: 0xE62C, symBinAddr: 0xFF48, symSize: 0x144 }
  - { offset: 0xDB6C1, size: 0x8, addend: 0x0, symName: __ZNSt3__16__treeINS_12basic_stringIcNS_11char_traitsIcEENS_9allocatorIcEEEENS_4lessIS6_EENS4_IS6_EEE19__node_insert_multiEPNS_11__tree_nodeIS6_PvEE, symObjAddr: 0xE9B0, symBinAddr: 0x102CC, symSize: 0x108 }
  - { offset: 0xDB939, size: 0x8, addend: 0x0, symName: __ZNSt3__16__treeINS_12basic_stringIcNS_11char_traitsIcEENS_9allocatorIcEEEENS_4lessIS6_EENS4_IS6_EEE20__emplace_hint_multiIJRKS6_EEENS_15__tree_iteratorIS6_PNS_11__tree_nodeIS6_PvEElEENS_21__tree_const_iteratorIS6_SI_lEEDpOT_, symObjAddr: 0xEB0C, symBinAddr: 0x10428, symSize: 0xE0 }
  - { offset: 0xDBC84, size: 0x8, addend: 0x0, symName: __ZNSt3__16__treeINS_12basic_stringIcNS_11char_traitsIcEENS_9allocatorIcEEEENS_4lessIS6_EENS4_IS6_EEE18_DetachedTreeCacheD1B9nqe210106Ev, symObjAddr: 0xEAB8, symBinAddr: 0x103D4, symSize: 0x54 }
  - { offset: 0xDBD59, size: 0x8, addend: 0x0, symName: __ZNSt3__16__treeINS_12basic_stringIcNS_11char_traitsIcEENS_9allocatorIcEEEENS_4lessIS6_EENS4_IS6_EEE11__find_leafENS_21__tree_const_iteratorIS6_PNS_11__tree_nodeIS6_PvEElEERPNS_15__tree_end_nodeIPNS_16__tree_node_baseISD_EEEERKS6_, symObjAddr: 0xEBEC, symBinAddr: 0x10508, symSize: 0x238 }
  - { offset: 0xDC4A8, size: 0x8, addend: 0x0, symName: __ZNSt3__113basic_filebufIcNS_11char_traitsIcEEED1Ev, symObjAddr: 0xEE80, symBinAddr: 0x1079C, symSize: 0x4 }
  - { offset: 0xDC4CC, size: 0x8, addend: 0x0, symName: __ZNSt3__113basic_filebufIcNS_11char_traitsIcEEED1Ev, symObjAddr: 0xEE80, symBinAddr: 0x1079C, symSize: 0x4 }
  - { offset: 0xDC4E0, size: 0x8, addend: 0x0, symName: __ZNSt3__114basic_ifstreamIcNS_11char_traitsIcEEED0Ev, symObjAddr: 0xEE84, symBinAddr: 0x107A0, symSize: 0x5C }
  - { offset: 0xDC56C, size: 0x8, addend: 0x0, symName: __ZTv0_n24_NSt3__114basic_ifstreamIcNS_11char_traitsIcEEED1Ev, symObjAddr: 0xEEE0, symBinAddr: 0x107FC, symSize: 0x5C }
  - { offset: 0xDC611, size: 0x8, addend: 0x0, symName: __ZTv0_n24_NSt3__114basic_ifstreamIcNS_11char_traitsIcEEED0Ev, symObjAddr: 0xEF3C, symBinAddr: 0x10858, symSize: 0x64 }
  - { offset: 0xDC6EA, size: 0x8, addend: 0x0, symName: __ZNSt3__113basic_filebufIcNS_11char_traitsIcEEED0Ev, symObjAddr: 0xF0F4, symBinAddr: 0x10A10, symSize: 0x14 }
  - { offset: 0xDC749, size: 0x8, addend: 0x0, symName: __ZNSt3__113basic_filebufIcNS_11char_traitsIcEEE5imbueERKNS_6localeE, symObjAddr: 0xF108, symBinAddr: 0x10A24, symSize: 0xEC }
  - { offset: 0xDC853, size: 0x8, addend: 0x0, symName: __ZNSt3__113basic_filebufIcNS_11char_traitsIcEEE6setbufEPcl, symObjAddr: 0xF1F4, symBinAddr: 0x10B10, symSize: 0x144 }
  - { offset: 0xDC962, size: 0x8, addend: 0x0, symName: __ZNSt3__113basic_filebufIcNS_11char_traitsIcEEE7seekoffExNS_8ios_base7seekdirEj, symObjAddr: 0xF338, symBinAddr: 0x10C54, symSize: 0x100 }
  - { offset: 0xDCB10, size: 0x8, addend: 0x0, symName: __ZNSt3__113basic_filebufIcNS_11char_traitsIcEEE7seekposENS_4fposI11__mbstate_tEEj, symObjAddr: 0xF438, symBinAddr: 0x10D54, symSize: 0xD0 }
  - { offset: 0xDCB56, size: 0x8, addend: 0x0, symName: __ZNSt3__113basic_filebufIcNS_11char_traitsIcEEE7seekposENS_4fposI11__mbstate_tEEj, symObjAddr: 0xF438, symBinAddr: 0x10D54, symSize: 0xD0 }
  - { offset: 0xDCC98, size: 0x8, addend: 0x0, symName: __ZNSt3__113basic_filebufIcNS_11char_traitsIcEEE4syncEv, symObjAddr: 0xF508, symBinAddr: 0x10E24, symSize: 0x238 }
  - { offset: 0xDCF99, size: 0x8, addend: 0x0, symName: __ZNSt3__113basic_filebufIcNS_11char_traitsIcEEE9underflowEv, symObjAddr: 0xF740, symBinAddr: 0x1105C, symSize: 0x27C }
  - { offset: 0xDD05A, size: 0x8, addend: 0x0, symName: __ZNSt3__113basic_filebufIcNS_11char_traitsIcEEE9underflowEv, symObjAddr: 0xF740, symBinAddr: 0x1105C, symSize: 0x27C }
  - { offset: 0xDD40C, size: 0x8, addend: 0x0, symName: __ZNSt3__113basic_filebufIcNS_11char_traitsIcEEE9pbackfailEi, symObjAddr: 0xF9BC, symBinAddr: 0x112D8, symSize: 0x5C }
  - { offset: 0xDD438, size: 0x8, addend: 0x0, symName: __ZNSt3__113basic_filebufIcNS_11char_traitsIcEEE9pbackfailEi, symObjAddr: 0xF9BC, symBinAddr: 0x112D8, symSize: 0x5C }
  - { offset: 0xDD599, size: 0x8, addend: 0x0, symName: __ZNSt3__113basic_filebufIcNS_11char_traitsIcEEE8overflowEi, symObjAddr: 0xFA18, symBinAddr: 0x11334, symSize: 0x228 }
  - { offset: 0xDD956, size: 0x8, addend: 0x0, symName: __ZNSt3__116__throw_bad_castB9nqe210106Ev, symObjAddr: 0xFC40, symBinAddr: 0x1155C, symSize: 0x28 }
  - { offset: 0xDDBDD, size: 0x8, addend: 0x0, symName: __ZNSt3__16vectorINS_12basic_stringIwNS_11char_traitsIwEENS_9allocatorIwEEEENS4_IS6_EEE24__emplace_back_slow_pathIJRKS6_EEEPS6_DpOT_, symObjAddr: 0xFF1C, symBinAddr: 0x11784, symSize: 0x148 }
  - { offset: 0xDDD34, size: 0x8, addend: 0x0, symName: __ZN12_GLOBAL__N_116ScIncludeHandler14QueryInterfaceERK4GUIDPPv, symObjAddr: 0x100F8, symBinAddr: 0x1194C, symSize: 0xAC }
  - { offset: 0xDDEB2, size: 0x8, addend: 0x0, symName: __ZN12_GLOBAL__N_116ScIncludeHandler6AddRefEv, symObjAddr: 0x101A4, symBinAddr: 0x119F8, symSize: 0x14 }
  - { offset: 0xDE039, size: 0x8, addend: 0x0, symName: __ZN12_GLOBAL__N_116ScIncludeHandler7ReleaseEv, symObjAddr: 0x101B8, symBinAddr: 0x11A0C, symSize: 0x74 }
  - { offset: 0xDE268, size: 0x8, addend: 0x0, symName: __ZN12_GLOBAL__N_116ScIncludeHandler10LoadSourceEPKwPP8IDxcBlob, symObjAddr: 0x1022C, symBinAddr: 0x11A80, symSize: 0x1D0 }
  - { offset: 0xDE9FB, size: 0x8, addend: 0x0, symName: __ZN12_GLOBAL__N_110Dxcompiler7DestroyEv, symObjAddr: 0x10AA8, symBinAddr: 0x122FC, symSize: 0x88 }
  - { offset: 0xDECA9, size: 0x8, addend: 0x0, symName: __ZN7CComPtrI12IDxcRewriterED1Ev, symObjAddr: 0x10B30, symBinAddr: 0x12384, symSize: 0x44 }
  - { offset: 0xDED0A, size: 0x8, addend: 0x0, symName: __ZN7CComPtrI23IDxcContainerReflectionED1Ev, symObjAddr: 0x10B74, symBinAddr: 0x123C8, symSize: 0x44 }
  - { offset: 0xDED6B, size: 0x8, addend: 0x0, symName: __ZN7CComPtrI12IDxcCompilerED1Ev, symObjAddr: 0x10BB8, symBinAddr: 0x1240C, symSize: 0x44 }
  - { offset: 0xDEDCC, size: 0x8, addend: 0x0, symName: __ZN7CComPtrI11IDxcLibraryED1Ev, symObjAddr: 0x10BFC, symBinAddr: 0x12450, symSize: 0x44 }
  - { offset: 0xDEFF3, size: 0x8, addend: 0x0, symName: __ZN12_GLOBAL__N_110DxcompilerD1Ev, symObjAddr: 0x10A10, symBinAddr: 0x12264, symSize: 0x98 }
  - { offset: 0xDF39C, size: 0x8, addend: 0x0, symName: __ZNSt3__110__function6__funcIPFN15ShaderConductor4BlobEPKcES6_ED1Ev, symObjAddr: 0x10D6C, symBinAddr: 0x12560, symSize: 0x4 }
  - { offset: 0xDF3CB, size: 0x8, addend: 0x0, symName: __ZNSt3__110__function6__funcIPFN15ShaderConductor4BlobEPKcES6_ED0Ev, symObjAddr: 0x10D70, symBinAddr: 0x12564, symSize: 0x4 }
  - { offset: 0xDF440, size: 0x8, addend: 0x0, symName: __ZNKSt3__110__function6__funcIPFN15ShaderConductor4BlobEPKcES6_E7__cloneEv, symObjAddr: 0x10D74, symBinAddr: 0x12568, symSize: 0x38 }
  - { offset: 0xDF4B7, size: 0x8, addend: 0x0, symName: __ZNKSt3__110__function6__funcIPFN15ShaderConductor4BlobEPKcES6_E7__cloneEPNS0_6__baseIS6_EE, symObjAddr: 0x10DAC, symBinAddr: 0x125A0, symSize: 0x18 }
  - { offset: 0xDF4ED, size: 0x8, addend: 0x0, symName: __ZNKSt3__110__function6__funcIPFN15ShaderConductor4BlobEPKcES6_E7__cloneEPNS0_6__baseIS6_EE, symObjAddr: 0x10DAC, symBinAddr: 0x125A0, symSize: 0x18 }
  - { offset: 0xDF514, size: 0x8, addend: 0x0, symName: __ZNKSt3__110__function6__funcIPFN15ShaderConductor4BlobEPKcES6_E7__cloneEPNS0_6__baseIS6_EE, symObjAddr: 0x10DAC, symBinAddr: 0x125A0, symSize: 0x18 }
  - { offset: 0xDF53A, size: 0x8, addend: 0x0, symName: __ZNSt3__110__function6__funcIPFN15ShaderConductor4BlobEPKcES6_E7destroyEv, symObjAddr: 0x10DC4, symBinAddr: 0x125B8, symSize: 0x4 }
  - { offset: 0xDF55F, size: 0x8, addend: 0x0, symName: __ZNSt3__110__function6__funcIPFN15ShaderConductor4BlobEPKcES6_E18destroy_deallocateEv, symObjAddr: 0x10DC8, symBinAddr: 0x125BC, symSize: 0x14 }
  - { offset: 0xDF5C6, size: 0x8, addend: 0x0, symName: __ZNSt3__110__function6__funcIPFN15ShaderConductor4BlobEPKcES6_EclEOS5_, symObjAddr: 0x10DDC, symBinAddr: 0x125D0, symSize: 0xC }
  - { offset: 0xDF5FE, size: 0x8, addend: 0x0, symName: __ZNSt3__110__function6__funcIPFN15ShaderConductor4BlobEPKcES6_EclEOS5_, symObjAddr: 0x10DDC, symBinAddr: 0x125D0, symSize: 0xC }
  - { offset: 0xDF625, size: 0x8, addend: 0x0, symName: __ZNSt3__110__function6__funcIPFN15ShaderConductor4BlobEPKcES6_EclEOS5_, symObjAddr: 0x10DDC, symBinAddr: 0x125D0, symSize: 0xC }
  - { offset: 0xDF64D, size: 0x8, addend: 0x0, symName: __ZNSt3__110__function6__funcIPFN15ShaderConductor4BlobEPKcES6_EclEOS5_, symObjAddr: 0x10DDC, symBinAddr: 0x125D0, symSize: 0xC }
  - { offset: 0xDF68A, size: 0x8, addend: 0x0, symName: __ZNKSt3__110__function6__funcIPFN15ShaderConductor4BlobEPKcES6_E6targetERKSt9type_info, symObjAddr: 0x10DE8, symBinAddr: 0x125DC, symSize: 0x70 }
  - { offset: 0xDF740, size: 0x8, addend: 0x0, symName: __ZNKSt3__110__function6__funcIPFN15ShaderConductor4BlobEPKcES6_E11target_typeEv, symObjAddr: 0x10E58, symBinAddr: 0x1264C, symSize: 0xC }
  - { offset: 0xDF76D, size: 0x8, addend: 0x0, symName: '__ZNSt3__110__function6__funcIZN15ShaderConductor8Compiler8OptimizeERKNS3_10ResultDescEPKPKcjE3$_0Fv19spv_message_level_tS8_RK14spv_position_tS8_EED1Ev', symObjAddr: 0x10FD0, symBinAddr: 0x127C4, symSize: 0x4 }
  - { offset: 0xDF79C, size: 0x8, addend: 0x0, symName: '__ZNSt3__110__function6__funcIZN15ShaderConductor8Compiler8OptimizeERKNS3_10ResultDescEPKPKcjE3$_0Fv19spv_message_level_tS8_RK14spv_position_tS8_EED0Ev', symObjAddr: 0x10FD4, symBinAddr: 0x127C8, symSize: 0x4 }
  - { offset: 0xDF811, size: 0x8, addend: 0x0, symName: '__ZNKSt3__110__function6__funcIZN15ShaderConductor8Compiler8OptimizeERKNS3_10ResultDescEPKPKcjE3$_0Fv19spv_message_level_tS8_RK14spv_position_tS8_EE7__cloneEv', symObjAddr: 0x10FD8, symBinAddr: 0x127CC, symSize: 0x34 }
  - { offset: 0xDF888, size: 0x8, addend: 0x0, symName: '__ZNKSt3__110__function6__funcIZN15ShaderConductor8Compiler8OptimizeERKNS3_10ResultDescEPKPKcjE3$_0Fv19spv_message_level_tS8_RK14spv_position_tS8_EE7__cloneEPNS0_6__baseISG_EE', symObjAddr: 0x1100C, symBinAddr: 0x12800, symSize: 0x14 }
  - { offset: 0xDF8BE, size: 0x8, addend: 0x0, symName: '__ZNKSt3__110__function6__funcIZN15ShaderConductor8Compiler8OptimizeERKNS3_10ResultDescEPKPKcjE3$_0Fv19spv_message_level_tS8_RK14spv_position_tS8_EE7__cloneEPNS0_6__baseISG_EE', symObjAddr: 0x1100C, symBinAddr: 0x12800, symSize: 0x14 }
  - { offset: 0xDF8E5, size: 0x8, addend: 0x0, symName: '__ZNKSt3__110__function6__funcIZN15ShaderConductor8Compiler8OptimizeERKNS3_10ResultDescEPKPKcjE3$_0Fv19spv_message_level_tS8_RK14spv_position_tS8_EE7__cloneEPNS0_6__baseISG_EE', symObjAddr: 0x1100C, symBinAddr: 0x12800, symSize: 0x14 }
  - { offset: 0xDF90B, size: 0x8, addend: 0x0, symName: '__ZNSt3__110__function6__funcIZN15ShaderConductor8Compiler8OptimizeERKNS3_10ResultDescEPKPKcjE3$_0Fv19spv_message_level_tS8_RK14spv_position_tS8_EE7destroyEv', symObjAddr: 0x11020, symBinAddr: 0x12814, symSize: 0x4 }
  - { offset: 0xDF92E, size: 0x8, addend: 0x0, symName: '__ZNSt3__110__function6__funcIZN15ShaderConductor8Compiler8OptimizeERKNS3_10ResultDescEPKPKcjE3$_0Fv19spv_message_level_tS8_RK14spv_position_tS8_EE18destroy_deallocateEv', symObjAddr: 0x11024, symBinAddr: 0x12818, symSize: 0x14 }
  - { offset: 0xDFA29, size: 0x8, addend: 0x0, symName: '__ZNSt3__110__function6__funcIZN15ShaderConductor8Compiler8OptimizeERKNS3_10ResultDescEPKPKcjE3$_0Fv19spv_message_level_tS8_RK14spv_position_tS8_EEclEOSC_OS8_SF_SJ_', symObjAddr: 0x11038, symBinAddr: 0x1282C, symSize: 0xC }
  - { offset: 0xDFA82, size: 0x8, addend: 0x0, symName: '__ZNSt3__110__function6__funcIZN15ShaderConductor8Compiler8OptimizeERKNS3_10ResultDescEPKPKcjE3$_0Fv19spv_message_level_tS8_RK14spv_position_tS8_EEclEOSC_OS8_SF_SJ_', symObjAddr: 0x11038, symBinAddr: 0x1282C, symSize: 0xC }
  - { offset: 0xDFAA9, size: 0x8, addend: 0x0, symName: '__ZNSt3__110__function6__funcIZN15ShaderConductor8Compiler8OptimizeERKNS3_10ResultDescEPKPKcjE3$_0Fv19spv_message_level_tS8_RK14spv_position_tS8_EEclEOSC_OS8_SF_SJ_', symObjAddr: 0x11038, symBinAddr: 0x1282C, symSize: 0xC }
  - { offset: 0xDFAD1, size: 0x8, addend: 0x0, symName: '__ZNSt3__110__function6__funcIZN15ShaderConductor8Compiler8OptimizeERKNS3_10ResultDescEPKPKcjE3$_0Fv19spv_message_level_tS8_RK14spv_position_tS8_EEclEOSC_OS8_SF_SJ_', symObjAddr: 0x11038, symBinAddr: 0x1282C, symSize: 0xC }
  - { offset: 0xDFB48, size: 0x8, addend: 0x0, symName: '__ZNKSt3__110__function6__funcIZN15ShaderConductor8Compiler8OptimizeERKNS3_10ResultDescEPKPKcjE3$_0Fv19spv_message_level_tS8_RK14spv_position_tS8_EE6targetERKSt9type_info', symObjAddr: 0x11044, symBinAddr: 0x12838, symSize: 0x60 }
  - { offset: 0xDFC04, size: 0x8, addend: 0x0, symName: '__ZNKSt3__110__function6__funcIZN15ShaderConductor8Compiler8OptimizeERKNS3_10ResultDescEPKPKcjE3$_0Fv19spv_message_level_tS8_RK14spv_position_tS8_EE11target_typeEv', symObjAddr: 0x110A4, symBinAddr: 0x12898, symSize: 0xC }
  - { offset: 0xDFC63, size: 0x8, addend: 0x0, symName: _OUTLINED_FUNCTION_0, symObjAddr: 0x11320, symBinAddr: 0x129AC, symSize: 0x8 }
  - { offset: 0xE1DB1, size: 0x8, addend: 0x0, symName: __ZTVN4hlsl9ExceptionE, symObjAddr: 0xBF0, symBinAddr: 0x22C7D8, symSize: 0x0 }
  - { offset: 0xE690A, size: 0x8, addend: 0x0, symName: __Z19MultiByteToWideCharjjPKciPwi, symObjAddr: 0x0, symBinAddr: 0x129B4, symSize: 0x128 }
  - { offset: 0xE6B54, size: 0x8, addend: 0x0, symName: __Z19WideCharToMultiBytejjPKwiPciPKcPb, symObjAddr: 0x128, symBinAddr: 0x12ADC, symSize: 0x128 }
  - { offset: 0xE6DFB, size: 0x8, addend: 0x0, symName: __ZN7Unicode19WideToEncodedStringEPKwmjjPNSt3__112basic_stringIcNS2_11char_traitsIcEENS2_9allocatorIcEEEEPb, symObjAddr: 0x250, symBinAddr: 0x12C04, symSize: 0xA0 }
  - { offset: 0xE700D, size: 0x8, addend: 0x0, symName: __ZN7Unicode16UTF8ToWideStringEPKcPNSt3__112basic_stringIwNS2_11char_traitsIwEENS2_9allocatorIwEEEE, symObjAddr: 0x2F0, symBinAddr: 0x12CA4, symSize: 0x9C }
  - { offset: 0xE71D9, size: 0x8, addend: 0x0, symName: __ZN7Unicode16UTF8ToWideStringEPKcmPNSt3__112basic_stringIwNS2_11char_traitsIwEENS2_9allocatorIwEEEE, symObjAddr: 0x38C, symBinAddr: 0x12D40, symSize: 0x90 }
  - { offset: 0xE734F, size: 0x8, addend: 0x0, symName: __ZN7Unicode23UTF8ToWideStringOrThrowEPKc, symObjAddr: 0x41C, symBinAddr: 0x12DD0, symSize: 0x8C }
  - { offset: 0xE75A3, size: 0x8, addend: 0x0, symName: __ZN7Unicode19UTF8ToConsoleStringEPKcmPNSt3__112basic_stringIcNS2_11char_traitsIcEENS2_9allocatorIcEEEEPb, symObjAddr: 0x4EC, symBinAddr: 0x12EA0, symSize: 0x124 }
  - { offset: 0xE7A69, size: 0x8, addend: 0x0, symName: __ZN7Unicode19WideToConsoleStringEPKwmPNSt3__112basic_stringIcNS2_11char_traitsIcEENS2_9allocatorIcEEEEPb, symObjAddr: 0x610, symBinAddr: 0x12FC4, symSize: 0x10 }
  - { offset: 0xE7ADE, size: 0x8, addend: 0x0, symName: __ZN7Unicode19UTF8ToConsoleStringEPKcPNSt3__112basic_stringIcNS2_11char_traitsIcEENS2_9allocatorIcEEEEPb, symObjAddr: 0x620, symBinAddr: 0x12FD4, symSize: 0x40 }
  - { offset: 0xE7B52, size: 0x8, addend: 0x0, symName: __ZN7Unicode19WideToConsoleStringEPKwPNSt3__112basic_stringIcNS2_11char_traitsIcEENS2_9allocatorIcEEEEPb, symObjAddr: 0x660, symBinAddr: 0x13014, symSize: 0x44 }
  - { offset: 0xE7C10, size: 0x8, addend: 0x0, symName: __ZN7Unicode16WideToUTF8StringEPKwmPNSt3__112basic_stringIcNS2_11char_traitsIcEENS2_9allocatorIcEEEE, symObjAddr: 0x6A4, symBinAddr: 0x13058, symSize: 0x10 }
  - { offset: 0xE7C91, size: 0x8, addend: 0x0, symName: __ZN7Unicode16WideToUTF8StringEPKwPNSt3__112basic_stringIcNS2_11char_traitsIcEENS2_9allocatorIcEEEE, symObjAddr: 0x6B4, symBinAddr: 0x13068, symSize: 0x38 }
  - { offset: 0xE7D16, size: 0x8, addend: 0x0, symName: __ZN7Unicode23WideToUTF8StringOrThrowEPKw, symObjAddr: 0x6EC, symBinAddr: 0x130A0, symSize: 0xA4 }
  - { offset: 0xE7F6C, size: 0x8, addend: 0x0, symName: __ZN7Unicode23UTF8BufferToWideComHeapEPKcPPw, symObjAddr: 0x790, symBinAddr: 0x13144, symSize: 0xA0 }
  - { offset: 0xE80BF, size: 0x8, addend: 0x0, symName: __ZN7Unicode22UTF8BufferToWideBufferEPKciPPwPm, symObjAddr: 0x840, symBinAddr: 0x131E4, symSize: 0xF0 }
  - { offset: 0xE81B7, size: 0x8, addend: 0x0, symName: __ZN7Unicode22WideBufferToUTF8BufferEPKwiPPcPm, symObjAddr: 0x930, symBinAddr: 0x132D4, symSize: 0xE8 }
  - { offset: 0xE8307, size: 0x8, addend: 0x0, symName: __ZN7Unicode15IsStarMatchUTF8EPKcmS1_m, symObjAddr: 0xA18, symBinAddr: 0x133BC, symSize: 0x78 }
  - { offset: 0xE8412, size: 0x8, addend: 0x0, symName: __ZN7Unicode15IsStarMatchWideEPKwmS1_m, symObjAddr: 0xA90, symBinAddr: 0x13434, symSize: 0x7C }
  - { offset: 0xE87B0, size: 0x8, addend: 0x0, symName: __ZN4hlsl9ExceptionD1Ev, symObjAddr: 0x4A8, symBinAddr: 0x12E5C, symSize: 0x44 }
  - { offset: 0xE87D6, size: 0x8, addend: 0x0, symName: __ZN4hlsl9ExceptionD1Ev, symObjAddr: 0x4A8, symBinAddr: 0x12E5C, symSize: 0x44 }
  - { offset: 0xE8CE4, size: 0x8, addend: 0x0, symName: __ZN4hlsl9ExceptionD0Ev, symObjAddr: 0xB0C, symBinAddr: 0x134B0, symSize: 0x40 }
  - { offset: 0xE8E9F, size: 0x8, addend: 0x0, symName: __ZNK4hlsl9Exception4whatEv, symObjAddr: 0xB4C, symBinAddr: 0x134F0, symSize: 0x1C }
  - { offset: 0xEAD83, size: 0x8, addend: 0x0, symName: __Z10CPToLocalej, symObjAddr: 0x98, symBinAddr: 0x13594, symSize: 0x28 }
  - { offset: 0xF1567, size: 0x8, addend: 0x0, symName: __ZN10CAllocator10ReallocateEPvm, symObjAddr: 0x0, symBinAddr: 0x1350C, symSize: 0x4 }
  - { offset: 0xF159D, size: 0x8, addend: 0x0, symName: __ZN10CAllocator10ReallocateEPvm, symObjAddr: 0x0, symBinAddr: 0x1350C, symSize: 0x4 }
  - { offset: 0xF15D0, size: 0x8, addend: 0x0, symName: __ZN10CAllocator8AllocateEm, symObjAddr: 0x14, symBinAddr: 0x13510, symSize: 0x4 }
  - { offset: 0xF15F8, size: 0x8, addend: 0x0, symName: __ZN10CAllocator8AllocateEm, symObjAddr: 0x14, symBinAddr: 0x13510, symSize: 0x4 }
  - { offset: 0xF161E, size: 0x8, addend: 0x0, symName: __ZN10CAllocator4FreeEPv, symObjAddr: 0x18, symBinAddr: 0x13514, symSize: 0x4 }
  - { offset: 0xF1646, size: 0x8, addend: 0x0, symName: __ZN10CAllocator4FreeEPv, symObjAddr: 0x18, symBinAddr: 0x13514, symSize: 0x4 }
  - { offset: 0xF1668, size: 0x8, addend: 0x0, symName: __Z13SysFreeStringPw, symObjAddr: 0x1C, symBinAddr: 0x13518, symSize: 0x10 }
  - { offset: 0xF16A1, size: 0x8, addend: 0x0, symName: __Z17SysAllocStringLenPKwj, symObjAddr: 0x2C, symBinAddr: 0x13528, symSize: 0x5C }
  - { offset: 0xF16EC, size: 0x8, addend: 0x0, symName: __Z12SysStringLenPw, symObjAddr: 0x88, symBinAddr: 0x13584, symSize: 0x10 }
  - { offset: 0xF17A0, size: 0x8, addend: 0x0, symName: __ZN7CHandleC2EPv, symObjAddr: 0xC0, symBinAddr: 0x135BC, symSize: 0x8 }
  - { offset: 0xF17F5, size: 0x8, addend: 0x0, symName: __ZN7CHandleD2Ev, symObjAddr: 0xD0, symBinAddr: 0x135C4, symSize: 0x2C }
  - { offset: 0xF185B, size: 0x8, addend: 0x0, symName: __ZN7CHandleD1Ev, symObjAddr: 0xFC, symBinAddr: 0x135F0, symSize: 0x2C }
  - { offset: 0xF18B2, size: 0x8, addend: 0x0, symName: __ZNK7CHandlecvPvEv, symObjAddr: 0x128, symBinAddr: 0x1361C, symSize: 0x8 }
  - { offset: 0xF1A23, size: 0x8, addend: 0x0, symName: __ZN8CComBSTRC2EiPKw, symObjAddr: 0x130, symBinAddr: 0x13624, symSize: 0xD4 }
  - { offset: 0xF1AD2, size: 0x8, addend: 0x0, symName: __ZNSt16invalid_argumentC1B9nqe210106EPKc, symObjAddr: 0x204, symBinAddr: 0x136F8, symSize: 0x24 }
  - { offset: 0xF1B33, size: 0x8, addend: 0x0, symName: __ZN8CComBSTRC2EiPKw.cold.1, symObjAddr: 0x6AC, symBinAddr: 0x1DD768, symSize: 0x1C }
  - { offset: 0xF1B75, size: 0x8, addend: 0x0, symName: __ZN8CComBSTRC1EiPKw, symObjAddr: 0x228, symBinAddr: 0x1371C, symSize: 0x4 }
  - { offset: 0xF1BBF, size: 0x8, addend: 0x0, symName: __ZN8CComBSTRC1EiPKw, symObjAddr: 0x228, symBinAddr: 0x1371C, symSize: 0x4 }
  - { offset: 0xF1BE3, size: 0x8, addend: 0x0, symName: __ZNK8CComBSTReqERKS_, symObjAddr: 0x22C, symBinAddr: 0x13720, symSize: 0x24 }
  - { offset: 0xF260F, size: 0x8, addend: 0x0, symName: __ZN5WArgVC2EiPPKc, symObjAddr: 0x250, symBinAddr: 0x13744, symSize: 0x2CC }
  - { offset: 0xF3376, size: 0x8, addend: 0x0, symName: __ZN8CComBSTRC2EiPKw.cold.1, symObjAddr: 0x6AC, symBinAddr: 0x1DD768, symSize: 0x1C }
  - { offset: 0xF3851, size: 0x8, addend: 0x0, symName: __ZN5WArgVC1EiPPKc, symObjAddr: 0x58C, symBinAddr: 0x13A10, symSize: 0x4 }
  - { offset: 0xF389B, size: 0x8, addend: 0x0, symName: __ZN5WArgVC1EiPPKc, symObjAddr: 0x58C, symBinAddr: 0x13A10, symSize: 0x4 }
  - { offset: 0xF5807, size: 0x8, addend: 0x0, symName: __ZL13g_processHeap, symObjAddr: 0x202C0, symBinAddr: 0x234AB0, symSize: 0x0 }
  - { offset: 0xF7CE8, size: 0x8, addend: 0x0, symName: __ZNSt3__113__tree_removeB9nqe210106IPNS_16__tree_node_baseIPvEEEEvT_S5_, symObjAddr: 0xE34, symBinAddr: 0x14638, symSize: 0x3C8 }
  - { offset: 0xF9310, size: 0x8, addend: 0x0, symName: __Z16StringCchPrintfAPcmPKcz, symObjAddr: 0x0, symBinAddr: 0x13A14, symSize: 0x78 }
  - { offset: 0xF9404, size: 0x8, addend: 0x0, symName: __Z7UIntAddjjPj, symObjAddr: 0x78, symBinAddr: 0x13A8C, symSize: 0x18 }
  - { offset: 0xF945F, size: 0x8, addend: 0x0, symName: __Z9IntToUIntiPj, symObjAddr: 0x90, symBinAddr: 0x13AA4, symSize: 0x18 }
  - { offset: 0xF94AC, size: 0x8, addend: 0x0, symName: __Z10SizeTToIntmPi, symObjAddr: 0xA8, symBinAddr: 0x13ABC, symSize: 0x1C }
  - { offset: 0xF94F9, size: 0x8, addend: 0x0, symName: __Z10UInt32MultjjPj, symObjAddr: 0xC4, symBinAddr: 0x13AD8, symSize: 0x20 }
  - { offset: 0xF956D, size: 0x8, addend: 0x0, symName: __Z8strnicmpPKcS0_m, symObjAddr: 0xE4, symBinAddr: 0x13AF8, symSize: 0x90 }
  - { offset: 0xF9662, size: 0x8, addend: 0x0, symName: __Z8_stricmpPKcS0_, symObjAddr: 0x174, symBinAddr: 0x13B88, symSize: 0x84 }
  - { offset: 0xF9746, size: 0x8, addend: 0x0, symName: __Z8_wcsicmpPKwS0_, symObjAddr: 0x1F8, symBinAddr: 0x13C0C, symSize: 0x80 }
  - { offset: 0xF980E, size: 0x8, addend: 0x0, symName: __Z9_wcsnicmpPKwS0_m, symObjAddr: 0x278, symBinAddr: 0x13C8C, symSize: 0x74 }
  - { offset: 0xF98E6, size: 0x8, addend: 0x0, symName: __Z15_BitScanForwardPmm, symObjAddr: 0x2EC, symBinAddr: 0x13D00, symSize: 0x30 }
  - { offset: 0xF9933, size: 0x8, addend: 0x0, symName: __Z11CreateFile2PKwjjjPv, symObjAddr: 0x31C, symBinAddr: 0x13D30, symSize: 0x8 }
  - { offset: 0xF99C3, size: 0x8, addend: 0x0, symName: __Z11CreateFileWPKwjjPvjjS1_, symObjAddr: 0x324, symBinAddr: 0x13D38, symSize: 0x148 }
  - { offset: 0xF9DB3, size: 0x8, addend: 0x0, symName: __Z13GetFileSizeExPvP14_LARGE_INTEGER, symObjAddr: 0x46C, symBinAddr: 0x13E80, symSize: 0x40 }
  - { offset: 0xFA009, size: 0x8, addend: 0x0, symName: __Z8ReadFilePvS_jPjS_, symObjAddr: 0x4AC, symBinAddr: 0x13EC0, symSize: 0x34 }
  - { offset: 0xFA0ED, size: 0x8, addend: 0x0, symName: __Z9WriteFilePvPKvjPjS_, symObjAddr: 0x4E0, symBinAddr: 0x13EF4, symSize: 0x34 }
  - { offset: 0xFA1BB, size: 0x8, addend: 0x0, symName: __Z11CloseHandlePv, symObjAddr: 0x514, symBinAddr: 0x13F28, symSize: 0x1C }
  - { offset: 0xFA2E9, size: 0x8, addend: 0x0, symName: __Z10HeapCreatejmm, symObjAddr: 0x530, symBinAddr: 0x13F44, symSize: 0x38 }
  - { offset: 0xFA563, size: 0x8, addend: 0x0, symName: __Z11HeapDestroyPv, symObjAddr: 0x568, symBinAddr: 0x13F7C, symSize: 0x90 }
  - { offset: 0xFA86F, size: 0x8, addend: 0x0, symName: __ZN10SimpleHeapD1Ev, symObjAddr: 0x5F8, symBinAddr: 0x1400C, symSize: 0x28 }
  - { offset: 0xFADC6, size: 0x8, addend: 0x0, symName: __Z9HeapAllocPvjm, symObjAddr: 0x620, symBinAddr: 0x14034, symSize: 0x118 }
  - { offset: 0xFB337, size: 0x8, addend: 0x0, symName: __Z11HeapReAllocPvjS_m, symObjAddr: 0x738, symBinAddr: 0x1414C, symSize: 0x2A0 }
  - { offset: 0xFBC32, size: 0x8, addend: 0x0, symName: __Z8HeapFreePvjS_, symObjAddr: 0x9D8, symBinAddr: 0x143EC, symSize: 0x17C }
  - { offset: 0xFC249, size: 0x8, addend: 0x0, symName: __Z8HeapSizePvjPKv, symObjAddr: 0xB54, symBinAddr: 0x14568, symSize: 0xC4 }
  - { offset: 0xFC578, size: 0x8, addend: 0x0, symName: __Z14GetProcessHeapv, symObjAddr: 0xC18, symBinAddr: 0x1462C, symSize: 0xC }
  - { offset: 0xFC5DB, size: 0x8, addend: 0x0, symName: __GLOBAL__sub_I_WinFunctions.cpp, symObjAddr: 0x1210, symBinAddr: 0x14A00, symSize: 0x2C }
  - { offset: 0xFC5F3, size: 0x8, addend: 0x0, symName: __GLOBAL__sub_I_WinFunctions.cpp, symObjAddr: 0x1210, symBinAddr: 0x14A00, symSize: 0x2C }
  - { offset: 0xFE4BC, size: 0x8, addend: 0x0, symName: __ZN4llvm5APInt12initSlowCaseEjyb, symObjAddr: 0x0, symBinAddr: 0x14A2C, symSize: 0x8C }
  - { offset: 0x10359C, size: 0x8, addend: 0x0, symName: __ZN4llvm7hashing6detail23hash_combine_range_implIyEENSt3__19enable_ifIXsr16is_hashable_dataIT_EE5valueENS_9hash_codeEE4typeEPS5_S9_, symObjAddr: 0x10298, symBinAddr: 0x24A50, symSize: 0x340 }
  - { offset: 0x10409F, size: 0x8, addend: 0x0, symName: __ZN4llvm7hashing6detail10hash_shortEPKcmy, symObjAddr: 0x10034, symBinAddr: 0x247EC, symSize: 0x264 }
  - { offset: 0x1047EE, size: 0x8, addend: 0x0, symName: __ZN4llvm10hash_valueERKNS_5APIntE, symObjAddr: 0x2CA4, symBinAddr: 0x174E4, symSize: 0x88 }
  - { offset: 0x104822, size: 0x8, addend: 0x0, symName: __ZN4llvm10hash_valueERKNS_5APIntE, symObjAddr: 0x2CA4, symBinAddr: 0x174E4, symSize: 0x88 }
  - { offset: 0x104A9F, size: 0x8, addend: 0x0, symName: __ZN4llvm8APIntOps21GreatestCommonDivisorERKNS_5APIntES3_, symObjAddr: 0x3750, symBinAddr: 0x17F90, symSize: 0x228 }
  - { offset: 0x104FE9, size: 0x8, addend: 0x0, symName: __ZN4llvm8APIntOps18RoundDoubleToAPIntEdj, symObjAddr: 0x39D8, symBinAddr: 0x18218, symSize: 0x378 }
  - { offset: 0x10AC7F, size: 0x8, addend: 0x0, symName: __ZNK4llvm5APInt4sqrtEv, symObjAddr: 0x5CBC, symBinAddr: 0x1A4FC, symSize: 0xE38 }
  - { offset: 0x10ACA7, size: 0x8, addend: 0x0, symName: __ZZNK4llvm5APInt4sqrtEvE7results, symObjAddr: 0x10C40, symBinAddr: 0x1DF750, symSize: 0x0 }
  - { offset: 0x10D041, size: 0x8, addend: 0x0, symName: __ZNK4llvm5APInt8toStringERNS_15SmallVectorImplIcEEjbb, symObjAddr: 0xE024, symBinAddr: 0x22864, symSize: 0xB50 }
  - { offset: 0x10EA53, size: 0x8, addend: 0x0, symName: __ZN4llvm5APInt12initSlowCaseEjyb, symObjAddr: 0x0, symBinAddr: 0x14A2C, symSize: 0x8C }
  - { offset: 0x10EB37, size: 0x8, addend: 0x0, symName: __ZN4llvm5APInt12initSlowCaseERKS0_, symObjAddr: 0x8C, symBinAddr: 0x14AB8, symSize: 0x48 }
  - { offset: 0x10EBFC, size: 0x8, addend: 0x0, symName: __ZN4llvm5APInt13initFromArrayENS_8ArrayRefIyEE, symObjAddr: 0xD4, symBinAddr: 0x14B00, symSize: 0xD0 }
  - { offset: 0x10ED1C, size: 0x8, addend: 0x0, symName: __ZN4llvm5APIntC2EjNS_8ArrayRefIyEE, symObjAddr: 0x1A4, symBinAddr: 0x14BD0, symSize: 0xE0 }
  - { offset: 0x10EE57, size: 0x8, addend: 0x0, symName: __ZN4llvm5APIntC2EjjPKy, symObjAddr: 0x364, symBinAddr: 0x14CB0, symSize: 0xE0 }
  - { offset: 0x10EFAB, size: 0x8, addend: 0x0, symName: __ZN4llvm5APIntC2EjNS_9StringRefEh, symObjAddr: 0x524, symBinAddr: 0x14D90, symSize: 0x2C }
  - { offset: 0x10F017, size: 0x8, addend: 0x0, symName: __ZN4llvm5APInt10fromStringEjNS_9StringRefEh, symObjAddr: 0x550, symBinAddr: 0x14DBC, symSize: 0x718 }
  - { offset: 0x10FC68, size: 0x8, addend: 0x0, symName: __ZN4llvm5APIntmLERKS0_, symObjAddr: 0x13BC, symBinAddr: 0x15BFC, symSize: 0x3D4 }
  - { offset: 0x10FD13, size: 0x8, addend: 0x0, symName: __ZN4llvm5APIntmLERKS0_, symObjAddr: 0x13BC, symBinAddr: 0x15BFC, symSize: 0x3D4 }
  - { offset: 0x1102AC, size: 0x8, addend: 0x0, symName: __ZNK4llvm5APInt11shlSlowCaseEj, symObjAddr: 0x5504, symBinAddr: 0x19D44, symSize: 0x3B8 }
  - { offset: 0x110706, size: 0x8, addend: 0x0, symName: __ZN4llvm5APInt14AssignSlowCaseERKS0_, symObjAddr: 0xC94, symBinAddr: 0x154D4, symSize: 0x168 }
  - { offset: 0x110940, size: 0x8, addend: 0x0, symName: __ZN4llvm5APIntaSEy, symObjAddr: 0xDFC, symBinAddr: 0x1563C, symSize: 0xB0 }
  - { offset: 0x110A2A, size: 0x8, addend: 0x0, symName: __ZNK4llvm5APInt7ProfileERNS_16FoldingSetNodeIDE, symObjAddr: 0xEAC, symBinAddr: 0x156EC, symSize: 0x84 }
  - { offset: 0x110B2F, size: 0x8, addend: 0x0, symName: __ZN4llvm5APIntppEv, symObjAddr: 0xF30, symBinAddr: 0x15770, symSize: 0x90 }
  - { offset: 0x110B53, size: 0x8, addend: 0x0, symName: __ZN4llvm5APIntppEv, symObjAddr: 0xF30, symBinAddr: 0x15770, symSize: 0x90 }
  - { offset: 0x110C10, size: 0x8, addend: 0x0, symName: __ZN4llvm5APIntmmEv, symObjAddr: 0xFC0, symBinAddr: 0x15800, symSize: 0x90 }
  - { offset: 0x110C34, size: 0x8, addend: 0x0, symName: __ZN4llvm5APIntmmEv, symObjAddr: 0xFC0, symBinAddr: 0x15800, symSize: 0x90 }
  - { offset: 0x110D0E, size: 0x8, addend: 0x0, symName: __ZN4llvm5APIntpLERKS0_, symObjAddr: 0x1050, symBinAddr: 0x15890, symSize: 0x2AC }
  - { offset: 0x110D3C, size: 0x8, addend: 0x0, symName: __ZN4llvm5APIntpLERKS0_, symObjAddr: 0x1050, symBinAddr: 0x15890, symSize: 0x2AC }
  - { offset: 0x110EF9, size: 0x8, addend: 0x0, symName: __ZN4llvm5APIntmIERKS0_, symObjAddr: 0x12FC, symBinAddr: 0x15B3C, symSize: 0xC0 }
  - { offset: 0x110F25, size: 0x8, addend: 0x0, symName: __ZN4llvm5APIntmIERKS0_, symObjAddr: 0x12FC, symBinAddr: 0x15B3C, symSize: 0xC0 }
  - { offset: 0x111211, size: 0x8, addend: 0x0, symName: __ZN4llvm5APIntaNERKS0_, symObjAddr: 0x1790, symBinAddr: 0x15FD0, symSize: 0x58 }
  - { offset: 0x11125C, size: 0x8, addend: 0x0, symName: __ZN4llvm5APIntaNERKS0_, symObjAddr: 0x1790, symBinAddr: 0x15FD0, symSize: 0x58 }
  - { offset: 0x1112CD, size: 0x8, addend: 0x0, symName: __ZN4llvm5APIntoRERKS0_, symObjAddr: 0x17E8, symBinAddr: 0x16028, symSize: 0x58 }
  - { offset: 0x111318, size: 0x8, addend: 0x0, symName: __ZN4llvm5APIntoRERKS0_, symObjAddr: 0x17E8, symBinAddr: 0x16028, symSize: 0x58 }
  - { offset: 0x111389, size: 0x8, addend: 0x0, symName: __ZN4llvm5APInteOERKS0_, symObjAddr: 0x1840, symBinAddr: 0x16080, symSize: 0x9C }
  - { offset: 0x1113D4, size: 0x8, addend: 0x0, symName: __ZN4llvm5APInteOERKS0_, symObjAddr: 0x1840, symBinAddr: 0x16080, symSize: 0x9C }
  - { offset: 0x11150B, size: 0x8, addend: 0x0, symName: __ZNK4llvm5APInt11AndSlowCaseERKS0_, symObjAddr: 0x18DC, symBinAddr: 0x1611C, symSize: 0x100 }
  - { offset: 0x11163C, size: 0x8, addend: 0x0, symName: __ZNK4llvm5APInt10OrSlowCaseERKS0_, symObjAddr: 0x19DC, symBinAddr: 0x1621C, symSize: 0x100 }
  - { offset: 0x11174E, size: 0x8, addend: 0x0, symName: __ZNK4llvm5APInt11XorSlowCaseERKS0_, symObjAddr: 0x1ADC, symBinAddr: 0x1631C, symSize: 0x144 }
  - { offset: 0x11193E, size: 0x8, addend: 0x0, symName: __ZNK4llvm5APIntmlERKS0_, symObjAddr: 0x1C20, symBinAddr: 0x16460, symSize: 0xC0 }
  - { offset: 0x111B9D, size: 0x8, addend: 0x0, symName: __ZN4llvm5APIntC1Ejyb, symObjAddr: 0x1CE0, symBinAddr: 0x16520, symSize: 0xF0 }
  - { offset: 0x111D05, size: 0x8, addend: 0x0, symName: __ZNK4llvm5APIntplERKS0_, symObjAddr: 0x1DD0, symBinAddr: 0x16610, symSize: 0x334 }
  - { offset: 0x112027, size: 0x8, addend: 0x0, symName: __ZNK4llvm5APIntmiERKS0_, symObjAddr: 0x2104, symBinAddr: 0x16944, symSize: 0x140 }
  - { offset: 0x1122BC, size: 0x8, addend: 0x0, symName: __ZNK4llvm5APInt13EqualSlowCaseERKS0_, symObjAddr: 0x2244, symBinAddr: 0x16A84, symSize: 0x198 }
  - { offset: 0x11231A, size: 0x8, addend: 0x0, symName: __ZNK4llvm5APInt13EqualSlowCaseERKS0_, symObjAddr: 0x2244, symBinAddr: 0x16A84, symSize: 0x198 }
  - { offset: 0x1126A4, size: 0x8, addend: 0x0, symName: __ZNK4llvm5APInt13EqualSlowCaseEy, symObjAddr: 0x23DC, symBinAddr: 0x16C1C, symSize: 0xC0 }
  - { offset: 0x1126DC, size: 0x8, addend: 0x0, symName: __ZNK4llvm5APInt13EqualSlowCaseEy, symObjAddr: 0x23DC, symBinAddr: 0x16C1C, symSize: 0xC0 }
  - { offset: 0x112880, size: 0x8, addend: 0x0, symName: __ZNK4llvm5APInt3ultERKS0_, symObjAddr: 0x249C, symBinAddr: 0x16CDC, symSize: 0x1BC }
  - { offset: 0x1128EA, size: 0x8, addend: 0x0, symName: __ZNK4llvm5APInt3ultERKS0_, symObjAddr: 0x249C, symBinAddr: 0x16CDC, symSize: 0x1BC }
  - { offset: 0x112D0F, size: 0x8, addend: 0x0, symName: __ZNK4llvm5APInt3sltERKS0_, symObjAddr: 0x2658, symBinAddr: 0x16E98, symSize: 0x3A0 }
  - { offset: 0x113348, size: 0x8, addend: 0x0, symName: __ZN4llvm5APInt6setBitEj, symObjAddr: 0x29F8, symBinAddr: 0x17238, symSize: 0x3C }
  - { offset: 0x113374, size: 0x8, addend: 0x0, symName: __ZN4llvm5APInt6setBitEj, symObjAddr: 0x29F8, symBinAddr: 0x17238, symSize: 0x3C }
  - { offset: 0x1133C3, size: 0x8, addend: 0x0, symName: __ZN4llvm5APInt8clearBitEj, symObjAddr: 0x2A34, symBinAddr: 0x17274, symSize: 0x40 }
  - { offset: 0x1133EF, size: 0x8, addend: 0x0, symName: __ZN4llvm5APInt8clearBitEj, symObjAddr: 0x2A34, symBinAddr: 0x17274, symSize: 0x40 }
  - { offset: 0x113488, size: 0x8, addend: 0x0, symName: __ZN4llvm5APInt7flipBitEj, symObjAddr: 0x2A74, symBinAddr: 0x172B4, symSize: 0x6C }
  - { offset: 0x1134E4, size: 0x8, addend: 0x0, symName: __ZN4llvm5APInt7flipBitEj, symObjAddr: 0x2A74, symBinAddr: 0x172B4, symSize: 0x6C }
  - { offset: 0x1135BE, size: 0x8, addend: 0x0, symName: __ZN4llvm5APInt13getBitsNeededENS_9StringRefEh, symObjAddr: 0x2AE0, symBinAddr: 0x17320, symSize: 0x1C4 }
  - { offset: 0x11398F, size: 0x8, addend: 0x0, symName: __ZNK4llvm5APInt7isSplatEj, symObjAddr: 0x2D2C, symBinAddr: 0x1756C, symSize: 0x7C }
  - { offset: 0x113ACF, size: 0x8, addend: 0x0, symName: __ZNK4llvm5APInt4rotlEj, symObjAddr: 0x2DA8, symBinAddr: 0x175E8, symSize: 0x254 }
  - { offset: 0x1140EE, size: 0x8, addend: 0x0, symName: __ZNK4llvm5APInt4lshrEj, symObjAddr: 0x4FAC, symBinAddr: 0x197EC, symSize: 0x44C }
  - { offset: 0x1147D6, size: 0x8, addend: 0x0, symName: __ZNK4llvm5APInt9getHiBitsEj, symObjAddr: 0x2FFC, symBinAddr: 0x1783C, symSize: 0xC }
  - { offset: 0x114855, size: 0x8, addend: 0x0, symName: __ZNK4llvm5APInt9getLoBitsEj, symObjAddr: 0x3008, symBinAddr: 0x17848, symSize: 0xF0 }
  - { offset: 0x114B55, size: 0x8, addend: 0x0, symName: __ZNK4llvm5APInt25countLeadingZerosSlowCaseEv, symObjAddr: 0x30F8, symBinAddr: 0x17938, symSize: 0x90 }
  - { offset: 0x114C75, size: 0x8, addend: 0x0, symName: __ZNK4llvm5APInt16countLeadingOnesEv, symObjAddr: 0x3188, symBinAddr: 0x179C8, symSize: 0x9C }
  - { offset: 0x114CBF, size: 0x8, addend: 0x0, symName: __ZNK4llvm5APInt16countLeadingOnesEv, symObjAddr: 0x3188, symBinAddr: 0x179C8, symSize: 0x9C }
  - { offset: 0x114E85, size: 0x8, addend: 0x0, symName: __ZNK4llvm5APInt18countTrailingZerosEv, symObjAddr: 0x3224, symBinAddr: 0x17A64, symSize: 0x68 }
  - { offset: 0x114ECF, size: 0x8, addend: 0x0, symName: __ZNK4llvm5APInt18countTrailingZerosEv, symObjAddr: 0x3224, symBinAddr: 0x17A64, symSize: 0x68 }
  - { offset: 0x114F89, size: 0x8, addend: 0x0, symName: __ZNK4llvm5APInt25countTrailingOnesSlowCaseEv, symObjAddr: 0x328C, symBinAddr: 0x17ACC, symSize: 0x64 }
  - { offset: 0x115060, size: 0x8, addend: 0x0, symName: __ZNK4llvm5APInt23countPopulationSlowCaseEv, symObjAddr: 0x32F0, symBinAddr: 0x17B30, symSize: 0x1CC }
  - { offset: 0x115126, size: 0x8, addend: 0x0, symName: __ZNK4llvm5APInt8byteSwapEv, symObjAddr: 0x34BC, symBinAddr: 0x17CFC, symSize: 0x294 }
  - { offset: 0x115648, size: 0x8, addend: 0x0, symName: __ZNK4llvm5APInt4uremERKS0_, symObjAddr: 0x91C4, symBinAddr: 0x1DA04, symSize: 0x3B4 }
  - { offset: 0x115FDF, size: 0x8, addend: 0x0, symName: __ZN4llvm5APIntaSEOS0_, symObjAddr: 0x3978, symBinAddr: 0x181B8, symSize: 0x60 }
  - { offset: 0x116019, size: 0x8, addend: 0x0, symName: __ZN4llvm5APIntaSEOS0_, symObjAddr: 0x3978, symBinAddr: 0x181B8, symSize: 0x60 }
  - { offset: 0x116035, size: 0x8, addend: 0x0, symName: __ZNK4llvm5APIntngEv, symObjAddr: 0x3D50, symBinAddr: 0x18590, symSize: 0xF8 }
  - { offset: 0x11623F, size: 0x8, addend: 0x0, symName: __ZNK4llvm5APInt13roundToDoubleEb, symObjAddr: 0x3E48, symBinAddr: 0x18688, symSize: 0x298 }
  - { offset: 0x116827, size: 0x8, addend: 0x0, symName: __ZNK4llvm5APInt5truncEj, symObjAddr: 0x40E0, symBinAddr: 0x18920, symSize: 0x120 }
  - { offset: 0x1169FE, size: 0x8, addend: 0x0, symName: __ZNK4llvm5APInt4sextEj, symObjAddr: 0x4200, symBinAddr: 0x18A40, symSize: 0x158 }
  - { offset: 0x116C1D, size: 0x8, addend: 0x0, symName: __ZNK4llvm5APInt4zextEj, symObjAddr: 0x4358, symBinAddr: 0x18B98, symSize: 0xE0 }
  - { offset: 0x116E3A, size: 0x8, addend: 0x0, symName: __ZNK4llvm5APInt11zextOrTruncEj, symObjAddr: 0x4438, symBinAddr: 0x18C78, symSize: 0x214 }
  - { offset: 0x117134, size: 0x8, addend: 0x0, symName: __ZNK4llvm5APInt11sextOrTruncEj, symObjAddr: 0x464C, symBinAddr: 0x18E8C, symSize: 0x188 }
  - { offset: 0x1173F0, size: 0x8, addend: 0x0, symName: __ZNK4llvm5APInt10zextOrSelfEj, symObjAddr: 0x47D4, symBinAddr: 0x19014, symSize: 0x138 }
  - { offset: 0x117688, size: 0x8, addend: 0x0, symName: __ZNK4llvm5APInt10sextOrSelfEj, symObjAddr: 0x490C, symBinAddr: 0x1914C, symSize: 0x6C }
  - { offset: 0x1177D0, size: 0x8, addend: 0x0, symName: __ZNK4llvm5APInt4ashrERKS0_, symObjAddr: 0x4978, symBinAddr: 0x191B8, symSize: 0xCC }
  - { offset: 0x1179A9, size: 0x8, addend: 0x0, symName: __ZNK4llvm5APInt4ashrEj, symObjAddr: 0x4A44, symBinAddr: 0x19284, symSize: 0x49C }
  - { offset: 0x1180D7, size: 0x8, addend: 0x0, symName: __ZNK4llvm5APInt4lshrERKS0_, symObjAddr: 0x4EE0, symBinAddr: 0x19720, symSize: 0xCC }
  - { offset: 0x1182B0, size: 0x8, addend: 0x0, symName: __ZNK4llvm5APInt3shlERKS0_, symObjAddr: 0x53F8, symBinAddr: 0x19C38, symSize: 0x10C }
  - { offset: 0x1185D2, size: 0x8, addend: 0x0, symName: __ZNK4llvm5APInt4rotlERKS0_, symObjAddr: 0x58BC, symBinAddr: 0x1A0FC, symSize: 0xCC }
  - { offset: 0x1187AB, size: 0x8, addend: 0x0, symName: __ZNK4llvm5APInt4rotrERKS0_, symObjAddr: 0x5988, symBinAddr: 0x1A1C8, symSize: 0xCC }
  - { offset: 0x118984, size: 0x8, addend: 0x0, symName: __ZNK4llvm5APInt4rotrEj, symObjAddr: 0x5A54, symBinAddr: 0x1A294, symSize: 0x268 }
  - { offset: 0x11916A, size: 0x8, addend: 0x0, symName: __ZNK4llvm5APInt4udivERKS0_, symObjAddr: 0x6AF4, symBinAddr: 0x1B334, symSize: 0x36C }
  - { offset: 0x1199B4, size: 0x8, addend: 0x0, symName: __ZNK4llvm5APIntplEy, symObjAddr: 0x6E60, symBinAddr: 0x1B6A0, symSize: 0x128 }
  - { offset: 0x119B9A, size: 0x8, addend: 0x0, symName: __ZN4llvm5APInt6divideES0_jRKS0_jPS0_S3_, symObjAddr: 0xBA64, symBinAddr: 0x202A4, symSize: 0xB50 }
  - { offset: 0x11A2C9, size: 0x8, addend: 0x0, symName: __ZNK4llvm5APInt21multiplicativeInverseERKS0_, symObjAddr: 0x6F88, symBinAddr: 0x1B7C8, symSize: 0x6D0 }
  - { offset: 0x11B598, size: 0x8, addend: 0x0, symName: __ZN4llvm5APInt7udivremERKS0_S2_RS0_S3_, symObjAddr: 0x7658, symBinAddr: 0x1BE98, symSize: 0x5BC }
  - { offset: 0x11C31F, size: 0x8, addend: 0x0, symName: __ZNK4llvm5APInt5magicEv, symObjAddr: 0x7C14, symBinAddr: 0x1C454, symSize: 0x1488 }
  - { offset: 0x11F8A3, size: 0x8, addend: 0x0, symName: __ZNK4llvm5APIntmiEy, symObjAddr: 0x909C, symBinAddr: 0x1D8DC, symSize: 0x128 }
  - { offset: 0x11FB43, size: 0x8, addend: 0x0, symName: __ZNK4llvm5APInt6magicuEj, symObjAddr: 0x9578, symBinAddr: 0x1DDB8, symSize: 0x24EC }
  - { offset: 0x12498A, size: 0x8, addend: 0x0, symName: __ZNK4llvm5APInt4sdivERKS0_, symObjAddr: 0xC5B4, symBinAddr: 0x20DF4, symSize: 0x210 }
  - { offset: 0x124DBF, size: 0x8, addend: 0x0, symName: __ZNK4llvm5APInt4sremERKS0_, symObjAddr: 0xC7C4, symBinAddr: 0x21004, symSize: 0x238 }
  - { offset: 0x12540F, size: 0x8, addend: 0x0, symName: __ZN4llvm5APInt7sdivremERKS0_S2_RS0_S3_, symObjAddr: 0xC9FC, symBinAddr: 0x2123C, symSize: 0x2B4 }
  - { offset: 0x125A1F, size: 0x8, addend: 0x0, symName: __ZNK4llvm5APInt7sadd_ovERKS0_Rb, symObjAddr: 0xCCB0, symBinAddr: 0x214F0, symSize: 0x100 }
  - { offset: 0x125C6E, size: 0x8, addend: 0x0, symName: __ZNK4llvm5APInt7uadd_ovERKS0_Rb, symObjAddr: 0xCDB0, symBinAddr: 0x215F0, symSize: 0x40 }
  - { offset: 0x125D0F, size: 0x8, addend: 0x0, symName: __ZNK4llvm5APInt7ssub_ovERKS0_Rb, symObjAddr: 0xCDF0, symBinAddr: 0x21630, symSize: 0x100 }
  - { offset: 0x125F5E, size: 0x8, addend: 0x0, symName: __ZNK4llvm5APInt7usub_ovERKS0_Rb, symObjAddr: 0xCEF0, symBinAddr: 0x21730, symSize: 0x7C }
  - { offset: 0x126125, size: 0x8, addend: 0x0, symName: __ZNK4llvm5APInt7sdiv_ovERKS0_Rb, symObjAddr: 0xCF6C, symBinAddr: 0x217AC, symSize: 0x3F8 }
  - { offset: 0x126348, size: 0x8, addend: 0x0, symName: __ZNK4llvm5APInt7smul_ovERKS0_Rb, symObjAddr: 0xD364, symBinAddr: 0x21BA4, symSize: 0x318 }
  - { offset: 0x126C93, size: 0x8, addend: 0x0, symName: __ZNK4llvm5APInt7umul_ovERKS0_Rb, symObjAddr: 0xD67C, symBinAddr: 0x21EBC, symSize: 0x318 }
  - { offset: 0x12768D, size: 0x8, addend: 0x0, symName: __ZNK4llvm5APInt7sshl_ovERKS0_Rb, symObjAddr: 0xD994, symBinAddr: 0x221D4, symSize: 0x3CC }
  - { offset: 0x128095, size: 0x8, addend: 0x0, symName: __ZNK4llvm5APInt7ushl_ovERKS0_Rb, symObjAddr: 0xDD60, symBinAddr: 0x225A0, symSize: 0x2C4 }
  - { offset: 0x128D2F, size: 0x8, addend: 0x0, symName: __ZNK4llvm5APInt8toStringEjb, symObjAddr: 0xEB74, symBinAddr: 0x233B4, symSize: 0x11C }
  - { offset: 0x1293BC, size: 0x8, addend: 0x0, symName: __ZNK4llvm5APInt4dumpEv, symObjAddr: 0xEC90, symBinAddr: 0x234D0, symSize: 0x1F4 }
  - { offset: 0x129BD4, size: 0x8, addend: 0x0, symName: __ZNK4llvm5APInt5printERNS_11raw_ostreamEb, symObjAddr: 0xEE84, symBinAddr: 0x236C4, symSize: 0x90 }
  - { offset: 0x129F0F, size: 0x8, addend: 0x0, symName: __ZN4llvm5APInt5tcSetEPyyj, symObjAddr: 0xEF14, symBinAddr: 0x23754, symSize: 0x1C }
  - { offset: 0x129F4A, size: 0x8, addend: 0x0, symName: __ZN4llvm5APInt8tcAssignEPyPKyj, symObjAddr: 0xEF30, symBinAddr: 0x23770, symSize: 0x74 }
  - { offset: 0x129F81, size: 0x8, addend: 0x0, symName: __ZN4llvm5APInt8tcIsZeroEPKyj, symObjAddr: 0xEFA4, symBinAddr: 0x237E4, symSize: 0x3C }
  - { offset: 0x129FCA, size: 0x8, addend: 0x0, symName: __ZN4llvm5APInt12tcExtractBitEPKyj, symObjAddr: 0xEFE0, symBinAddr: 0x23820, symSize: 0x14 }
  - { offset: 0x12A002, size: 0x8, addend: 0x0, symName: __ZN4llvm5APInt8tcSetBitEPyj, symObjAddr: 0xEFF4, symBinAddr: 0x23834, symSize: 0x1C }
  - { offset: 0x12A038, size: 0x8, addend: 0x0, symName: __ZN4llvm5APInt10tcClearBitEPyj, symObjAddr: 0xF010, symBinAddr: 0x23850, symSize: 0x1C }
  - { offset: 0x12A06E, size: 0x8, addend: 0x0, symName: __ZN4llvm5APInt5tcLSBEPKyj, symObjAddr: 0xF02C, symBinAddr: 0x2386C, symSize: 0x38 }
  - { offset: 0x12A128, size: 0x8, addend: 0x0, symName: __ZN4llvm5APInt5tcMSBEPKyj, symObjAddr: 0xF064, symBinAddr: 0x238A4, symSize: 0x3C }
  - { offset: 0x12A23E, size: 0x8, addend: 0x0, symName: __ZN4llvm5APInt9tcExtractEPyjPKyjj, symObjAddr: 0xF0A0, symBinAddr: 0x238E0, symSize: 0x178 }
  - { offset: 0x12A3C1, size: 0x8, addend: 0x0, symName: __ZN4llvm5APInt12tcShiftRightEPyjj, symObjAddr: 0xF218, symBinAddr: 0x23A58, symSize: 0x6C }
  - { offset: 0x12A434, size: 0x8, addend: 0x0, symName: __ZN4llvm5APInt5tcAddEPyPKyyj, symObjAddr: 0xF284, symBinAddr: 0x23AC4, symSize: 0x48 }
  - { offset: 0x12A4BF, size: 0x8, addend: 0x0, symName: __ZN4llvm5APInt10tcSubtractEPyPKyyj, symObjAddr: 0xF2CC, symBinAddr: 0x23B0C, symSize: 0x48 }
  - { offset: 0x12A57F, size: 0x8, addend: 0x0, symName: __ZN4llvm5APInt8tcNegateEPyj, symObjAddr: 0xF314, symBinAddr: 0x23B54, symSize: 0x94 }
  - { offset: 0x12A5BA, size: 0x8, addend: 0x0, symName: __ZN4llvm5APInt8tcNegateEPyj, symObjAddr: 0xF314, symBinAddr: 0x23B54, symSize: 0x94 }
  - { offset: 0x12A5FE, size: 0x8, addend: 0x0, symName: __ZN4llvm5APInt12tcComplementEPyj, symObjAddr: 0xF3A8, symBinAddr: 0x23BE8, symSize: 0x74 }
  - { offset: 0x12A62D, size: 0x8, addend: 0x0, symName: __ZN4llvm5APInt11tcIncrementEPyj, symObjAddr: 0xF41C, symBinAddr: 0x23C5C, symSize: 0x40 }
  - { offset: 0x12A65E, size: 0x8, addend: 0x0, symName: __ZN4llvm5APInt14tcMultiplyPartEPyPKyyyjjb, symObjAddr: 0xF45C, symBinAddr: 0x23C9C, symSize: 0xF4 }
  - { offset: 0x12A833, size: 0x8, addend: 0x0, symName: __ZN4llvm5APInt10tcMultiplyEPyPKyS3_j, symObjAddr: 0xF550, symBinAddr: 0x23D90, symSize: 0x148 }
  - { offset: 0x12A9D0, size: 0x8, addend: 0x0, symName: __ZN4llvm5APInt14tcFullMultiplyEPyPKyS3_jj, symObjAddr: 0xF698, symBinAddr: 0x23ED8, symSize: 0x168 }
  - { offset: 0x12AC80, size: 0x8, addend: 0x0, symName: __ZN4llvm5APInt8tcDivideEPyPKyS1_S1_j, symObjAddr: 0xF800, symBinAddr: 0x24040, symSize: 0x350 }
  - { offset: 0x12AFD8, size: 0x8, addend: 0x0, symName: __ZN4llvm5APInt11tcShiftLeftEPyjj, symObjAddr: 0xFB50, symBinAddr: 0x24390, symSize: 0x84 }
  - { offset: 0x12B043, size: 0x8, addend: 0x0, symName: __ZN4llvm5APInt9tcCompareEPKyS2_j, symObjAddr: 0xFBD4, symBinAddr: 0x24414, symSize: 0x38 }
  - { offset: 0x12B074, size: 0x8, addend: 0x0, symName: __ZN4llvm5APInt5tcAndEPyPKyj, symObjAddr: 0xFC0C, symBinAddr: 0x2444C, symSize: 0xA4 }
  - { offset: 0x12B0CA, size: 0x8, addend: 0x0, symName: __ZN4llvm5APInt4tcOrEPyPKyj, symObjAddr: 0xFCB0, symBinAddr: 0x244F0, symSize: 0xA4 }
  - { offset: 0x12B120, size: 0x8, addend: 0x0, symName: __ZN4llvm5APInt5tcXorEPyPKyj, symObjAddr: 0xFD54, symBinAddr: 0x24594, symSize: 0xA4 }
  - { offset: 0x12B176, size: 0x8, addend: 0x0, symName: __ZN4llvm5APInt11tcDecrementEPyj, symObjAddr: 0xFDF8, symBinAddr: 0x24638, symSize: 0x3C }
  - { offset: 0x12B1AD, size: 0x8, addend: 0x0, symName: __ZN4llvm5APInt11tcDecrementEPyj, symObjAddr: 0xFDF8, symBinAddr: 0x24638, symSize: 0x3C }
  - { offset: 0x12B1CE, size: 0x8, addend: 0x0, symName: __ZN4llvm5APInt25tcSetLeastSignificantBitsEPyjj, symObjAddr: 0xFE34, symBinAddr: 0x24674, symSize: 0x178 }
  - { offset: 0x12D268, size: 0x8, addend: 0x0, symName: __ZN4llvm9DebugFlagE, symObjAddr: 0x26D40, symBinAddr: 0x2356D0, symSize: 0x0 }
  - { offset: 0x12D281, size: 0x8, addend: 0x0, symName: __ZN4llvm20EnableDebugBufferingE, symObjAddr: 0x26D41, symBinAddr: 0x2356D1, symSize: 0x0 }
  - { offset: 0x12D29B, size: 0x8, addend: 0x0, symName: __ZN4llvmL16CurrentDebugTypeE, symObjAddr: 0x26D48, symBinAddr: 0x234AD8, symSize: 0x0 }
  - { offset: 0x12D410, size: 0x8, addend: 0x0, symName: __ZN4llvm18isCurrentDebugTypeEPKc, symObjAddr: 0x0, symBinAddr: 0x24D90, symSize: 0x110 }
  - { offset: 0x12D7CA, size: 0x8, addend: 0x0, symName: __ZN4llvm19setCurrentDebugTypeEPKc, symObjAddr: 0x110, symBinAddr: 0x24EA0, symSize: 0x16C }
  - { offset: 0x12DFC4, size: 0x8, addend: 0x0, symName: __ZN4llvm4dbgsEv, symObjAddr: 0x3A0, symBinAddr: 0x2500C, symSize: 0x4 }
  - { offset: 0x12DFE6, size: 0x8, addend: 0x0, symName: __ZN4llvm4dbgsEv, symObjAddr: 0x3A0, symBinAddr: 0x2500C, symSize: 0x4 }
  - { offset: 0x1331FE, size: 0x8, addend: 0x0, symName: __ZN4llvm4dbgsEv, symObjAddr: 0x3A0, symBinAddr: 0x2500C, symSize: 0x4 }
  - { offset: 0x1335DD, size: 0x8, addend: 0x0, symName: __ZN4llvm14object_creatorINSt3__16vectorINS1_12basic_stringIcNS1_11char_traitsIcEENS1_9allocatorIcEEEENS6_IS8_EEEEE4callEv, symObjAddr: 0x3B4, symBinAddr: 0x25010, symSize: 0x20 }
  - { offset: 0x133685, size: 0x8, addend: 0x0, symName: __ZN4llvm14object_deleterINSt3__16vectorINS1_12basic_stringIcNS1_11char_traitsIcEENS1_9allocatorIcEEEENS6_IS8_EEEEE4callEPv, symObjAddr: 0x3D4, symBinAddr: 0x25030, symSize: 0x78 }
  - { offset: 0x13588F, size: 0x8, addend: 0x0, symName: __ZN4llvm27install_fatal_error_handlerEPFvPvRKNSt3__112basic_stringIcNS1_11char_traitsIcEENS1_9allocatorIcEEEEbES0_, symObjAddr: 0x0, symBinAddr: 0x250A8, symSize: 0x3C }
  - { offset: 0x1358AD, size: 0x8, addend: 0x0, symName: __ZN4llvm24DisableABIBreakingChecksE, symObjAddr: 0x1F544, symBinAddr: 0x2356D4, symSize: 0x0 }
  - { offset: 0x136131, size: 0x8, addend: 0x0, symName: __ZN4llvm27install_fatal_error_handlerEPFvPvRKNSt3__112basic_stringIcNS1_11char_traitsIcEENS1_9allocatorIcEEEEbES0_, symObjAddr: 0x0, symBinAddr: 0x250A8, symSize: 0x3C }
  - { offset: 0x136170, size: 0x8, addend: 0x0, symName: __ZN4llvm26remove_fatal_error_handlerEv, symObjAddr: 0x3C, symBinAddr: 0x250E4, symSize: 0x38 }
  - { offset: 0x13619D, size: 0x8, addend: 0x0, symName: __ZN4llvm18report_fatal_errorEPKcb, symObjAddr: 0x74, symBinAddr: 0x2511C, symSize: 0x30 }
  - { offset: 0x13622F, size: 0x8, addend: 0x0, symName: __ZN4llvm18report_fatal_errorERKNS_5TwineEb, symObjAddr: 0xA4, symBinAddr: 0x2514C, symSize: 0x1D0 }
  - { offset: 0x136242, size: 0x8, addend: 0x0, symName: __ZN4llvm18report_fatal_errorERKNS_5TwineEb, symObjAddr: 0xA4, symBinAddr: 0x2514C, symSize: 0x1D0 }
  - { offset: 0x136997, size: 0x8, addend: 0x0, symName: __ZN4llvm18report_fatal_errorERKNSt3__112basic_stringIcNS0_11char_traitsIcEENS0_9allocatorIcEEEEb, symObjAddr: 0x274, symBinAddr: 0x2531C, symSize: 0x20 }
  - { offset: 0x136A29, size: 0x8, addend: 0x0, symName: __ZN4llvm18report_fatal_errorENS_9StringRefEb, symObjAddr: 0x294, symBinAddr: 0x2533C, symSize: 0x2C }
  - { offset: 0x136A44, size: 0x8, addend: 0x0, symName: __ZN4llvm18report_fatal_errorENS_9StringRefEb, symObjAddr: 0x294, symBinAddr: 0x2533C, symSize: 0x2C }
  - { offset: 0x136AD6, size: 0x8, addend: 0x0, symName: __ZN4llvm11raw_ostreamlsEPKc, symObjAddr: 0x2C0, symBinAddr: 0x25368, symSize: 0x80 }
  - { offset: 0x136AF1, size: 0x8, addend: 0x0, symName: __ZN4llvm25llvm_unreachable_internalEPKcS1_j, symObjAddr: 0x340, symBinAddr: 0x253E8, symSize: 0x28C }
  - { offset: 0x136FE2, size: 0x8, addend: 0x0, symName: __ZN4llvm25llvm_cast_assert_internalEPKc, symObjAddr: 0x61C, symBinAddr: 0x256C4, symSize: 0x1B8 }
  - { offset: 0x1376C2, size: 0x8, addend: 0x0, symName: __ZL12ErrorHandler, symObjAddr: 0xAB8, symBinAddr: 0x234998, symSize: 0x0 }
  - { offset: 0x13A461, size: 0x8, addend: 0x0, symName: __ZL20ErrorHandlerUserData, symObjAddr: 0xAD0, symBinAddr: 0x2349B0, symSize: 0x0 }
  - { offset: 0x13AA34, size: 0x8, addend: 0x0, symName: __ZN4llvm11raw_ostreamlsEPKc, symObjAddr: 0x2C0, symBinAddr: 0x25368, symSize: 0x80 }
  - { offset: 0x13AB1B, size: 0x8, addend: 0x0, symName: __ZN4llvm11raw_ostreamlsENS_9StringRefE, symObjAddr: 0x5CC, symBinAddr: 0x25674, symSize: 0x50 }
  - { offset: 0x13AE27, size: 0x8, addend: 0x0, symName: __ZNSt3__112basic_stringIcNS_11char_traitsIcEENS_9allocatorIcEEE25__init_copy_ctor_externalEPKcm, symObjAddr: 0x908, symBinAddr: 0x258D8, symSize: 0x7C }
  - { offset: 0x13AFFC, size: 0x8, addend: 0x0, symName: _LLVMInstallFatalErrorHandler, symObjAddr: 0x818, symBinAddr: 0x2587C, symSize: 0x44 }
  - { offset: 0x13B0A5, size: 0x8, addend: 0x0, symName: __ZL20bindingsErrorHandlerPvRKNSt3__112basic_stringIcNS0_11char_traitsIcEENS0_9allocatorIcEEEEb, symObjAddr: 0x85C, symBinAddr: 0x258C0, symSize: 0x18 }
  - { offset: 0x13D0A6, size: 0x8, addend: 0x0, symName: __ZNK4llvm19FoldingSetNodeIDRef11ComputeHashEv, symObjAddr: 0x0, symBinAddr: 0x25954, symSize: 0x20 }
  - { offset: 0x13F15A, size: 0x8, addend: 0x0, symName: __ZTVN4llvm14FoldingSetImplE, symObjAddr: 0x1718, symBinAddr: 0x22C840, symSize: 0x0 }
  - { offset: 0x14026E, size: 0x8, addend: 0x0, symName: __ZNK4llvm19FoldingSetNodeIDRef11ComputeHashEv, symObjAddr: 0x0, symBinAddr: 0x25954, symSize: 0x20 }
  - { offset: 0x1402C5, size: 0x8, addend: 0x0, symName: __ZNK4llvm19FoldingSetNodeIDRefeqES0_, symObjAddr: 0x20, symBinAddr: 0x25974, symSize: 0x38 }
  - { offset: 0x14031C, size: 0x8, addend: 0x0, symName: __ZNK4llvm19FoldingSetNodeIDRefltES0_, symObjAddr: 0x58, symBinAddr: 0x259AC, symSize: 0x34 }
  - { offset: 0x1404C1, size: 0x8, addend: 0x0, symName: __ZN4llvm16FoldingSetNodeID10AddPointerEPKv, symObjAddr: 0x8C, symBinAddr: 0x259E0, symSize: 0x64 }
  - { offset: 0x140639, size: 0x8, addend: 0x0, symName: __ZN4llvm16FoldingSetNodeID10AddIntegerEi, symObjAddr: 0xF0, symBinAddr: 0x25A44, symSize: 0x5C }
  - { offset: 0x1407AB, size: 0x8, addend: 0x0, symName: __ZN4llvm16FoldingSetNodeID10AddIntegerEl, symObjAddr: 0x1A8, symBinAddr: 0x25AA0, symSize: 0xA0 }
  - { offset: 0x140A90, size: 0x8, addend: 0x0, symName: __ZN4llvm16FoldingSetNodeID9AddStringENS_9StringRefE, symObjAddr: 0x428, symBinAddr: 0x25B40, symSize: 0x22C }
  - { offset: 0x140F49, size: 0x8, addend: 0x0, symName: __ZN4llvm16FoldingSetNodeID9AddNodeIDERKS0_, symObjAddr: 0x654, symBinAddr: 0x25D6C, symSize: 0x80 }
  - { offset: 0x14115E, size: 0x8, addend: 0x0, symName: __ZNK4llvm16FoldingSetNodeID11ComputeHashEv, symObjAddr: 0x6D4, symBinAddr: 0x25DEC, symSize: 0x1C }
  - { offset: 0x141268, size: 0x8, addend: 0x0, symName: __ZNK4llvm16FoldingSetNodeIDeqERKS0_, symObjAddr: 0x6F0, symBinAddr: 0x25E08, symSize: 0x4C }
  - { offset: 0x1413E1, size: 0x8, addend: 0x0, symName: __ZNK4llvm16FoldingSetNodeIDeqENS_19FoldingSetNodeIDRefE, symObjAddr: 0x73C, symBinAddr: 0x25E54, symSize: 0x40 }
  - { offset: 0x1414F8, size: 0x8, addend: 0x0, symName: __ZNK4llvm16FoldingSetNodeIDltERKS0_, symObjAddr: 0x77C, symBinAddr: 0x25E94, symSize: 0x50 }
  - { offset: 0x141663, size: 0x8, addend: 0x0, symName: __ZNK4llvm16FoldingSetNodeIDltENS_19FoldingSetNodeIDRefE, symObjAddr: 0x7CC, symBinAddr: 0x25EE4, symSize: 0x40 }
  - { offset: 0x1417A3, size: 0x8, addend: 0x0, symName: __ZNK4llvm16FoldingSetNodeID6InternERNS_20BumpPtrAllocatorImplINS_15MallocAllocatorELm4096ELm4096EEE, symObjAddr: 0x80C, symBinAddr: 0x25F24, symSize: 0x120 }
  - { offset: 0x141937, size: 0x8, addend: 0x0, symName: __ZN4llvm20BumpPtrAllocatorImplINS_15MallocAllocatorELm4096ELm4096EE8AllocateEmm, symObjAddr: 0x14F4, symBinAddr: 0x26618, symSize: 0x188 }
  - { offset: 0x141D95, size: 0x8, addend: 0x0, symName: __ZN4llvm14FoldingSetImpl6anchorEv, symObjAddr: 0x92C, symBinAddr: 0x26044, symSize: 0x4 }
  - { offset: 0x141DE2, size: 0x8, addend: 0x0, symName: __ZN4llvm14FoldingSetImplC2Ej, symObjAddr: 0x930, symBinAddr: 0x26048, symSize: 0x5C }
  - { offset: 0x141E59, size: 0x8, addend: 0x0, symName: __ZN4llvm14FoldingSetImplD2Ev, symObjAddr: 0x98C, symBinAddr: 0x260A4, symSize: 0x34 }
  - { offset: 0x141E7B, size: 0x8, addend: 0x0, symName: __ZN4llvm14FoldingSetImplC2Ej.cold.1, symObjAddr: 0x167C, symBinAddr: 0x1DD788, symSize: 0x18 }
  - { offset: 0x141EA9, size: 0x8, addend: 0x0, symName: __ZN4llvm14FoldingSetImplD2Ev, symObjAddr: 0x98C, symBinAddr: 0x260A4, symSize: 0x34 }
  - { offset: 0x141EF6, size: 0x8, addend: 0x0, symName: __ZN4llvm14FoldingSetImplD1Ev, symObjAddr: 0x9C0, symBinAddr: 0x1DD784, symSize: 0x4 }
  - { offset: 0x141F25, size: 0x8, addend: 0x0, symName: __ZN4llvm14FoldingSetImpl5clearEv, symObjAddr: 0x9C4, symBinAddr: 0x260D8, symSize: 0x40 }
  - { offset: 0x1421DC, size: 0x8, addend: 0x0, symName: __ZN4llvm14FoldingSetImpl13GrowHashTableEv, symObjAddr: 0xA04, symBinAddr: 0x26118, symSize: 0x15C }
  - { offset: 0x142699, size: 0x8, addend: 0x0, symName: __ZN4llvm14FoldingSetImpl10InsertNodeEPNS0_4NodeEPv, symObjAddr: 0xB60, symBinAddr: 0x26274, symSize: 0xE8 }
  - { offset: 0x142AA7, size: 0x8, addend: 0x0, symName: __ZN4llvm14FoldingSetImpl19FindNodeOrInsertPosERKNS_16FoldingSetNodeIDERPv, symObjAddr: 0xC48, symBinAddr: 0x2635C, symSize: 0x114 }
  - { offset: 0x142F91, size: 0x8, addend: 0x0, symName: __ZN4llvm14FoldingSetImpl10RemoveNodeEPNS0_4NodeE, symObjAddr: 0xD5C, symBinAddr: 0x26470, symSize: 0x50 }
  - { offset: 0x142FEF, size: 0x8, addend: 0x0, symName: __ZN4llvm14FoldingSetImpl10RemoveNodeEPNS0_4NodeE, symObjAddr: 0xD5C, symBinAddr: 0x26470, symSize: 0x50 }
  - { offset: 0x143086, size: 0x8, addend: 0x0, symName: __ZN4llvm14FoldingSetImpl15GetOrInsertNodeEPNS0_4NodeE, symObjAddr: 0xDAC, symBinAddr: 0x264C0, symSize: 0xC4 }
  - { offset: 0x143431, size: 0x8, addend: 0x0, symName: __ZN4llvm22FoldingSetIteratorImplC2EPPv, symObjAddr: 0xE70, symBinAddr: 0x26584, symSize: 0x30 }
  - { offset: 0x1434A7, size: 0x8, addend: 0x0, symName: __ZN4llvm22FoldingSetIteratorImpl7advanceEv, symObjAddr: 0xED0, symBinAddr: 0x265B4, symSize: 0x48 }
  - { offset: 0x1435A3, size: 0x8, addend: 0x0, symName: __ZN4llvm28FoldingSetBucketIteratorImplC2EPPv, symObjAddr: 0xF18, symBinAddr: 0x265FC, symSize: 0x1C }
  - { offset: 0x143924, size: 0x8, addend: 0x0, symName: _OUTLINED_FUNCTION_0, symObjAddr: 0x16AC, symBinAddr: 0x267A0, symSize: 0x14 }
  - { offset: 0x1457F6, size: 0x8, addend: 0x0, symName: __ZN4llvm29set_fixed_execution_hash_seedEm, symObjAddr: 0x0, symBinAddr: 0x267B4, symSize: 0xC }
  - { offset: 0x14581E, size: 0x8, addend: 0x0, symName: __ZN4llvm7hashing6detail19fixed_seed_overrideE, symObjAddr: 0x5BB8, symBinAddr: 0x2356D8, symSize: 0x0 }
  - { offset: 0x14582E, size: 0x8, addend: 0x0, symName: __ZN4llvm29set_fixed_execution_hash_seedEm, symObjAddr: 0x0, symBinAddr: 0x267B4, symSize: 0xC }
  - { offset: 0x14849E, size: 0x8, addend: 0x0, symName: __ZNK4llvm17ManagedStaticBase21RegisterManagedStaticEPFPvvEPFvS1_E, symObjAddr: 0x0, symBinAddr: 0x267C0, symSize: 0x118 }
  - { offset: 0x1493FA, size: 0x8, addend: 0x0, symName: __ZL10StaticList, symObjAddr: 0x8C18, symBinAddr: 0x234AF0, symSize: 0x0 }
  - { offset: 0x149426, size: 0x8, addend: 0x0, symName: __ZN4llvm13llvm_shutdownEv, symObjAddr: 0x154, symBinAddr: 0x26914, symSize: 0x48 }
  - { offset: 0x1496CE, size: 0x8, addend: 0x0, symName: __ZNK4llvm17ManagedStaticBase21RegisterManagedStaticEPFPvvEPFvS1_E, symObjAddr: 0x0, symBinAddr: 0x267C0, symSize: 0x118 }
  - { offset: 0x149951, size: 0x8, addend: 0x0, symName: __ZNK4llvm17ManagedStaticBase7destroyEv, symObjAddr: 0x118, symBinAddr: 0x268D8, symSize: 0x3C }
  - { offset: 0x14B983, size: 0x8, addend: 0x0, symName: __ZN4llvm15SmallVectorBase8grow_podEPvmm, symObjAddr: 0x0, symBinAddr: 0x2695C, symSize: 0x90 }
  - { offset: 0x14BAA3, size: 0x8, addend: 0x0, symName: __ZN4llvm15SmallVectorBase8grow_podEPvmm, symObjAddr: 0x0, symBinAddr: 0x2695C, symSize: 0x90 }
  - { offset: 0x14E78F, size: 0x8, addend: 0x0, symName: __ZN4llvm14StrInStrNoCaseENS_9StringRefES0_, symObjAddr: 0x0, symBinAddr: 0x269EC, symSize: 0xAC }
  - { offset: 0x14F4CD, size: 0x8, addend: 0x0, symName: __ZN4llvm14StrInStrNoCaseENS_9StringRefES0_, symObjAddr: 0x0, symBinAddr: 0x269EC, symSize: 0xAC }
  - { offset: 0x14F5A3, size: 0x8, addend: 0x0, symName: __ZN4llvm8getTokenENS_9StringRefES0_, symObjAddr: 0xAC, symBinAddr: 0x26A98, symSize: 0xA0 }
  - { offset: 0x14F77B, size: 0x8, addend: 0x0, symName: __ZN4llvm11SplitStringENS_9StringRefERNS_15SmallVectorImplIS0_EES0_, symObjAddr: 0x14C, symBinAddr: 0x26B38, symSize: 0x154 }
  - { offset: 0x154A33, size: 0x8, addend: 0x0, symName: __ZNK4llvm9StringRef13compare_lowerES0_, symObjAddr: 0x0, symBinAddr: 0x26C8C, symSize: 0x6C }
  - { offset: 0x154A47, size: 0x8, addend: 0x0, symName: __ZN4llvm9StringRef4nposE, symObjAddr: 0x1CD8, symBinAddr: 0x1DF7B0, symSize: 0x0 }
  - { offset: 0x155931, size: 0x8, addend: 0x0, symName: __ZN4llvm19ComputeEditDistanceIcEEjNS_8ArrayRefIT_EES3_bj, symObjAddr: 0x340, symBinAddr: 0x26FCC, symSize: 0x2AC }
  - { offset: 0x155C9B, size: 0x8, addend: 0x0, symName: __ZN4llvm20getAsUnsignedIntegerENS_9StringRefEjRy, symObjAddr: 0xEF4, symBinAddr: 0x27B80, symSize: 0x134 }
  - { offset: 0x155F05, size: 0x8, addend: 0x0, symName: __ZN4llvm18getAsSignedIntegerENS_9StringRefEjRx, symObjAddr: 0x1028, symBinAddr: 0x27CB4, symSize: 0x84 }
  - { offset: 0x15600C, size: 0x8, addend: 0x0, symName: __ZN4llvm10hash_valueENS_9StringRefE, symObjAddr: 0x1648, symBinAddr: 0x282D4, symSize: 0x8 }
  - { offset: 0x156040, size: 0x8, addend: 0x0, symName: __ZN4llvm10hash_valueENS_9StringRefE, symObjAddr: 0x1648, symBinAddr: 0x282D4, symSize: 0x8 }
  - { offset: 0x159BC9, size: 0x8, addend: 0x0, symName: __ZNK4llvm9StringRef13compare_lowerES0_, symObjAddr: 0x0, symBinAddr: 0x26C8C, symSize: 0x6C }
  - { offset: 0x159C01, size: 0x8, addend: 0x0, symName: __ZNK4llvm9StringRef13compare_lowerES0_, symObjAddr: 0x0, symBinAddr: 0x26C8C, symSize: 0x6C }
  - { offset: 0x159C1E, size: 0x8, addend: 0x0, symName: __ZNK4llvm9StringRef13compare_lowerES0_, symObjAddr: 0x0, symBinAddr: 0x26C8C, symSize: 0x6C }
  - { offset: 0x159C3D, size: 0x8, addend: 0x0, symName: __ZNK4llvm9StringRef13compare_lowerES0_, symObjAddr: 0x0, symBinAddr: 0x26C8C, symSize: 0x6C }
  - { offset: 0x159C5C, size: 0x8, addend: 0x0, symName: __ZNK4llvm9StringRef13compare_lowerES0_, symObjAddr: 0x0, symBinAddr: 0x26C8C, symSize: 0x6C }
  - { offset: 0x159CFC, size: 0x8, addend: 0x0, symName: __ZNK4llvm9StringRef16startswith_lowerES0_, symObjAddr: 0x6C, symBinAddr: 0x26CF8, symSize: 0x6C }
  - { offset: 0x159DD5, size: 0x8, addend: 0x0, symName: __ZNK4llvm9StringRef14endswith_lowerES0_, symObjAddr: 0xD8, symBinAddr: 0x26D64, symSize: 0x6C }
  - { offset: 0x159EEA, size: 0x8, addend: 0x0, symName: __ZNK4llvm9StringRef15compare_numericES0_, symObjAddr: 0x144, symBinAddr: 0x26DD0, symSize: 0x1E0 }
  - { offset: 0x15A099, size: 0x8, addend: 0x0, symName: __ZNK4llvm9StringRef13edit_distanceES0_bj, symObjAddr: 0x324, symBinAddr: 0x26FB0, symSize: 0x1C }
  - { offset: 0x15A462, size: 0x8, addend: 0x0, symName: __ZNK4llvm9StringRef5lowerEv, symObjAddr: 0x5EC, symBinAddr: 0x27278, symSize: 0xDC }
  - { offset: 0x15A76E, size: 0x8, addend: 0x0, symName: __ZNK4llvm9StringRef5upperEv, symObjAddr: 0x6C8, symBinAddr: 0x27354, symSize: 0xDC }
  - { offset: 0x15A7AB, size: 0x8, addend: 0x0, symName: __ZNK4llvm9StringRef5upperEv, symObjAddr: 0x6C8, symBinAddr: 0x27354, symSize: 0xDC }
  - { offset: 0x15AAC2, size: 0x8, addend: 0x0, symName: __ZNK4llvm9StringRef4findES0_m, symObjAddr: 0x7A4, symBinAddr: 0x27430, symSize: 0x238 }
  - { offset: 0x15AB3D, size: 0x8, addend: 0x0, symName: __ZNK4llvm9StringRef4findES0_m, symObjAddr: 0x7A4, symBinAddr: 0x27430, symSize: 0x238 }
  - { offset: 0x15AD41, size: 0x8, addend: 0x0, symName: __ZNK4llvm9StringRef5rfindES0_, symObjAddr: 0x9DC, symBinAddr: 0x27668, symSize: 0x98 }
  - { offset: 0x15AFC0, size: 0x8, addend: 0x0, symName: __ZNK4llvm9StringRef13find_first_ofES0_m, symObjAddr: 0xA74, symBinAddr: 0x27700, symSize: 0x7C }
  - { offset: 0x15B01F, size: 0x8, addend: 0x0, symName: __ZNK4llvm9StringRef13find_first_ofES0_m, symObjAddr: 0xA74, symBinAddr: 0x27700, symSize: 0x7C }
  - { offset: 0x15B03C, size: 0x8, addend: 0x0, symName: __ZNK4llvm9StringRef13find_first_ofES0_m, symObjAddr: 0xA74, symBinAddr: 0x27700, symSize: 0x7C }
  - { offset: 0x15B05A, size: 0x8, addend: 0x0, symName: __ZNK4llvm9StringRef13find_first_ofES0_m, symObjAddr: 0xA74, symBinAddr: 0x27700, symSize: 0x7C }
  - { offset: 0x15B264, size: 0x8, addend: 0x0, symName: __ZNK4llvm9StringRef17find_first_not_ofEcm, symObjAddr: 0xAF0, symBinAddr: 0x2777C, symSize: 0x38 }
  - { offset: 0x15B2AE, size: 0x8, addend: 0x0, symName: __ZNK4llvm9StringRef17find_first_not_ofEcm, symObjAddr: 0xAF0, symBinAddr: 0x2777C, symSize: 0x38 }
  - { offset: 0x15B2E0, size: 0x8, addend: 0x0, symName: __ZNK4llvm9StringRef17find_first_not_ofEcm, symObjAddr: 0xAF0, symBinAddr: 0x2777C, symSize: 0x38 }
  - { offset: 0x15B2FF, size: 0x8, addend: 0x0, symName: __ZNK4llvm9StringRef17find_first_not_ofEcm, symObjAddr: 0xAF0, symBinAddr: 0x2777C, symSize: 0x38 }
  - { offset: 0x15B31E, size: 0x8, addend: 0x0, symName: __ZNK4llvm9StringRef17find_first_not_ofEcm, symObjAddr: 0xAF0, symBinAddr: 0x2777C, symSize: 0x38 }
  - { offset: 0x15B33E, size: 0x8, addend: 0x0, symName: __ZNK4llvm9StringRef17find_first_not_ofES0_m, symObjAddr: 0xB28, symBinAddr: 0x277B4, symSize: 0x7C }
  - { offset: 0x15B39D, size: 0x8, addend: 0x0, symName: __ZNK4llvm9StringRef17find_first_not_ofES0_m, symObjAddr: 0xB28, symBinAddr: 0x277B4, symSize: 0x7C }
  - { offset: 0x15B3BA, size: 0x8, addend: 0x0, symName: __ZNK4llvm9StringRef17find_first_not_ofES0_m, symObjAddr: 0xB28, symBinAddr: 0x277B4, symSize: 0x7C }
  - { offset: 0x15B3D8, size: 0x8, addend: 0x0, symName: __ZNK4llvm9StringRef17find_first_not_ofES0_m, symObjAddr: 0xB28, symBinAddr: 0x277B4, symSize: 0x7C }
  - { offset: 0x15B5E2, size: 0x8, addend: 0x0, symName: __ZNK4llvm9StringRef12find_last_ofES0_m, symObjAddr: 0xBA4, symBinAddr: 0x27830, symSize: 0x84 }
  - { offset: 0x15B63F, size: 0x8, addend: 0x0, symName: __ZNK4llvm9StringRef12find_last_ofES0_m, symObjAddr: 0xBA4, symBinAddr: 0x27830, symSize: 0x84 }
  - { offset: 0x15B65C, size: 0x8, addend: 0x0, symName: __ZNK4llvm9StringRef12find_last_ofES0_m, symObjAddr: 0xBA4, symBinAddr: 0x27830, symSize: 0x84 }
  - { offset: 0x15B67A, size: 0x8, addend: 0x0, symName: __ZNK4llvm9StringRef12find_last_ofES0_m, symObjAddr: 0xBA4, symBinAddr: 0x27830, symSize: 0x84 }
  - { offset: 0x15B884, size: 0x8, addend: 0x0, symName: __ZNK4llvm9StringRef16find_last_not_ofEcm, symObjAddr: 0xC28, symBinAddr: 0x278B4, symSize: 0x40 }
  - { offset: 0x15B8CC, size: 0x8, addend: 0x0, symName: __ZNK4llvm9StringRef16find_last_not_ofEcm, symObjAddr: 0xC28, symBinAddr: 0x278B4, symSize: 0x40 }
  - { offset: 0x15B95C, size: 0x8, addend: 0x0, symName: __ZNK4llvm9StringRef16find_last_not_ofES0_m, symObjAddr: 0xC68, symBinAddr: 0x278F4, symSize: 0x84 }
  - { offset: 0x15B9BD, size: 0x8, addend: 0x0, symName: __ZNK4llvm9StringRef16find_last_not_ofES0_m, symObjAddr: 0xC68, symBinAddr: 0x278F4, symSize: 0x84 }
  - { offset: 0x15B9DB, size: 0x8, addend: 0x0, symName: __ZNK4llvm9StringRef16find_last_not_ofES0_m, symObjAddr: 0xC68, symBinAddr: 0x278F4, symSize: 0x84 }
  - { offset: 0x15B9F9, size: 0x8, addend: 0x0, symName: __ZNK4llvm9StringRef16find_last_not_ofES0_m, symObjAddr: 0xC68, symBinAddr: 0x278F4, symSize: 0x84 }
  - { offset: 0x15BD28, size: 0x8, addend: 0x0, symName: __ZNK4llvm9StringRef5splitERNS_15SmallVectorImplIS0_EES0_ib, symObjAddr: 0xCEC, symBinAddr: 0x27978, symSize: 0x15C }
  - { offset: 0x15C047, size: 0x8, addend: 0x0, symName: __ZNK4llvm9StringRef5countES0_, symObjAddr: 0xE48, symBinAddr: 0x27AD4, symSize: 0xAC }
  - { offset: 0x15C38F, size: 0x8, addend: 0x0, symName: __ZNK4llvm9StringRef12getAsIntegerEjRNS_5APIntE, symObjAddr: 0x10AC, symBinAddr: 0x27D38, symSize: 0x4BC }
  - { offset: 0x15CD3A, size: 0x8, addend: 0x0, symName: __ZN4llvm5APIntlSEj, symObjAddr: 0x1568, symBinAddr: 0x281F4, symSize: 0xE0 }
  - { offset: 0x15EFC6, size: 0x8, addend: 0x0, symName: __ZNK4llvm5Twine3strEv, symObjAddr: 0x0, symBinAddr: 0x282DC, symSize: 0x15C }
  - { offset: 0x162FBE, size: 0x8, addend: 0x0, symName: __ZNK4llvm5Twine3strEv, symObjAddr: 0x0, symBinAddr: 0x282DC, symSize: 0x15C }
  - { offset: 0x163562, size: 0x8, addend: 0x0, symName: __ZNK4llvm5Twine11toStringRefERNS_15SmallVectorImplIcEE, symObjAddr: 0x15C, symBinAddr: 0x28438, symSize: 0x114 }
  - { offset: 0x163BB8, size: 0x8, addend: 0x0, symName: __ZNK4llvm5Twine13printOneChildERNS_11raw_ostreamENS0_5ChildENS0_8NodeKindE, symObjAddr: 0x408, symBinAddr: 0x286E4, symSize: 0x1DC }
  - { offset: 0x163EB3, size: 0x8, addend: 0x0, symName: __ZNK4llvm5Twine8toVectorERNS_15SmallVectorImplIcEE, symObjAddr: 0x270, symBinAddr: 0x2854C, symSize: 0x68 }
  - { offset: 0x163F77, size: 0x8, addend: 0x0, symName: __ZNK4llvm5Twine5printERNS_11raw_ostreamE, symObjAddr: 0x2D8, symBinAddr: 0x285B4, symSize: 0x38 }
  - { offset: 0x1640F9, size: 0x8, addend: 0x0, symName: __ZNK4llvm5Twine25toNullTerminatedStringRefERNS_15SmallVectorImplIcEE, symObjAddr: 0x310, symBinAddr: 0x285EC, symSize: 0xF8 }
  - { offset: 0x164568, size: 0x8, addend: 0x0, symName: __ZNK4llvm5Twine17printOneChildReprERNS_11raw_ostreamENS0_5ChildENS0_8NodeKindE, symObjAddr: 0x5E4, symBinAddr: 0x288C0, symSize: 0x688 }
  - { offset: 0x164D3C, size: 0x8, addend: 0x0, symName: __ZNK4llvm5Twine9printReprERNS_11raw_ostreamE, symObjAddr: 0xC6C, symBinAddr: 0x28F48, symSize: 0x100 }
  - { offset: 0x164EAC, size: 0x8, addend: 0x0, symName: __ZNK4llvm5Twine4dumpEv, symObjAddr: 0xD6C, symBinAddr: 0x29048, symSize: 0x40 }
  - { offset: 0x164F65, size: 0x8, addend: 0x0, symName: __ZNK4llvm5Twine8dumpReprEv, symObjAddr: 0xDAC, symBinAddr: 0x29088, symSize: 0x28 }
  - { offset: 0x167D9B, size: 0x8, addend: 0x0, symName: __ZN4llvm4outsEv, symObjAddr: 0x2568, symBinAddr: 0x2B504, symSize: 0xB8 }
  - { offset: 0x167DC7, size: 0x8, addend: 0x0, symName: __ZZN4llvm4outsEvE1S, symObjAddr: 0x32D10, symBinAddr: 0x234B40, symSize: 0x0 }
  - { offset: 0x168249, size: 0x8, addend: 0x0, symName: __ZN4llvm4errsEv, symObjAddr: 0x2620, symBinAddr: 0x2B5BC, symSize: 0x9C }
  - { offset: 0x168275, size: 0x8, addend: 0x0, symName: __ZZN4llvm4errsEvE1S, symObjAddr: 0x32D58, symBinAddr: 0x234B88, symSize: 0x0 }
  - { offset: 0x1682A1, size: 0x8, addend: 0x0, symName: __ZN4llvm5nullsEv, symObjAddr: 0x26BC, symBinAddr: 0x2B658, symSize: 0x30 }
  - { offset: 0x1682CD, size: 0x8, addend: 0x0, symName: __MergedGlobals, symObjAddr: 0x32DA0, symBinAddr: 0x234BD0, symSize: 0x0 }
  - { offset: 0x16BEBD, size: 0x8, addend: 0x0, symName: __ZNSt3__13hexB9nqe210106ERNS_8ios_baseE, symObjAddr: 0x1B84, symBinAddr: 0x2AB30, symSize: 0x18 }
  - { offset: 0x16BEEF, size: 0x8, addend: 0x0, symName: __ZNSt3__13hexB9nqe210106ERNS_8ios_baseE, symObjAddr: 0x1B84, symBinAddr: 0x2AB30, symSize: 0x18 }
  - { offset: 0x16BF49, size: 0x8, addend: 0x0, symName: __ZNSt3__13octB9nqe210106ERNS_8ios_baseE, symObjAddr: 0x1B9C, symBinAddr: 0x2AB48, symSize: 0x18 }
  - { offset: 0x16BF7B, size: 0x8, addend: 0x0, symName: __ZNSt3__13octB9nqe210106ERNS_8ios_baseE, symObjAddr: 0x1B9C, symBinAddr: 0x2AB48, symSize: 0x18 }
  - { offset: 0x16CFBD, size: 0x8, addend: 0x0, symName: __ZN4llvm11raw_ostream6indentEj, symObjAddr: 0x1794, symBinAddr: 0x2A740, symSize: 0x68 }
  - { offset: 0x16CFE2, size: 0x8, addend: 0x0, symName: __ZZN4llvm11raw_ostream6indentEjE6Spaces, symObjAddr: 0x33FE, symBinAddr: 0x1DF7F4, symSize: 0x0 }
  - { offset: 0x16D0D7, size: 0x8, addend: 0x0, symName: __ZTVN4llvm11raw_ostreamE, symObjAddr: 0x3040, symBinAddr: 0x22C880, symSize: 0x0 }
  - { offset: 0x16D0EC, size: 0x8, addend: 0x0, symName: __ZTVN4llvm18raw_string_ostreamE, symObjAddr: 0x3148, symBinAddr: 0x22C988, symSize: 0x0 }
  - { offset: 0x16D116, size: 0x8, addend: 0x0, symName: __ZTVN4llvm16raw_null_ostreamE, symObjAddr: 0x3278, symBinAddr: 0x22CAB8, symSize: 0x0 }
  - { offset: 0x16D12B, size: 0x8, addend: 0x0, symName: __ZTVN4llvm18format_object_baseE, symObjAddr: 0x3330, symBinAddr: 0x22CB70, symSize: 0x0 }
  - { offset: 0x16D140, size: 0x8, addend: 0x0, symName: __ZTVN4llvm14raw_fd_ostreamE, symObjAddr: 0x30C0, symBinAddr: 0x22C900, symSize: 0x0 }
  - { offset: 0x16D155, size: 0x8, addend: 0x0, symName: __ZTVN4llvm19raw_svector_ostreamE, symObjAddr: 0x31C8, symBinAddr: 0x22CA08, symSize: 0x0 }
  - { offset: 0x16D179, size: 0x8, addend: 0x0, symName: __ZTVN4llvm13format_objectIJdEEE, symObjAddr: 0x3390, symBinAddr: 0x22CBD0, symSize: 0x0 }
  - { offset: 0x16D21B, size: 0x8, addend: 0x0, symName: __ZN4llvm11raw_ostreamD2Ev, symObjAddr: 0x0, symBinAddr: 0x290B0, symSize: 0x48 }
  - { offset: 0x16D23E, size: 0x8, addend: 0x0, symName: __ZN4llvm11raw_ostreamD1Ev, symObjAddr: 0x48, symBinAddr: 0x1DD7A0, symSize: 0x4 }
  - { offset: 0x16D26B, size: 0x8, addend: 0x0, symName: __ZN4llvm11raw_ostreamD0Ev, symObjAddr: 0x4C, symBinAddr: 0x1DD7A4, symSize: 0x4 }
  - { offset: 0x16D294, size: 0x8, addend: 0x0, symName: __ZN4llvm11raw_ostream6handleEv, symObjAddr: 0x50, symBinAddr: 0x290F8, symSize: 0x4 }
  - { offset: 0x16D2B9, size: 0x8, addend: 0x0, symName: __ZNK4llvm11raw_ostream21preferred_buffer_sizeEv, symObjAddr: 0x54, symBinAddr: 0x290FC, symSize: 0x8 }
  - { offset: 0x16D38E, size: 0x8, addend: 0x0, symName: __ZN4llvm11raw_ostream11SetBufferedEv, symObjAddr: 0x5C, symBinAddr: 0x29104, symSize: 0xE4 }
  - { offset: 0x16D539, size: 0x8, addend: 0x0, symName: __ZN4llvm11raw_ostream16SetBufferAndModeEPcmNS0_10BufferKindE, symObjAddr: 0x140, symBinAddr: 0x291E8, symSize: 0x6C }
  - { offset: 0x16D5C0, size: 0x8, addend: 0x0, symName: __ZN4llvm11raw_ostreamlsEm, symObjAddr: 0x1AC, symBinAddr: 0x29254, symSize: 0x29C }
  - { offset: 0x16D87F, size: 0x8, addend: 0x0, symName: __ZN4llvm11raw_ostream5writeEPKcm, symObjAddr: 0x56C, symBinAddr: 0x29614, symSize: 0x1E0 }
  - { offset: 0x16D9DA, size: 0x8, addend: 0x0, symName: __ZN4llvm11raw_ostream10write_baseEy, symObjAddr: 0x448, symBinAddr: 0x294F0, symSize: 0x124 }
  - { offset: 0x16DB63, size: 0x8, addend: 0x0, symName: __ZN4llvm11raw_ostream14copy_to_bufferEPKcm, symObjAddr: 0x15B4, symBinAddr: 0x2A560, symSize: 0xA4 }
  - { offset: 0x16DB9A, size: 0x8, addend: 0x0, symName: __ZN4llvm11raw_ostreamlsEl, symObjAddr: 0x74C, symBinAddr: 0x297F4, symSize: 0xFC }
  - { offset: 0x16DC93, size: 0x8, addend: 0x0, symName: __ZN4llvm11raw_ostreamlsEy, symObjAddr: 0x848, symBinAddr: 0x298F0, symSize: 0x4 }
  - { offset: 0x16DCD1, size: 0x8, addend: 0x0, symName: __ZN4llvm11raw_ostreamlsEy, symObjAddr: 0x848, symBinAddr: 0x298F0, symSize: 0x4 }
  - { offset: 0x16DD3F, size: 0x8, addend: 0x0, symName: __ZN4llvm11raw_ostream9write_hexEy, symObjAddr: 0x948, symBinAddr: 0x298F4, symSize: 0x2C }
  - { offset: 0x16DE24, size: 0x8, addend: 0x0, symName: __ZN4llvm11raw_ostream13write_escapedENS_9StringRefEb, symObjAddr: 0x974, symBinAddr: 0x29920, symSize: 0x860 }
  - { offset: 0x16EB6F, size: 0x8, addend: 0x0, symName: __ZN4llvm11raw_ostreamlsEPKv, symObjAddr: 0x11D4, symBinAddr: 0x2A180, symSize: 0x148 }
  - { offset: 0x16EF98, size: 0x8, addend: 0x0, symName: __ZN4llvm11raw_ostreamlsEd, symObjAddr: 0x131C, symBinAddr: 0x2A2C8, symSize: 0x38 }
  - { offset: 0x16F134, size: 0x8, addend: 0x0, symName: __ZN4llvm11raw_ostreamlsERKNS_18format_object_baseE, symObjAddr: 0x1354, symBinAddr: 0x2A300, symSize: 0x178 }
  - { offset: 0x16F952, size: 0x8, addend: 0x0, symName: __ZN4llvm11raw_ostream14flush_nonemptyEv, symObjAddr: 0x14CC, symBinAddr: 0x2A478, symSize: 0x18 }
  - { offset: 0x16F992, size: 0x8, addend: 0x0, symName: __ZN4llvm11raw_ostream5writeEh, symObjAddr: 0x14E4, symBinAddr: 0x2A490, symSize: 0xD0 }
  - { offset: 0x16FAA2, size: 0x8, addend: 0x0, symName: __ZN4llvm11raw_ostreamlsERKNS_15FormattedStringE, symObjAddr: 0x1658, symBinAddr: 0x2A604, symSize: 0x13C }
  - { offset: 0x16FCE4, size: 0x8, addend: 0x0, symName: __ZN4llvm11raw_ostreamlsERKNS_15FormattedNumberE, symObjAddr: 0x17FC, symBinAddr: 0x2A7A8, symSize: 0x344 }
  - { offset: 0x170167, size: 0x8, addend: 0x0, symName: __ZN4llvm11raw_ostreamlsEPFRNSt3__18ios_baseES3_E, symObjAddr: 0x1B40, symBinAddr: 0x2AAEC, symSize: 0x44 }
  - { offset: 0x170203, size: 0x8, addend: 0x0, symName: __ZN4llvm18format_object_base4homeEv, symObjAddr: 0x1BB4, symBinAddr: 0x2AB60, symSize: 0x4 }
  - { offset: 0x170425, size: 0x8, addend: 0x0, symName: __ZN4llvm14raw_fd_ostreamC2ENS_9StringRefERNSt3__110error_codeENS_3sys2fs9OpenFlagsE, symObjAddr: 0x1BB8, symBinAddr: 0x2AB64, symSize: 0x148 }
  - { offset: 0x1706B4, size: 0x8, addend: 0x0, symName: __ZN4llvm14raw_fd_ostreamC2Eibb, symObjAddr: 0x1D00, symBinAddr: 0x2ACAC, symSize: 0xC0 }
  - { offset: 0x1707F8, size: 0x8, addend: 0x0, symName: __ZN4llvm14raw_fd_ostreamC1ENS_9StringRefERNSt3__110error_codeENS_3sys2fs9OpenFlagsE, symObjAddr: 0x1DC0, symBinAddr: 0x2AD6C, symSize: 0x148 }
  - { offset: 0x170ABE, size: 0x8, addend: 0x0, symName: __ZN4llvm14raw_fd_ostreamC1Eibb, symObjAddr: 0x1F08, symBinAddr: 0x2AEB4, symSize: 0xC0 }
  - { offset: 0x170C08, size: 0x8, addend: 0x0, symName: __ZN4llvm14raw_fd_ostreamD2Ev, symObjAddr: 0x1FC8, symBinAddr: 0x2AF74, symSize: 0xCC }
  - { offset: 0x170D1B, size: 0x8, addend: 0x0, symName: __ZN4llvm14raw_fd_ostream10write_implEPKcm, symObjAddr: 0x20BC, symBinAddr: 0x2B058, symSize: 0xC8 }
  - { offset: 0x170E37, size: 0x8, addend: 0x0, symName: __ZN4llvm14raw_fd_ostreamD1Ev, symObjAddr: 0x20A4, symBinAddr: 0x2B040, symSize: 0x4 }
  - { offset: 0x170E5B, size: 0x8, addend: 0x0, symName: __ZN4llvm14raw_fd_ostreamD1Ev, symObjAddr: 0x20A4, symBinAddr: 0x2B040, symSize: 0x4 }
  - { offset: 0x170E90, size: 0x8, addend: 0x0, symName: __ZN4llvm14raw_fd_ostreamD0Ev, symObjAddr: 0x20A8, symBinAddr: 0x2B044, symSize: 0x14 }
  - { offset: 0x170F49, size: 0x8, addend: 0x0, symName: __ZN4llvm14raw_fd_ostream5closeEv, symObjAddr: 0x2184, symBinAddr: 0x2B120, symSize: 0x60 }
  - { offset: 0x170FEB, size: 0x8, addend: 0x0, symName: __ZN4llvm14raw_fd_ostream4seekEy, symObjAddr: 0x21E4, symBinAddr: 0x2B180, symSize: 0x6C }
  - { offset: 0x1710FD, size: 0x8, addend: 0x0, symName: __ZN4llvm14raw_fd_ostream11pwrite_implEPKcmy, symObjAddr: 0x2250, symBinAddr: 0x2B1EC, symSize: 0xF0 }
  - { offset: 0x17134E, size: 0x8, addend: 0x0, symName: __ZNK4llvm14raw_fd_ostream21preferred_buffer_sizeEv, symObjAddr: 0x2340, symBinAddr: 0x2B2DC, symSize: 0x5C }
  - { offset: 0x1713E6, size: 0x8, addend: 0x0, symName: __ZN4llvm14raw_fd_ostream11changeColorENS_11raw_ostream6ColorsEbb, symObjAddr: 0x239C, symBinAddr: 0x2B338, symSize: 0xB4 }
  - { offset: 0x171511, size: 0x8, addend: 0x0, symName: __ZN4llvm14raw_fd_ostream10resetColorEv, symObjAddr: 0x2450, symBinAddr: 0x2B3EC, symSize: 0x84 }
  - { offset: 0x1715F7, size: 0x8, addend: 0x0, symName: __ZN4llvm14raw_fd_ostream12reverseColorEv, symObjAddr: 0x24D4, symBinAddr: 0x2B470, symSize: 0x84 }
  - { offset: 0x1716DD, size: 0x8, addend: 0x0, symName: __ZNK4llvm14raw_fd_ostream12is_displayedEv, symObjAddr: 0x2558, symBinAddr: 0x2B4F4, symSize: 0x8 }
  - { offset: 0x171707, size: 0x8, addend: 0x0, symName: __ZNK4llvm14raw_fd_ostream10has_colorsEv, symObjAddr: 0x2560, symBinAddr: 0x2B4FC, symSize: 0x8 }
  - { offset: 0x171731, size: 0x8, addend: 0x0, symName: __ZN4llvm5nullsEv.cold.1, symObjAddr: 0x2E88, symBinAddr: 0x1DD7A8, symSize: 0x7C }
  - { offset: 0x1717DE, size: 0x8, addend: 0x0, symName: __ZN4llvm16raw_null_ostreamD1Ev, symObjAddr: 0x26EC, symBinAddr: 0x2B688, symSize: 0x48 }
  - { offset: 0x171804, size: 0x8, addend: 0x0, symName: __ZN4llvm16raw_null_ostreamD1Ev, symObjAddr: 0x26EC, symBinAddr: 0x2B688, symSize: 0x48 }
  - { offset: 0x171824, size: 0x8, addend: 0x0, symName: __ZN4llvm16raw_null_ostreamD1Ev, symObjAddr: 0x26EC, symBinAddr: 0x2B688, symSize: 0x48 }
  - { offset: 0x171844, size: 0x8, addend: 0x0, symName: __ZN4llvm16raw_null_ostreamD1Ev, symObjAddr: 0x26EC, symBinAddr: 0x2B688, symSize: 0x48 }
  - { offset: 0x17189A, size: 0x8, addend: 0x0, symName: __ZN4llvm18raw_string_ostreamD2Ev, symObjAddr: 0x2734, symBinAddr: 0x2B6D0, symSize: 0x84 }
  - { offset: 0x17196F, size: 0x8, addend: 0x0, symName: __ZN4llvm18raw_string_ostreamD1Ev, symObjAddr: 0x27B8, symBinAddr: 0x2B754, symSize: 0x4 }
  - { offset: 0x171993, size: 0x8, addend: 0x0, symName: __ZN4llvm18raw_string_ostreamD1Ev, symObjAddr: 0x27B8, symBinAddr: 0x2B754, symSize: 0x4 }
  - { offset: 0x1719C8, size: 0x8, addend: 0x0, symName: __ZN4llvm18raw_string_ostreamD0Ev, symObjAddr: 0x27BC, symBinAddr: 0x2B758, symSize: 0x14 }
  - { offset: 0x171A2A, size: 0x8, addend: 0x0, symName: __ZN4llvm18raw_string_ostream10write_implEPKcm, symObjAddr: 0x27D0, symBinAddr: 0x2B76C, symSize: 0x8 }
  - { offset: 0x171A5D, size: 0x8, addend: 0x0, symName: __ZN4llvm19raw_svector_ostreamC2ERNS_15SmallVectorImplIcEEj, symObjAddr: 0x27D8, symBinAddr: 0x2B774, symSize: 0x30 }
  - { offset: 0x171B7E, size: 0x8, addend: 0x0, symName: __ZN4llvm19raw_svector_ostreamC2ERNS_15SmallVectorImplIcEE, symObjAddr: 0x2838, symBinAddr: 0x2B7A4, symSize: 0xE4 }
  - { offset: 0x171DC4, size: 0x8, addend: 0x0, symName: __ZN4llvm19raw_svector_ostream4initEv, symObjAddr: 0x291C, symBinAddr: 0x2B888, symSize: 0x80 }
  - { offset: 0x171F48, size: 0x8, addend: 0x0, symName: __ZN4llvm19raw_svector_ostreamC1ERNS_15SmallVectorImplIcEE, symObjAddr: 0x299C, symBinAddr: 0x2B908, symSize: 0x4 }
  - { offset: 0x171F86, size: 0x8, addend: 0x0, symName: __ZN4llvm19raw_svector_ostreamC1ERNS_15SmallVectorImplIcEE, symObjAddr: 0x299C, symBinAddr: 0x2B908, symSize: 0x4 }
  - { offset: 0x171FA2, size: 0x8, addend: 0x0, symName: __ZN4llvm19raw_svector_ostreamD2Ev, symObjAddr: 0x29A0, symBinAddr: 0x2B90C, symSize: 0x70 }
  - { offset: 0x17205E, size: 0x8, addend: 0x0, symName: __ZN4llvm19raw_svector_ostream10write_implEPKcm, symObjAddr: 0x2BE8, symBinAddr: 0x2BB54, symSize: 0xF0 }
  - { offset: 0x172397, size: 0x8, addend: 0x0, symName: __ZN4llvm19raw_svector_ostreamD1Ev, symObjAddr: 0x2A10, symBinAddr: 0x2B97C, symSize: 0x70 }
  - { offset: 0x17248D, size: 0x8, addend: 0x0, symName: __ZN4llvm19raw_svector_ostreamD0Ev, symObjAddr: 0x2A80, symBinAddr: 0x2B9EC, symSize: 0x70 }
  - { offset: 0x172586, size: 0x8, addend: 0x0, symName: __ZN4llvm19raw_svector_ostream11pwrite_implEPKcmy, symObjAddr: 0x2AF0, symBinAddr: 0x2BA5C, symSize: 0x70 }
  - { offset: 0x172673, size: 0x8, addend: 0x0, symName: __ZN4llvm19raw_svector_ostream6resyncEv, symObjAddr: 0x2B60, symBinAddr: 0x2BACC, symSize: 0x88 }
  - { offset: 0x172876, size: 0x8, addend: 0x0, symName: __ZNK4llvm19raw_svector_ostream11current_posEv, symObjAddr: 0x2CD8, symBinAddr: 0x2BC44, symSize: 0x10 }
  - { offset: 0x1728DF, size: 0x8, addend: 0x0, symName: __ZN4llvm19raw_svector_ostream3strEv, symObjAddr: 0x2CE8, symBinAddr: 0x2BC54, symSize: 0x4C }
  - { offset: 0x1729C1, size: 0x8, addend: 0x0, symName: __ZN4llvm16raw_null_ostreamD0Ev, symObjAddr: 0x2D7C, symBinAddr: 0x2BCA0, symSize: 0x48 }
  - { offset: 0x1729F2, size: 0x8, addend: 0x0, symName: __ZN4llvm16raw_null_ostreamD0Ev, symObjAddr: 0x2D7C, symBinAddr: 0x2BCA0, symSize: 0x48 }
  - { offset: 0x172A12, size: 0x8, addend: 0x0, symName: __ZN4llvm16raw_null_ostreamD0Ev, symObjAddr: 0x2D7C, symBinAddr: 0x2BCA0, symSize: 0x48 }
  - { offset: 0x172A32, size: 0x8, addend: 0x0, symName: __ZN4llvm16raw_null_ostreamD0Ev, symObjAddr: 0x2D7C, symBinAddr: 0x2BCA0, symSize: 0x48 }
  - { offset: 0x172A52, size: 0x8, addend: 0x0, symName: __ZN4llvm16raw_null_ostreamD0Ev, symObjAddr: 0x2D7C, symBinAddr: 0x2BCA0, symSize: 0x48 }
  - { offset: 0x172A73, size: 0x8, addend: 0x0, symName: __ZN4llvm16raw_null_ostream10write_implEPKcm, symObjAddr: 0x2DC4, symBinAddr: 0x2BCE8, symSize: 0x4 }
  - { offset: 0x172AB1, size: 0x8, addend: 0x0, symName: __ZNK4llvm16raw_null_ostream11current_posEv, symObjAddr: 0x2DC8, symBinAddr: 0x2BCEC, symSize: 0x8 }
  - { offset: 0x172AD7, size: 0x8, addend: 0x0, symName: __ZN4llvm16raw_null_ostream11pwrite_implEPKcmy, symObjAddr: 0x2DD0, symBinAddr: 0x2BCF4, symSize: 0x4 }
  - { offset: 0x172B21, size: 0x8, addend: 0x0, symName: __ZN4llvm11raw_ostream5closeEv, symObjAddr: 0x2DD4, symBinAddr: 0x2BCF8, symSize: 0x24 }
  - { offset: 0x172B49, size: 0x8, addend: 0x0, symName: __ZN4llvm11raw_ostream5closeEv, symObjAddr: 0x2DD4, symBinAddr: 0x2BCF8, symSize: 0x24 }
  - { offset: 0x172B96, size: 0x8, addend: 0x0, symName: __ZNK4llvm11raw_ostream9has_errorEv, symObjAddr: 0x2DF8, symBinAddr: 0x2BD1C, symSize: 0x8 }
  - { offset: 0x172BBD, size: 0x8, addend: 0x0, symName: __ZN4llvm11raw_ostream11clear_errorEv, symObjAddr: 0x2E00, symBinAddr: 0x2BD24, symSize: 0x4 }
  - { offset: 0x172BE2, size: 0x8, addend: 0x0, symName: __ZN4llvm11raw_ostream11changeColorENS0_6ColorsEbb, symObjAddr: 0x2E04, symBinAddr: 0x2BD28, symSize: 0x4 }
  - { offset: 0x172C3C, size: 0x8, addend: 0x0, symName: __ZN4llvm11raw_ostream10resetColorEv, symObjAddr: 0x2E08, symBinAddr: 0x2BD2C, symSize: 0x4 }
  - { offset: 0x172C61, size: 0x8, addend: 0x0, symName: __ZN4llvm11raw_ostream12reverseColorEv, symObjAddr: 0x2E0C, symBinAddr: 0x2BD30, symSize: 0x4 }
  - { offset: 0x172C86, size: 0x8, addend: 0x0, symName: __ZNK4llvm11raw_ostream12is_displayedEv, symObjAddr: 0x2E10, symBinAddr: 0x2BD34, symSize: 0x8 }
  - { offset: 0x172CAD, size: 0x8, addend: 0x0, symName: __ZNK4llvm11raw_ostream10has_colorsEv, symObjAddr: 0x2E18, symBinAddr: 0x2BD3C, symSize: 0xC }
  - { offset: 0x172D2E, size: 0x8, addend: 0x0, symName: __ZNK4llvm18raw_string_ostream11current_posEv, symObjAddr: 0x2E24, symBinAddr: 0x2BD48, symSize: 0x18 }
  - { offset: 0x172DAC, size: 0x8, addend: 0x0, symName: __ZNK4llvm14raw_fd_ostream9has_errorEv, symObjAddr: 0x2E3C, symBinAddr: 0x2BD60, symSize: 0x8 }
  - { offset: 0x172DD3, size: 0x8, addend: 0x0, symName: __ZN4llvm14raw_fd_ostream11clear_errorEv, symObjAddr: 0x2E44, symBinAddr: 0x2BD68, symSize: 0x8 }
  - { offset: 0x172DF8, size: 0x8, addend: 0x0, symName: __ZNK4llvm14raw_fd_ostream11current_posEv, symObjAddr: 0x2E4C, symBinAddr: 0x2BD70, symSize: 0x8 }
  - { offset: 0x172E64, size: 0x8, addend: 0x0, symName: __ZNK4llvm13format_objectIJdEE7snprintEPcj, symObjAddr: 0x2E54, symBinAddr: 0x2BD78, symSize: 0x34 }
  - { offset: 0x174E28, size: 0x8, addend: 0x0, symName: __ZN4llvm3sys8StrErrorEv, symObjAddr: 0x0, symBinAddr: 0x2BDAC, symSize: 0xA4 }
  - { offset: 0x177A7D, size: 0x8, addend: 0x0, symName: __ZN4llvm3sys8StrErrorEv, symObjAddr: 0x0, symBinAddr: 0x2BDAC, symSize: 0xA4 }
  - { offset: 0x177C40, size: 0x8, addend: 0x0, symName: __ZN4llvm3sys8StrErrorEi, symObjAddr: 0xA4, symBinAddr: 0x2BE50, symSize: 0x9C }
  - { offset: 0x179EFE, size: 0x8, addend: 0x0, symName: __ZN4llvm3sys9MutexImplC2Eb, symObjAddr: 0x0, symBinAddr: 0x2BEEC, symSize: 0xA4 }
  - { offset: 0x17A0FE, size: 0x8, addend: 0x0, symName: __ZN4llvm3sys9MutexImplD2Ev, symObjAddr: 0x148, symBinAddr: 0x2BF90, symSize: 0x38 }
  - { offset: 0x17A1B0, size: 0x8, addend: 0x0, symName: __ZN4llvm3sys9MutexImplD1Ev, symObjAddr: 0x190, symBinAddr: 0x2BFC8, symSize: 0x38 }
  - { offset: 0x17A23A, size: 0x8, addend: 0x0, symName: __ZN4llvm3sys9MutexImpl7acquireEv, symObjAddr: 0x1C8, symBinAddr: 0x2C000, symSize: 0x20 }
  - { offset: 0x17A2A4, size: 0x8, addend: 0x0, symName: __ZN4llvm3sys9MutexImpl7releaseEv, symObjAddr: 0x1E8, symBinAddr: 0x2C020, symSize: 0x20 }
  - { offset: 0x17A30E, size: 0x8, addend: 0x0, symName: __ZN4llvm3sys9MutexImpl10tryacquireEv, symObjAddr: 0x208, symBinAddr: 0x2C040, symSize: 0x20 }
  - { offset: 0x17A3C7, size: 0x8, addend: 0x0, symName: __ZN4llvm3sys2fs8threadFSE, symObjAddr: 0x5E6C, symBinAddr: 0x2349C8, symSize: 0x0 }
  - { offset: 0x17AA1C, size: 0x8, addend: 0x0, symName: __ZN4llvm3sys2fs11InitializedE, symObjAddr: 0x5A948, symBinAddr: 0x2356E0, symSize: 0x0 }
  - { offset: 0x17B171, size: 0x8, addend: 0x0, symName: __ZN4llvm3sys2fs11getUniqueIDENS_5TwineERNS1_8UniqueIDE, symObjAddr: 0x24FC, symBinAddr: 0x2E55C, symSize: 0x5C }
  - { offset: 0x17B288, size: 0x8, addend: 0x0, symName: __ZN4llvm3sys2fs6statusERKNS_5TwineERNS1_11file_statusE, symObjAddr: 0x2558, symBinAddr: 0x2E5B8, symSize: 0xC8 }
  - { offset: 0x17B5E6, size: 0x8, addend: 0x0, symName: __ZN4llvm3sys2fsL10fillStatusEiRK4statRNS1_11file_statusE, symObjAddr: 0x4B20, symBinAddr: 0x30B80, symSize: 0x184 }
  - { offset: 0x17B75A, size: 0x8, addend: 0x0, symName: __ZN4llvm3sys2fs16createUniqueFileERKNS_5TwineERiRNS_15SmallVectorImplIcEEj, symObjAddr: 0x2630, symBinAddr: 0x2E690, symSize: 0x10 }
  - { offset: 0x17B7F3, size: 0x8, addend: 0x0, symName: __ZN4llvm3sys2fs6accessERKNS_5TwineENS1_10AccessModeE, symObjAddr: 0x48F0, symBinAddr: 0x30950, symSize: 0x12C }
  - { offset: 0x17BC03, size: 0x8, addend: 0x0, symName: __ZN4llvm3sys2fs16create_directoryERKNS_5TwineEb, symObjAddr: 0x34C8, symBinAddr: 0x2F528, symSize: 0xC8 }
  - { offset: 0x17BF2A, size: 0x8, addend: 0x0, symName: __ZN4llvm3sys2fs16openFileForWriteERKNS_5TwineERiNS1_9OpenFlagsEj, symObjAddr: 0x38AC, symBinAddr: 0x2F90C, symSize: 0x130 }
  - { offset: 0x17C2BF, size: 0x8, addend: 0x0, symName: __ZN4llvm3sys2fs16createUniqueFileERKNS_5TwineERNS_15SmallVectorImplIcEE, symObjAddr: 0x2A00, symBinAddr: 0x2EA60, symSize: 0x30 }
  - { offset: 0x17C349, size: 0x8, addend: 0x0, symName: __ZN4llvm3sys2fs19createTemporaryFileERKNS_5TwineENS_9StringRefERiRNS_15SmallVectorImplIcEE, symObjAddr: 0x2A30, symBinAddr: 0x2EA90, symSize: 0x8 }
  - { offset: 0x17C3DF, size: 0x8, addend: 0x0, symName: __ZN4llvm3sys2fsL19createTemporaryFileERKNS_5TwineENS_9StringRefERiRNS_15SmallVectorImplIcEE8FSEntity, symObjAddr: 0x2A38, symBinAddr: 0x2EA98, symSize: 0x1DC }
  - { offset: 0x17CB03, size: 0x8, addend: 0x0, symName: __ZN4llvm3sys2fs19createTemporaryFileERKNS_5TwineENS_9StringRefERNS_15SmallVectorImplIcEE, symObjAddr: 0x2C14, symBinAddr: 0x2EC74, symSize: 0x28 }
  - { offset: 0x17CB9D, size: 0x8, addend: 0x0, symName: __ZN4llvm3sys2fs21createUniqueDirectoryERKNS_5TwineERNS_15SmallVectorImplIcEE, symObjAddr: 0x2C3C, symBinAddr: 0x2EC9C, symSize: 0x94 }
  - { offset: 0x17CD6E, size: 0x8, addend: 0x0, symName: __ZN4llvm3sys2fs13make_absoluteERNS_15SmallVectorImplIcEE, symObjAddr: 0x2CD0, symBinAddr: 0x2ED30, symSize: 0x264 }
  - { offset: 0x17D9B2, size: 0x8, addend: 0x0, symName: __ZN4llvm3sys2fs12current_pathERNS_15SmallVectorImplIcEE, symObjAddr: 0x2F34, symBinAddr: 0x2EF94, symSize: 0x210 }
  - { offset: 0x17E0DF, size: 0x8, addend: 0x0, symName: __ZN4llvm3sys2fs18create_directoriesERKNS_5TwineEb, symObjAddr: 0x32D8, symBinAddr: 0x2F338, symSize: 0x1F0 }
  - { offset: 0x17E8B5, size: 0x8, addend: 0x0, symName: __ZN4llvm3sys2fs9copy_fileERKNS_5TwineES4_, symObjAddr: 0x3590, symBinAddr: 0x2F5F0, symSize: 0x224 }
  - { offset: 0x17EC30, size: 0x8, addend: 0x0, symName: __ZN4llvm3sys2fs15openFileForReadERKNS_5TwineERi, symObjAddr: 0x37B4, symBinAddr: 0x2F814, symSize: 0xF8 }
  - { offset: 0x17EF9E, size: 0x8, addend: 0x0, symName: __ZN4llvm3sys2fs9msf_closeEi, symObjAddr: 0x39DC, symBinAddr: 0x2FA3C, symSize: 0x50 }
  - { offset: 0x17F003, size: 0x8, addend: 0x0, symName: __ZN4llvm3sys2fs8msf_readEiPvj, symObjAddr: 0x3A2C, symBinAddr: 0x2FA8C, symSize: 0x58 }
  - { offset: 0x17F07C, size: 0x8, addend: 0x0, symName: __ZN4llvm3sys2fs9msf_writeEiPKvj, symObjAddr: 0x3A84, symBinAddr: 0x2FAE4, symSize: 0x58 }
  - { offset: 0x17F0F5, size: 0x8, addend: 0x0, symName: __ZN4llvm3sys2fs6existsENS1_11file_statusE, symObjAddr: 0x3ADC, symBinAddr: 0x2FB3C, symSize: 0x10 }
  - { offset: 0x17F126, size: 0x8, addend: 0x0, symName: __ZN4llvm3sys2fs12status_knownENS1_11file_statusE, symObjAddr: 0x3AEC, symBinAddr: 0x2FB4C, symSize: 0x10 }
  - { offset: 0x17F15A, size: 0x8, addend: 0x0, symName: __ZN4llvm3sys2fs12status_knownENS1_11file_statusE, symObjAddr: 0x3AEC, symBinAddr: 0x2FB4C, symSize: 0x10 }
  - { offset: 0x17F176, size: 0x8, addend: 0x0, symName: __ZN4llvm3sys2fs12is_directoryENS1_11file_statusE, symObjAddr: 0x3AFC, symBinAddr: 0x2FB5C, symSize: 0x10 }
  - { offset: 0x17F198, size: 0x8, addend: 0x0, symName: __ZN4llvm3sys2fs12is_directoryENS1_11file_statusE, symObjAddr: 0x3AFC, symBinAddr: 0x2FB5C, symSize: 0x10 }
  - { offset: 0x17F1D2, size: 0x8, addend: 0x0, symName: __ZN4llvm3sys2fs12is_directoryERKNS_5TwineERb, symObjAddr: 0x3B0C, symBinAddr: 0x2FB6C, symSize: 0x60 }
  - { offset: 0x17F2EF, size: 0x8, addend: 0x0, symName: __ZN4llvm3sys2fs15is_regular_fileENS1_11file_statusE, symObjAddr: 0x3B6C, symBinAddr: 0x2FBCC, symSize: 0x10 }
  - { offset: 0x17F311, size: 0x8, addend: 0x0, symName: __ZN4llvm3sys2fs15is_regular_fileENS1_11file_statusE, symObjAddr: 0x3B6C, symBinAddr: 0x2FBCC, symSize: 0x10 }
  - { offset: 0x17F34B, size: 0x8, addend: 0x0, symName: __ZN4llvm3sys2fs15is_regular_fileERKNS_5TwineERb, symObjAddr: 0x3B7C, symBinAddr: 0x2FBDC, symSize: 0x60 }
  - { offset: 0x17F468, size: 0x8, addend: 0x0, symName: __ZN4llvm3sys2fs8is_otherENS1_11file_statusE, symObjAddr: 0x3BDC, symBinAddr: 0x2FC3C, symSize: 0x10 }
  - { offset: 0x17F4A5, size: 0x8, addend: 0x0, symName: __ZN4llvm3sys2fs8is_otherERKNS_5TwineERb, symObjAddr: 0x3BEC, symBinAddr: 0x2FC4C, symSize: 0x60 }
  - { offset: 0x17F5C2, size: 0x8, addend: 0x0, symName: __ZN4llvm3sys2fs14identify_magicENS_9StringRefE, symObjAddr: 0x3F20, symBinAddr: 0x2FF80, symSize: 0x384 }
  - { offset: 0x17FAB5, size: 0x8, addend: 0x0, symName: __ZN4llvm3sys2fs14identify_magicERKNS_5TwineERNS1_10file_magicE, symObjAddr: 0x42A4, symBinAddr: 0x30304, symSize: 0x148 }
  - { offset: 0x17FCB6, size: 0x8, addend: 0x0, symName: __ZN4llvm3sys2fs17getMainExecutableEPKcPv, symObjAddr: 0x4418, symBinAddr: 0x30478, symSize: 0x104 }
  - { offset: 0x18009B, size: 0x8, addend: 0x0, symName: __ZN4llvm3sys2fs11create_linkERKNS_5TwineES4_, symObjAddr: 0x455C, symBinAddr: 0x305BC, symSize: 0x114 }
  - { offset: 0x180611, size: 0x8, addend: 0x0, symName: __ZN4llvm3sys2fs6removeERKNS_5TwineEb, symObjAddr: 0x4670, symBinAddr: 0x306D0, symSize: 0x128 }
  - { offset: 0x18098B, size: 0x8, addend: 0x0, symName: __ZN4llvm3sys2fs6renameERKNS_5TwineES4_, symObjAddr: 0x4798, symBinAddr: 0x307F8, symSize: 0x110 }
  - { offset: 0x180F0F, size: 0x8, addend: 0x0, symName: __ZN4llvm3sys2fs11resize_fileEiy, symObjAddr: 0x48A8, symBinAddr: 0x30908, symSize: 0x48 }
  - { offset: 0x180FE5, size: 0x8, addend: 0x0, symName: __ZN4llvm3sys2fs10equivalentENS1_11file_statusES2_, symObjAddr: 0x4A1C, symBinAddr: 0x30A7C, symSize: 0x2C }
  - { offset: 0x181037, size: 0x8, addend: 0x0, symName: __ZN4llvm3sys2fs10equivalentERKNS_5TwineES4_Rb, symObjAddr: 0x4A48, symBinAddr: 0x30AA8, symSize: 0xB4 }
  - { offset: 0x1811F3, size: 0x8, addend: 0x0, symName: __ZN4llvm3sys2fs26GetCurrentThreadFileSystemEv, symObjAddr: 0x4AFC, symBinAddr: 0x30B5C, symSize: 0x24 }
  - { offset: 0x181214, size: 0x8, addend: 0x0, symName: __ZN4llvm3sys2fs6statusEiRNS1_11file_statusE, symObjAddr: 0x4CA4, symBinAddr: 0x30D04, symSize: 0x58 }
  - { offset: 0x1812DB, size: 0x8, addend: 0x0, symName: __ZN4llvm3sys2fs32setLastModificationAndAccessTimeEiNS0_9TimeValueE, symObjAddr: 0x4CFC, symBinAddr: 0x30D5C, symSize: 0x98 }
  - { offset: 0x1813BC, size: 0x8, addend: 0x0, symName: __ZN4llvm3sys2fs6detail28directory_iterator_constructERNS2_12DirIterStateENS_9StringRefE, symObjAddr: 0x4FCC, symBinAddr: 0x30F7C, symSize: 0x258 }
  - { offset: 0x181C60, size: 0x8, addend: 0x0, symName: __ZN4llvm3sys2fs6detail28directory_iterator_incrementERNS2_12DirIterStateE, symObjAddr: 0x5224, symBinAddr: 0x311D4, symSize: 0x1A0 }
  - { offset: 0x182091, size: 0x8, addend: 0x0, symName: __ZN4llvm3sys2fs6detail27directory_iterator_destructERNS2_12DirIterStateE, symObjAddr: 0x53C4, symBinAddr: 0x31374, symSize: 0xB4 }
  - { offset: 0x182227, size: 0x8, addend: 0x0, symName: __ZN4llvm3sys2fs24SetupPerThreadFileSystemEv, symObjAddr: 0x56F8, symBinAddr: 0x316A8, symSize: 0x2C }
  - { offset: 0x18230A, size: 0x8, addend: 0x0, symName: __ZN4llvm3sys2fs26SetCurrentThreadFileSystemEPNS1_12MSFileSystemE, symObjAddr: 0x5728, symBinAddr: 0x316D4, symSize: 0x54 }
  - { offset: 0x182355, size: 0x8, addend: 0x0, symName: __ZN4llvm3sys2fs9msf_lseekEili, symObjAddr: 0x577C, symBinAddr: 0x31728, symSize: 0x54 }
  - { offset: 0x1823F5, size: 0x8, addend: 0x0, symName: __ZN4llvm3sys2fs11msf_setmodeEii, symObjAddr: 0x57D0, symBinAddr: 0x3177C, symSize: 0x54 }
  - { offset: 0x182497, size: 0x8, addend: 0x0, symName: __ZN4llvm3sys4pathL26preferred_separator_stringE, symObjAddr: 0x5D2C, symBinAddr: 0x1DF988, symSize: 0x0 }
  - { offset: 0x182567, size: 0x8, addend: 0x0, symName: __ZN4llvm3sys4path5beginENS_9StringRefE, symObjAddr: 0x0, symBinAddr: 0x2C060, symSize: 0xBC }
  - { offset: 0x18274C, size: 0x8, addend: 0x0, symName: __ZN4llvm3sys4path3endENS_9StringRefE, symObjAddr: 0xBC, symBinAddr: 0x2C11C, symSize: 0x10 }
  - { offset: 0x18278D, size: 0x8, addend: 0x0, symName: __ZN4llvm3sys4path3endENS_9StringRefE, symObjAddr: 0xBC, symBinAddr: 0x2C11C, symSize: 0x10 }
  - { offset: 0x1827AA, size: 0x8, addend: 0x0, symName: __ZN4llvm3sys4path3endENS_9StringRefE, symObjAddr: 0xBC, symBinAddr: 0x2C11C, symSize: 0x10 }
  - { offset: 0x1827C7, size: 0x8, addend: 0x0, symName: __ZN4llvm3sys4path3endENS_9StringRefE, symObjAddr: 0xBC, symBinAddr: 0x2C11C, symSize: 0x10 }
  - { offset: 0x1827E6, size: 0x8, addend: 0x0, symName: __ZN4llvm3sys4path3endENS_9StringRefE, symObjAddr: 0xBC, symBinAddr: 0x2C11C, symSize: 0x10 }
  - { offset: 0x182824, size: 0x8, addend: 0x0, symName: __ZN4llvm3sys4path12is_separatorEc, symObjAddr: 0x200, symBinAddr: 0x2C260, symSize: 0xC }
  - { offset: 0x1828EA, size: 0x8, addend: 0x0, symName: __ZN4llvm3sys4path6rbeginENS_9StringRefE, symObjAddr: 0x248, symBinAddr: 0x2C2A8, symSize: 0x4C }
  - { offset: 0x1829AD, size: 0x8, addend: 0x0, symName: __ZN4llvm3sys4path4rendENS_9StringRefE, symObjAddr: 0x46C, symBinAddr: 0x2C4CC, symSize: 0x10 }
  - { offset: 0x182A15, size: 0x8, addend: 0x0, symName: __ZN4llvm3sys4path9root_pathENS_9StringRefE, symObjAddr: 0x4FC, symBinAddr: 0x2C55C, symSize: 0x1C8 }
  - { offset: 0x182EB2, size: 0x8, addend: 0x0, symName: __ZN4llvm3sys4path9root_nameENS_9StringRefE, symObjAddr: 0x6C4, symBinAddr: 0x2C724, symSize: 0xD4 }
  - { offset: 0x183117, size: 0x8, addend: 0x0, symName: __ZN4llvm3sys4path14root_directoryENS_9StringRefE, symObjAddr: 0x798, symBinAddr: 0x2C7F8, symSize: 0x1B0 }
  - { offset: 0x18358F, size: 0x8, addend: 0x0, symName: __ZN4llvm3sys4path13relative_pathENS_9StringRefE, symObjAddr: 0x948, symBinAddr: 0x2C9A8, symSize: 0x34 }
  - { offset: 0x183608, size: 0x8, addend: 0x0, symName: __ZN4llvm3sys4path6appendERNS_15SmallVectorImplIcEERKNS_5TwineES7_S7_S7_, symObjAddr: 0x97C, symBinAddr: 0x2C9DC, symSize: 0x730 }
  - { offset: 0x1856CE, size: 0x8, addend: 0x0, symName: __ZN4llvm3sys4path13has_root_nameERKNS_5TwineE, symObjAddr: 0x10AC, symBinAddr: 0x2D10C, symSize: 0x1A8 }
  - { offset: 0x185D61, size: 0x8, addend: 0x0, symName: __ZN4llvm3sys4path6appendERNS_15SmallVectorImplIcEENS1_14const_iteratorES5_, symObjAddr: 0x1254, symBinAddr: 0x2D2B4, symSize: 0xA0 }
  - { offset: 0x185F9A, size: 0x8, addend: 0x0, symName: __ZN4llvm3sys4path11parent_pathENS_9StringRefE, symObjAddr: 0x12F4, symBinAddr: 0x2D354, symSize: 0x38 }
  - { offset: 0x185FE2, size: 0x8, addend: 0x0, symName: __ZN4llvm3sys4path15remove_filenameERNS_15SmallVectorImplIcEE, symObjAddr: 0x14D8, symBinAddr: 0x2D538, symSize: 0x3C }
  - { offset: 0x1860AD, size: 0x8, addend: 0x0, symName: __ZN4llvm3sys4path17replace_extensionERNS_15SmallVectorImplIcEERKNS_5TwineE, symObjAddr: 0x1514, symBinAddr: 0x2D574, symSize: 0x28C }
  - { offset: 0x186A15, size: 0x8, addend: 0x0, symName: __ZN4llvm3sys4path6nativeERKNS_5TwineERNS_15SmallVectorImplIcEE, symObjAddr: 0x17A0, symBinAddr: 0x2D800, symSize: 0x78 }
  - { offset: 0x186AEC, size: 0x8, addend: 0x0, symName: __ZN4llvm3sys4path6nativeERNS_15SmallVectorImplIcEE, symObjAddr: 0x1818, symBinAddr: 0x2D878, symSize: 0x54 }
  - { offset: 0x186B08, size: 0x8, addend: 0x0, symName: __ZN4llvm3sys4path6nativeERNS_15SmallVectorImplIcEE, symObjAddr: 0x1818, symBinAddr: 0x2D878, symSize: 0x54 }
  - { offset: 0x186B32, size: 0x8, addend: 0x0, symName: __ZN4llvm3sys4path6nativeERNS_15SmallVectorImplIcEE, symObjAddr: 0x1818, symBinAddr: 0x2D878, symSize: 0x54 }
  - { offset: 0x186B8E, size: 0x8, addend: 0x0, symName: __ZN4llvm3sys4path8filenameENS_9StringRefE, symObjAddr: 0x186C, symBinAddr: 0x2D8CC, symSize: 0x30 }
  - { offset: 0x186C8C, size: 0x8, addend: 0x0, symName: __ZN4llvm3sys4path4stemENS_9StringRefE, symObjAddr: 0x189C, symBinAddr: 0x2D8FC, symSize: 0x90 }
  - { offset: 0x186EC9, size: 0x8, addend: 0x0, symName: __ZN4llvm3sys4path9extensionENS_9StringRefE, symObjAddr: 0x192C, symBinAddr: 0x2D98C, symSize: 0x98 }
  - { offset: 0x18711B, size: 0x8, addend: 0x0, symName: __ZN4llvm3sys4path13get_separatorEv, symObjAddr: 0x19C4, symBinAddr: 0x2DA24, symSize: 0x10 }
  - { offset: 0x18713A, size: 0x8, addend: 0x0, symName: __ZN4llvm3sys4path18has_root_directoryERKNS_5TwineE, symObjAddr: 0x19D4, symBinAddr: 0x2DA34, symSize: 0x148 }
  - { offset: 0x18763F, size: 0x8, addend: 0x0, symName: __ZN4llvm3sys4path13has_root_pathERKNS_5TwineE, symObjAddr: 0x1B1C, symBinAddr: 0x2DB7C, symSize: 0x148 }
  - { offset: 0x187B6E, size: 0x8, addend: 0x0, symName: __ZN4llvm3sys4path17has_relative_pathERKNS_5TwineE, symObjAddr: 0x1C64, symBinAddr: 0x2DCC4, symSize: 0x14C }
  - { offset: 0x18809C, size: 0x8, addend: 0x0, symName: __ZN4llvm3sys4path12has_filenameERKNS_5TwineE, symObjAddr: 0x1DB0, symBinAddr: 0x2DE10, symSize: 0x150 }
  - { offset: 0x188675, size: 0x8, addend: 0x0, symName: __ZN4llvm3sys4path15has_parent_pathERKNS_5TwineE, symObjAddr: 0x1F00, symBinAddr: 0x2DF60, symSize: 0x158 }
  - { offset: 0x188BB1, size: 0x8, addend: 0x0, symName: __ZN4llvm3sys4path8has_stemERKNS_5TwineE, symObjAddr: 0x2058, symBinAddr: 0x2E0B8, symSize: 0x1AC }
  - { offset: 0x1892E7, size: 0x8, addend: 0x0, symName: __ZN4llvm3sys4path13has_extensionERKNS_5TwineE, symObjAddr: 0x2204, symBinAddr: 0x2E264, symSize: 0x1A8 }
  - { offset: 0x1899B3, size: 0x8, addend: 0x0, symName: __ZN4llvm3sys4path11is_absoluteERKNS_5TwineE, symObjAddr: 0x23AC, symBinAddr: 0x2E40C, symSize: 0x138 }
  - { offset: 0x189F1E, size: 0x8, addend: 0x0, symName: __ZN4llvm3sys4path11is_relativeERKNS_5TwineE, symObjAddr: 0x24E4, symBinAddr: 0x2E544, symSize: 0x18 }
  - { offset: 0x189F66, size: 0x8, addend: 0x0, symName: __ZN4llvm3sys4path21system_temp_directoryEbRNS_15SmallVectorImplIcEE, symObjAddr: 0x5518, symBinAddr: 0x314C8, symSize: 0x1E0 }
  - { offset: 0x18A4D3, size: 0x8, addend: 0x0, symName: __ZN4llvm3sys4path14home_directoryERNS_15SmallVectorImplIcEE, symObjAddr: 0x5478, symBinAddr: 0x31428, symSize: 0xA0 }
  - { offset: 0x18AA7F, size: 0x8, addend: 0x0, symName: __ZN4llvm4COFFL11BigObjMagicE, symObjAddr: 0x5D2E, symBinAddr: 0x1DF98A, symSize: 0x0 }
  - { offset: 0x18AA99, size: 0x8, addend: 0x0, symName: __ZN4llvm4COFFL7PEMagicE, symObjAddr: 0x5D47, symBinAddr: 0x1DF9A3, symSize: 0x0 }
  - { offset: 0x18CF80, size: 0x8, addend: 0x0, symName: __ZN12_GLOBAL__N_115parent_path_endEN4llvm9StringRefE, symObjAddr: 0x132C, symBinAddr: 0x2D38C, symSize: 0x1AC }
  - { offset: 0x191280, size: 0x8, addend: 0x0, symName: __ZN4llvm3sys4path14const_iteratorppEv, symObjAddr: 0xCC, symBinAddr: 0x2C12C, symSize: 0x134 }
  - { offset: 0x191546, size: 0x8, addend: 0x0, symName: __ZNK4llvm3sys4path14const_iteratoreqERKS2_, symObjAddr: 0x20C, symBinAddr: 0x2C26C, symSize: 0x2C }
  - { offset: 0x191574, size: 0x8, addend: 0x0, symName: __ZNK4llvm3sys4path14const_iteratoreqERKS2_, symObjAddr: 0x20C, symBinAddr: 0x2C26C, symSize: 0x2C }
  - { offset: 0x1915AF, size: 0x8, addend: 0x0, symName: __ZNK4llvm3sys4path14const_iteratormiERKS2_, symObjAddr: 0x238, symBinAddr: 0x2C298, symSize: 0x10 }
  - { offset: 0x19164F, size: 0x8, addend: 0x0, symName: __ZN4llvm3sys4path16reverse_iteratorppEv, symObjAddr: 0x294, symBinAddr: 0x2C2F4, symSize: 0x1D8 }
  - { offset: 0x191AD6, size: 0x8, addend: 0x0, symName: __ZNK4llvm3sys4path16reverse_iteratoreqERKS2_, symObjAddr: 0x47C, symBinAddr: 0x2C4DC, symSize: 0x80 }
  - { offset: 0x191B14, size: 0x8, addend: 0x0, symName: __ZNK4llvm3sys4path16reverse_iteratoreqERKS2_, symObjAddr: 0x47C, symBinAddr: 0x2C4DC, symSize: 0x80 }
  - { offset: 0x192651, size: 0x8, addend: 0x0, symName: __ZNK4llvm3sys2fs11file_status11getUniqueIDEv, symObjAddr: 0x2620, symBinAddr: 0x2E680, symSize: 0x10 }
  - { offset: 0x192674, size: 0x8, addend: 0x0, symName: __ZL18createUniqueEntityRKN4llvm5TwineERiRNS_15SmallVectorImplIcEEbj8FSEntity, symObjAddr: 0x2640, symBinAddr: 0x2E6A0, symSize: 0x3C0 }
  - { offset: 0x19390D, size: 0x8, addend: 0x0, symName: __ZN4llvm15SmallVectorImplIcE4swapERS1_, symObjAddr: 0x3144, symBinAddr: 0x2F1A4, symSize: 0x194 }
  - { offset: 0x194664, size: 0x8, addend: 0x0, symName: __ZN4llvm3sys2fs15directory_entry16replace_filenameERKNS_5TwineENS1_11file_statusE, symObjAddr: 0x3C4C, symBinAddr: 0x2FCAC, symSize: 0x2D4 }
  - { offset: 0x19517D, size: 0x8, addend: 0x0, symName: __ZNK4llvm3sys2fs15directory_entry6statusERNS1_11file_statusE, symObjAddr: 0x43EC, symBinAddr: 0x3044C, symSize: 0x2C }
  - { offset: 0x1952F0, size: 0x8, addend: 0x0, symName: __ZNK4llvm3sys2fs11file_status23getLastModificationTimeEv, symObjAddr: 0x451C, symBinAddr: 0x3057C, symSize: 0x40 }
  - { offset: 0x195480, size: 0x8, addend: 0x0, symName: __ZN4llvm3sys2fs18mapped_file_region4initEiyNS2_7mapmodeE, symObjAddr: 0x4D94, symBinAddr: 0x30DF4, symSize: 0x7C }
  - { offset: 0x1955D8, size: 0x8, addend: 0x0, symName: __ZN4llvm3sys2fs18mapped_file_regionC2EiNS2_7mapmodeEyyRNSt3__110error_codeE, symObjAddr: 0x4E10, symBinAddr: 0x30E70, symSize: 0x90 }
  - { offset: 0x195752, size: 0x8, addend: 0x0, symName: __ZN4llvm3sys2fs18mapped_file_regionD2Ev, symObjAddr: 0x4F30, symBinAddr: 0x30F00, symSize: 0x38 }
  - { offset: 0x1957BF, size: 0x8, addend: 0x0, symName: __ZN4llvm3sys2fs18mapped_file_regionD1Ev, symObjAddr: 0x4F78, symBinAddr: 0x30F38, symSize: 0x38 }
  - { offset: 0x195818, size: 0x8, addend: 0x0, symName: __ZNK4llvm3sys2fs18mapped_file_region4dataEv, symObjAddr: 0x4FB8, symBinAddr: 0x30F70, symSize: 0x8 }
  - { offset: 0x195842, size: 0x8, addend: 0x0, symName: __ZN4llvm3sys2fs18mapped_file_region9alignmentEv, symObjAddr: 0x4FC8, symBinAddr: 0x30F78, symSize: 0x4 }
  - { offset: 0x19C9B7, size: 0x8, addend: 0x0, symName: __ZN4llvm3sys7Process11getPageSizeEv, symObjAddr: 0x580, symBinAddr: 0x31D70, symSize: 0x30 }
  - { offset: 0x19C9D9, size: 0x8, addend: 0x0, symName: __MergedGlobals, symObjAddr: 0x2A7B8, symBinAddr: 0x234C00, symSize: 0x0 }
  - { offset: 0x19CA08, size: 0x8, addend: 0x0, symName: __ZL10colorcodes, symObjAddr: 0xFBE, symBinAddr: 0x1DF9B0, symSize: 0x0 }
  - { offset: 0x19D575, size: 0x8, addend: 0x0, symName: __ZN4llvm3sys7Process13FindInEnvPathERKNSt3__112basic_stringIcNS2_11char_traitsIcEENS2_9allocatorIcEEEESA_, symObjAddr: 0x0, symBinAddr: 0x317F0, symSize: 0x3BC }
  - { offset: 0x19E82B, size: 0x8, addend: 0x0, symName: __ZN4llvm3sys7Process6GetEnvENS_9StringRefE, symObjAddr: 0x3BC, symBinAddr: 0x31BAC, symSize: 0x1C4 }
  - { offset: 0x19F1E7, size: 0x8, addend: 0x0, symName: __ZN4llvm3sys7Process11getPageSizeEv.cold.1, symObjAddr: 0xE58, symBinAddr: 0x1DD824, symSize: 0x3C }
  - { offset: 0x19F1FF, size: 0x8, addend: 0x0, symName: __ZN4llvm3sys7Process14GetMallocUsageEv, symObjAddr: 0x5B0, symBinAddr: 0x31DA0, symSize: 0x28 }
  - { offset: 0x19FBF9, size: 0x8, addend: 0x0, symName: __ZN4llvm3sys7Process12GetTimeUsageERNS0_9TimeValueES3_S3_, symObjAddr: 0x5D8, symBinAddr: 0x31DC8, symSize: 0xB0 }
  - { offset: 0x19FE07, size: 0x8, addend: 0x0, symName: __ZN4llvm3sys7Process16PreventCoreFilesEv, symObjAddr: 0x688, symBinAddr: 0x31E78, symSize: 0x124 }
  - { offset: 0x1A02B6, size: 0x8, addend: 0x0, symName: __ZN4llvm3sys7Process17GetArgumentVectorERNS_15SmallVectorImplIPKcEENS_8ArrayRefIS4_EERNS_24SpecificBumpPtrAllocatorIcEE, symObjAddr: 0x7AC, symBinAddr: 0x31F9C, symSize: 0x8C }
  - { offset: 0x1A05C1, size: 0x8, addend: 0x0, symName: __ZN4llvm3sys7Process28FixupStandardFileDescriptorsEv, symObjAddr: 0x838, symBinAddr: 0x32028, symSize: 0x2C8 }
  - { offset: 0x1A09AF, size: 0x8, addend: 0x0, symName: __ZN12_GLOBAL__N_18FDCloserD1Ev, symObjAddr: 0xB00, symBinAddr: 0x322F0, symSize: 0x3C }
  - { offset: 0x1A09F8, size: 0x8, addend: 0x0, symName: __ZN4llvm3sys7Process25SafelyCloseFileDescriptorEi, symObjAddr: 0xB3C, symBinAddr: 0x3232C, symSize: 0x94 }
  - { offset: 0x1A0B60, size: 0x8, addend: 0x0, symName: __ZN4llvm3sys7Process21StandardInIsUserInputEv, symObjAddr: 0xBD0, symBinAddr: 0x323C0, symSize: 0x20 }
  - { offset: 0x1A0BBE, size: 0x8, addend: 0x0, symName: __ZN4llvm3sys7Process25FileDescriptorIsDisplayedEi, symObjAddr: 0xBF0, symBinAddr: 0x323E0, symSize: 0x1C }
  - { offset: 0x1A0BF4, size: 0x8, addend: 0x0, symName: __ZN4llvm3sys7Process22StandardOutIsDisplayedEv, symObjAddr: 0xC0C, symBinAddr: 0x323FC, symSize: 0x20 }
  - { offset: 0x1A0C3C, size: 0x8, addend: 0x0, symName: __ZN4llvm3sys7Process22StandardErrIsDisplayedEv, symObjAddr: 0xC2C, symBinAddr: 0x3241C, symSize: 0x20 }
  - { offset: 0x1A0D1B, size: 0x8, addend: 0x0, symName: __ZN4llvm3sys7Process18StandardOutColumnsEv, symObjAddr: 0xC4C, symBinAddr: 0x3243C, symSize: 0x64 }
  - { offset: 0x1A0E4E, size: 0x8, addend: 0x0, symName: __ZN4llvm3sys7Process18StandardErrColumnsEv, symObjAddr: 0xCB0, symBinAddr: 0x324A0, symSize: 0x64 }
  - { offset: 0x1A0F4C, size: 0x8, addend: 0x0, symName: __ZN4llvm3sys7Process23FileDescriptorHasColorsEi, symObjAddr: 0xD14, symBinAddr: 0x32504, symSize: 0x18 }
  - { offset: 0x1A0FB8, size: 0x8, addend: 0x0, symName: __ZN4llvm3sys7Process20StandardOutHasColorsEv, symObjAddr: 0xD2C, symBinAddr: 0x3251C, symSize: 0x1C }
  - { offset: 0x1A1021, size: 0x8, addend: 0x0, symName: __ZN4llvm3sys7Process20StandardErrHasColorsEv, symObjAddr: 0xD48, symBinAddr: 0x32538, symSize: 0x1C }
  - { offset: 0x1A108A, size: 0x8, addend: 0x0, symName: __ZN4llvm3sys7Process15ColorNeedsFlushEv, symObjAddr: 0xD68, symBinAddr: 0x32554, symSize: 0x8 }
  - { offset: 0x1A10A1, size: 0x8, addend: 0x0, symName: __ZN4llvm3sys7Process11OutputColorEcbb, symObjAddr: 0xD70, symBinAddr: 0x3255C, symSize: 0x28 }
  - { offset: 0x1A10F2, size: 0x8, addend: 0x0, symName: __ZN4llvm3sys7Process10OutputBoldEb, symObjAddr: 0xD98, symBinAddr: 0x32584, symSize: 0xC }
  - { offset: 0x1A111B, size: 0x8, addend: 0x0, symName: __ZN4llvm3sys7Process13OutputReverseEv, symObjAddr: 0xDA4, symBinAddr: 0x32590, symSize: 0xC }
  - { offset: 0x1A1132, size: 0x8, addend: 0x0, symName: __ZN4llvm3sys7Process10ResetColorEv, symObjAddr: 0xDB0, symBinAddr: 0x3259C, symSize: 0xC }
  - { offset: 0x1A1149, size: 0x8, addend: 0x0, symName: __ZN4llvm3sys7Process15GetRandomNumberEv, symObjAddr: 0xDBC, symBinAddr: 0x325A8, symSize: 0x4 }
  - { offset: 0x1A1164, size: 0x8, addend: 0x0, symName: __ZN4llvm3sys7Process15GetRandomNumberEv, symObjAddr: 0xDBC, symBinAddr: 0x325A8, symSize: 0x4 }
  - { offset: 0x1A30FC, size: 0x8, addend: 0x0, symName: __ZN4llvm3sys14ExecuteAndWaitENS_9StringRefEPPKcS4_PPKS1_jjPNSt3__112basic_stringIcNS8_11char_traitsIcEENS8_9allocatorIcEEEEPb, symObjAddr: 0x0, symBinAddr: 0x325AC, symSize: 0x90 }
  - { offset: 0x1A3114, size: 0x8, addend: 0x0, symName: __ZN4llvm3sys30argumentsFitWithinSystemLimitsENS_8ArrayRefIPKcEE, symObjAddr: 0x186C, symBinAddr: 0x33DF4, symSize: 0xD0 }
  - { offset: 0x1A3140, size: 0x8, addend: 0x0, symName: __ZZN4llvm3sys30argumentsFitWithinSystemLimitsENS_8ArrayRefIPKcEEE6ArgMax, symObjAddr: 0x38DC0, symBinAddr: 0x234C10, symSize: 0x0 }
  - { offset: 0x1A3287, size: 0x8, addend: 0x0, symName: __ZN4llvm3sys14ExecuteAndWaitENS_9StringRefEPPKcS4_PPKS1_jjPNSt3__112basic_stringIcNS8_11char_traitsIcEENS8_9allocatorIcEEEEPb, symObjAddr: 0x0, symBinAddr: 0x325AC, symSize: 0x90 }
  - { offset: 0x1A3400, size: 0x8, addend: 0x0, symName: __ZN4llvm3sys4WaitERKNS0_11ProcessInfoEjbPNSt3__112basic_stringIcNS4_11char_traitsIcEENS4_9allocatorIcEEEE, symObjAddr: 0xC24, symBinAddr: 0x331D0, symSize: 0x348 }
  - { offset: 0x1A3ECC, size: 0x8, addend: 0x0, symName: __ZN4llvm3sys13ExecuteNoWaitENS_9StringRefEPPKcS4_PPKS1_jPNSt3__112basic_stringIcNS8_11char_traitsIcEENS8_9allocatorIcEEEEPb, symObjAddr: 0xF6C, symBinAddr: 0x33518, symSize: 0x70 }
  - { offset: 0x1A3FD1, size: 0x8, addend: 0x0, symName: __ZN4llvm3sys17findProgramByNameENS_9StringRefENS_8ArrayRefIS1_EE, symObjAddr: 0xFE4, symBinAddr: 0x33588, symSize: 0x414 }
  - { offset: 0x1A51CA, size: 0x8, addend: 0x0, symName: __ZN4llvm3sys19ChangeStdinToBinaryEv, symObjAddr: 0x174C, symBinAddr: 0x33CF0, symSize: 0x1C }
  - { offset: 0x1A5224, size: 0x8, addend: 0x0, symName: __ZN4llvm3sys21writeFileWithEncodingENS_9StringRefES1_NS0_21WindowsEncodingMethodE, symObjAddr: 0x1784, symBinAddr: 0x33D0C, symSize: 0xE8 }
  - { offset: 0x1A5CCA, size: 0x8, addend: 0x0, symName: __ZN4llvmL10RedirectIOEPKNS_9StringRefEiPNSt3__112basic_stringIcNS3_11char_traitsIcEENS3_9allocatorIcEEEE, symObjAddr: 0x19C4, symBinAddr: 0x33EC4, symSize: 0x328 }
  - { offset: 0x1A6B99, size: 0x8, addend: 0x0, symName: __ZN4llvmL15SetMemoryLimitsEj, symObjAddr: 0x1CEC, symBinAddr: 0x341EC, symSize: 0x78 }
  - { offset: 0x1A75F8, size: 0x8, addend: 0x0, symName: __ZN4llvmL14TimeOutHandlerEi, symObjAddr: 0x1498, symBinAddr: 0x33A3C, symSize: 0x4 }
  - { offset: 0x1AA923, size: 0x8, addend: 0x0, symName: __ZL7ExecuteRN4llvm3sys11ProcessInfoENS_9StringRefEPPKcS6_PPKS3_jPNSt3__112basic_stringIcNSA_11char_traitsIcEENSA_9allocatorIcEEEE, symObjAddr: 0x98, symBinAddr: 0x32644, symSize: 0xB8C }
  - { offset: 0x1AD451, size: 0x8, addend: 0x0, symName: __ZN4llvm3sys11ProcessInfoC1Ev, symObjAddr: 0x90, symBinAddr: 0x3263C, symSize: 0x8 }
  - { offset: 0x1AD475, size: 0x8, addend: 0x0, symName: __ZN4llvm3sys11ProcessInfoC1Ev, symObjAddr: 0x90, symBinAddr: 0x3263C, symSize: 0x8 }
  - { offset: 0x1AD9FC, size: 0x8, addend: 0x0, symName: __ZL10MakeErrMsgPNSt3__112basic_stringIcNS_11char_traitsIcEENS_9allocatorIcEEEERKS5_i, symObjAddr: 0x149C, symBinAddr: 0x33A40, symSize: 0x208 }
  - { offset: 0x1AE3AB, size: 0x8, addend: 0x0, symName: __ZNSt3__112basic_stringIcNS_11char_traitsIcEENS_9allocatorIcEEEC1B9nqe210106ILi0EEEPKc, symObjAddr: 0x16A4, symBinAddr: 0x33C48, symSize: 0xA8 }
  - { offset: 0x1AE629, size: 0x8, addend: 0x0, symName: __ZN4llvm3sys19ChangeStdinToBinaryEv, symObjAddr: 0x174C, symBinAddr: 0x33CF0, symSize: 0x1C }
  - { offset: 0x1AE6DD, size: 0x8, addend: 0x0, symName: __ZNK4llvm9StringRefcvNSt3__112basic_stringIcNS1_11char_traitsIcEENS1_9allocatorIcEEEEEv, symObjAddr: 0x13F8, symBinAddr: 0x3399C, symSize: 0xA0 }
  - { offset: 0x1AE992, size: 0x8, addend: 0x0, symName: __ZN4llvmL14TimeOutHandlerEi, symObjAddr: 0x1498, symBinAddr: 0x33A3C, symSize: 0x4 }
  - { offset: 0x1B1562, size: 0x8, addend: 0x0, symName: __ZN4llvm3sys15PrintStackTraceERNS_11raw_ostreamE, symObjAddr: 0xBC8, symBinAddr: 0x34D08, symSize: 0x464 }
  - { offset: 0x1B158A, size: 0x8, addend: 0x0, symName: __ZZN4llvm3sys15PrintStackTraceERNS_11raw_ostreamEE10StackTrace, symObjAddr: 0x564F8, symBinAddr: 0x234C28, symSize: 0x0 }
  - { offset: 0x1B2825, size: 0x8, addend: 0x0, symName: __ZN4llvm3sys20RunInterruptHandlersEv, symObjAddr: 0x0, symBinAddr: 0x34264, symSize: 0xB4 }
  - { offset: 0x1B29FD, size: 0x8, addend: 0x0, symName: __ZN4llvm3sys20SetInterruptFunctionEPFvvE, symObjAddr: 0x1D4, symBinAddr: 0x34438, symSize: 0x9C }
  - { offset: 0x1B2BB7, size: 0x8, addend: 0x0, symName: __ZN4llvm3sys18RemoveFileOnSignalENS_9StringRefEPNSt3__112basic_stringIcNS2_11char_traitsIcEENS2_9allocatorIcEEEE, symObjAddr: 0x4DC, symBinAddr: 0x34740, symSize: 0x1C0 }
  - { offset: 0x1B331D, size: 0x8, addend: 0x0, symName: __ZN4llvm3sys22DontRemoveFileOnSignalENS_9StringRefE, symObjAddr: 0x7C0, symBinAddr: 0x34900, symSize: 0x2B4 }
  - { offset: 0x1B3F3B, size: 0x8, addend: 0x0, symName: __ZN4llvm3sys16AddSignalHandlerEPFvPvES1_, symObjAddr: 0xA74, symBinAddr: 0x34BB4, symSize: 0x6C }
  - { offset: 0x1B4099, size: 0x8, addend: 0x0, symName: __ZN4llvm3sys28PrintStackTraceOnErrorSignalEb, symObjAddr: 0x1030, symBinAddr: 0x3516C, symSize: 0xA4 }
  - { offset: 0x1B5632, size: 0x8, addend: 0x0, symName: __ZL12SignalsMutex, symObjAddr: 0x56CF8, symBinAddr: 0x235428, symSize: 0x0 }
  - { offset: 0x1BDE4D, size: 0x8, addend: 0x0, symName: __ZL17InterruptFunction, symObjAddr: 0x564F0, symBinAddr: 0x234C20, symSize: 0x0 }
  - { offset: 0x1BDE6E, size: 0x8, addend: 0x0, symName: __ZL20NumRegisteredSignals, symObjAddr: 0x56D10, symBinAddr: 0x235440, symSize: 0x0 }
  - { offset: 0x1BDE88, size: 0x8, addend: 0x0, symName: __ZL7IntSigs, symObjAddr: 0x1994, symBinAddr: 0x1DFB18, symSize: 0x0 }
  - { offset: 0x1BDEB5, size: 0x8, addend: 0x0, symName: __ZL20RegisteredSignalInfo, symObjAddr: 0x56D18, symBinAddr: 0x235448, symSize: 0x0 }
  - { offset: 0x1BDF03, size: 0x8, addend: 0x0, symName: __ZL8KillSigs, symObjAddr: 0x19AC, symBinAddr: 0x1DFB30, symSize: 0x0 }
  - { offset: 0x1BDF2B, size: 0x8, addend: 0x0, symName: __ZL13FilesToRemove, symObjAddr: 0x56EB0, symBinAddr: 0x2355E0, symSize: 0x0 }
  - { offset: 0x1BE141, size: 0x8, addend: 0x0, symName: __ZL14CallBacksToRun, symObjAddr: 0x56EC8, symBinAddr: 0x2355F8, symSize: 0x0 }
  - { offset: 0x1BE283, size: 0x8, addend: 0x0, symName: __ZTVN4llvm13format_objectIJiEEE, symObjAddr: 0x1A50, symBinAddr: 0x22CC08, symSize: 0x0 }
  - { offset: 0x1BE2E4, size: 0x8, addend: 0x0, symName: __ZTVN4llvm13format_objectIJiPKcEEE, symObjAddr: 0x1A88, symBinAddr: 0x22CC40, symSize: 0x0 }
  - { offset: 0x1BE366, size: 0x8, addend: 0x0, symName: __ZTVN4llvm13format_objectIJimEEE, symObjAddr: 0x1AC0, symBinAddr: 0x22CC78, symSize: 0x0 }
  - { offset: 0x1BE3F9, size: 0x8, addend: 0x0, symName: __ZTVN4llvm13format_objectIJjEEE, symObjAddr: 0x1AF8, symBinAddr: 0x22CCB0, symSize: 0x0 }
  - { offset: 0x1BE856, size: 0x8, addend: 0x0, symName: __ZL19RemoveFilesToRemovev, symObjAddr: 0xB4, symBinAddr: 0x34318, symSize: 0xD8 }
  - { offset: 0x1BEB01, size: 0x8, addend: 0x0, symName: __ZN4llvm3sys15SmartScopedLockILb1EED1Ev, symObjAddr: 0x18C, symBinAddr: 0x343F0, symSize: 0x48 }
  - { offset: 0x1BEC9A, size: 0x8, addend: 0x0, symName: __ZL16RegisterHandlersv, symObjAddr: 0x270, symBinAddr: 0x344D4, symSize: 0x26C }
  - { offset: 0x1BF608, size: 0x8, addend: 0x0, symName: __ZN4llvm3sys22DontRemoveFileOnSignalENS_9StringRefE, symObjAddr: 0x7C0, symBinAddr: 0x34900, symSize: 0x2B4 }
  - { offset: 0x1BFD58, size: 0x8, addend: 0x0, symName: __ZNSt3__16vectorINS_4pairIPFvPvES2_EENS_9allocatorIS5_EEE9push_backB9nqe210106EOS5_, symObjAddr: 0xAE0, symBinAddr: 0x34C20, symSize: 0xE8 }
  - { offset: 0x1C0166, size: 0x8, addend: 0x0, symName: __ZN4llvm3sys15PrintStackTraceERNS_11raw_ostreamE, symObjAddr: 0xBC8, symBinAddr: 0x34D08, symSize: 0x464 }
  - { offset: 0x1C04AE, size: 0x8, addend: 0x0, symName: __ZNK4llvm13format_objectIJiEE7snprintEPcj, symObjAddr: 0x166C, symBinAddr: 0x355AC, symSize: 0x34 }
  - { offset: 0x1C130D, size: 0x8, addend: 0x0, symName: __ZN4llvm14object_creatorINS_3sys10SmartMutexILb1EEEE4callEv, symObjAddr: 0x15D8, symBinAddr: 0x35540, symSize: 0x50 }
  - { offset: 0x1C1351, size: 0x8, addend: 0x0, symName: __ZL28PrintStackTraceSignalHandlerPv, symObjAddr: 0x10D4, symBinAddr: 0x35210, symSize: 0x14 }
  - { offset: 0x1C1392, size: 0x8, addend: 0x0, symName: _raise, symObjAddr: 0x10E8, symBinAddr: 0x35224, symSize: 0x24 }
  - { offset: 0x1C147D, size: 0x8, addend: 0x0, symName: __Z12__assert_rtnPKcS0_iS0_, symObjAddr: 0x110C, symBinAddr: 0x1DD860, symSize: 0x4C }
  - { offset: 0x1C14EE, size: 0x8, addend: 0x0, symName: _abort, symObjAddr: 0x1158, symBinAddr: 0x1DD8AC, symSize: 0x1C }
  - { offset: 0x1C16B0, size: 0x8, addend: 0x0, symName: _abort, symObjAddr: 0x1158, symBinAddr: 0x1DD8AC, symSize: 0x1C }
  - { offset: 0x1C183A, size: 0x8, addend: 0x0, symName: __ZL13SignalHandleri, symObjAddr: 0x121C, symBinAddr: 0x35248, symSize: 0x248 }
  - { offset: 0x1C1F40, size: 0x8, addend: 0x0, symName: __ZN4llvm11unique_lockINS_3sys10SmartMutexILb1EEEED1Ev, symObjAddr: 0x1464, symBinAddr: 0x35490, symSize: 0x54 }
  - { offset: 0x1C200F, size: 0x8, addend: 0x0, symName: __ZN4llvm14object_creatorINSt3__16vectorINS1_4pairIPFvPvES4_EENS1_9allocatorIS7_EEEEE4callEv, symObjAddr: 0x14B8, symBinAddr: 0x354E4, symSize: 0x20 }
  - { offset: 0x1C2107, size: 0x8, addend: 0x0, symName: __ZN4llvm14object_deleterINSt3__16vectorINS1_4pairIPFvPvES4_EENS1_9allocatorIS7_EEEEE4callES4_, symObjAddr: 0x14D8, symBinAddr: 0x35504, symSize: 0x3C }
  - { offset: 0x1C22F3, size: 0x8, addend: 0x0, symName: __ZN4llvm14object_creatorINS_3sys10SmartMutexILb1EEEE4callEv, symObjAddr: 0x15D8, symBinAddr: 0x35540, symSize: 0x50 }
  - { offset: 0x1C2394, size: 0x8, addend: 0x0, symName: __ZN4llvm14object_deleterINS_3sys10SmartMutexILb1EEEE4callEPv, symObjAddr: 0x1628, symBinAddr: 0x35590, symSize: 0x1C }
  - { offset: 0x1C2438, size: 0x8, addend: 0x0, symName: __ZNK4llvm13format_objectIJiEE7snprintEPcj, symObjAddr: 0x166C, symBinAddr: 0x355AC, symSize: 0x34 }
  - { offset: 0x1C253C, size: 0x8, addend: 0x0, symName: __ZNK4llvm13format_objectIJiPKcEE7snprintEPcj, symObjAddr: 0x16A0, symBinAddr: 0x355E0, symSize: 0x38 }
  - { offset: 0x1C2621, size: 0x8, addend: 0x0, symName: __ZNK4llvm13format_objectIJimEE7snprintEPcj, symObjAddr: 0x16D8, symBinAddr: 0x35618, symSize: 0x38 }
  - { offset: 0x1C2700, size: 0x8, addend: 0x0, symName: __ZNK4llvm13format_objectIJjEE7snprintEPcj, symObjAddr: 0x1710, symBinAddr: 0x35650, symSize: 0x34 }
  - { offset: 0x1C445A, size: 0x8, addend: 0x0, symName: __ZN4llvm21llvm_is_multithreadedEv, symObjAddr: 0x0, symBinAddr: 0x35684, symSize: 0x8 }
  - { offset: 0x1C44A3, size: 0x8, addend: 0x0, symName: __ZN4llvm21llvm_is_multithreadedEv, symObjAddr: 0x0, symBinAddr: 0x35684, symSize: 0x8 }
  - { offset: 0x1C44C1, size: 0x8, addend: 0x0, symName: __ZN4llvm22llvm_execute_on_threadEPFvPvES0_j, symObjAddr: 0x8, symBinAddr: 0x3568C, symSize: 0xA4 }
  - { offset: 0x1C46DB, size: 0x8, addend: 0x0, symName: __ZL24ExecuteOnThread_DispatchPv, symObjAddr: 0xAC, symBinAddr: 0x35730, symSize: 0x1C }
  - { offset: 0x1C56E2, size: 0x8, addend: 0x0, symName: __ZN4llvm3sys9TimeValue9normalizeEv, symObjAddr: 0x0, symBinAddr: 0x3574C, symSize: 0xFC }
  - { offset: 0x1C56FB, size: 0x8, addend: 0x0, symName: __ZN4llvm3sys9TimeValue20PosixZeroTimeSecondsE, symObjAddr: 0x420, symBinAddr: 0x1DFBD0, symSize: 0x0 }
  - { offset: 0x1C5AD8, size: 0x8, addend: 0x0, symName: __ZN4llvm3sys9TimeValue20Win32ZeroTimeSecondsE, symObjAddr: 0x428, symBinAddr: 0x1DFBD8, symSize: 0x0 }
  - { offset: 0x1C8814, size: 0x8, addend: 0x0, symName: __ZN4llvm3sys9TimeValue9normalizeEv, symObjAddr: 0x0, symBinAddr: 0x3574C, symSize: 0xFC }
  - { offset: 0x1C8A0F, size: 0x8, addend: 0x0, symName: __ZNK4llvm3sys9TimeValue3strEv, symObjAddr: 0xFC, symBinAddr: 0x35848, symSize: 0x12C }
  - { offset: 0x1C8E97, size: 0x8, addend: 0x0, symName: __ZN4llvm3sys9TimeValue3nowEv, symObjAddr: 0x228, symBinAddr: 0x35974, symSize: 0x144 }
  - { offset: 0x1CAE6D, size: 0x8, addend: 0x0, symName: __ZTVN11spirv_cross8Compiler19BufferAccessHandlerE, symObjAddr: 0x25818, symBinAddr: 0x22CE90, symSize: 0x0 }
  - { offset: 0x1D39B8, size: 0x8, addend: 0x0, symName: __ZN11spirv_cross4joinIJRA2_KcRjEEENSt3__112basic_stringIcNS5_11char_traitsIcEENS5_9allocatorIcEEEEDpOT_, symObjAddr: 0x17D8, symBinAddr: 0x37150, symSize: 0x148 }
  - { offset: 0x1D3C92, size: 0x8, addend: 0x0, symName: __ZN11spirv_cross5inner11join_helperIRA2_KcJRjEEEvRNS_12StringStreamILm4096ELm4096EEEOT_DpOT0_, symObjAddr: 0x1769C, symBinAddr: 0x4BAF0, symSize: 0xA8 }
  - { offset: 0x1D401D, size: 0x8, addend: 0x0, symName: __ZN11spirv_cross5inner11join_helperIRA2_KcJRNS_7TypedIDILNS_5TypesE0EEEEEEvRNS_12StringStreamILm4096ELm4096EEEOT_DpOT0_, symObjAddr: 0x19E60, symBinAddr: 0x4DD74, symSize: 0xA8 }
  - { offset: 0x1D442A, size: 0x8, addend: 0x0, symName: __ZN11spirv_cross5inner11join_helperIRKNS_7TypedIDILNS_5TypesE0EEEJRA2_KcRNS2_ILS3_2EEEEEEvRNS_12StringStreamILm4096ELm4096EEEOT_DpOT0_, symObjAddr: 0x19F08, symBinAddr: 0x4DE1C, symSize: 0xA0 }
  - { offset: 0x1D48AE, size: 0x8, addend: 0x0, symName: __ZN11spirv_cross5inner11join_helperIRA2_KcJRNS_7TypedIDILNS_5TypesE2EEEEEEvRNS_12StringStreamILm4096ELm4096EEEOT_DpOT0_, symObjAddr: 0x19FA8, symBinAddr: 0x4DEBC, symSize: 0xA8 }
  - { offset: 0x1D4EAC, size: 0x8, addend: 0x0, symName: __ZN11spirv_cross4joinIJRA2_KcRNS_7TypedIDILNS_5TypesE0EEEEEENSt3__112basic_stringIcNS8_11char_traitsIcEENS8_9allocatorIcEEEEDpOT_, symObjAddr: 0x5C54, symBinAddr: 0x3B5C8, symSize: 0x148 }
  - { offset: 0x1D5181, size: 0x8, addend: 0x0, symName: __ZN11spirv_cross4joinIJRA2_KcRKNS_7TypedIDILNS_5TypesE0EEES3_RNS4_ILS5_2EEEEEENSt3__112basic_stringIcNSB_11char_traitsIcEENSB_9allocatorIcEEEEDpOT_, symObjAddr: 0x5E80, symBinAddr: 0x3B7F4, symSize: 0x178 }
  - { offset: 0x1D55C6, size: 0x8, addend: 0x0, symName: __ZN11spirv_cross4joinIJRA21_KcNSt3__112basic_stringIcNS4_11char_traitsIcEENS4_9allocatorIcEEEESA_EEESA_DpOT_, symObjAddr: 0xB3D4, symBinAddr: 0x40D00, symSize: 0x1A0 }
  - { offset: 0x1F4846, size: 0x8, addend: 0x0, symName: __ZNSt3__1L19piecewise_constructE, symObjAddr: 0x255AC, symBinAddr: 0x1E1D90, symSize: 0x0 }
  - { offset: 0x1F4D06, size: 0x8, addend: 0x0, symName: __ZNSt3__111__introsortINS_17_ClassicAlgPolicyERNS_6__lessIvvEEPN11spirv_cross7TypedIDILNS5_5TypesE0EEELb0EEEvT1_SA_T0_NS_15iterator_traitsISA_E15difference_typeEb, symObjAddr: 0x1A288, symBinAddr: 0x4DF64, symSize: 0x780 }
  - { offset: 0x1F7620, size: 0x8, addend: 0x0, symName: __ZNSt3__127__insertion_sort_incompleteB9nqe210106INS_17_ClassicAlgPolicyERNS_6__lessIvvEEPN11spirv_cross7TypedIDILNS5_5TypesE0EEEEEbT1_SA_T0_, symObjAddr: 0x1AA08, symBinAddr: 0x4E6E4, symSize: 0x31C }
  - { offset: 0x1FF687, size: 0x8, addend: 0x0, symName: __ZNSt3__119__partial_sort_implB9nqe210106INS_17_ClassicAlgPolicyERNS_6__lessIvvEEPN11spirv_cross7TypedIDILNS5_5TypesE0EEES9_EET1_SA_SA_T2_OT0_, symObjAddr: 0x1AD24, symBinAddr: 0x4EA00, symSize: 0x2F0 }
  - { offset: 0x2034F1, size: 0x8, addend: 0x0, symName: __ZN3spv16HasResultAndTypeENS_2OpEPbS1_, symObjAddr: 0x11F4C, symBinAddr: 0x4786C, symSize: 0x54 }
  - { offset: 0x205852, size: 0x8, addend: 0x0, symName: __ZTVN11spirv_cross8Compiler30InterfaceVariableAccessHandlerE, symObjAddr: 0x25898, symBinAddr: 0x22CF10, symSize: 0x0 }
  - { offset: 0x20586C, size: 0x8, addend: 0x0, symName: __ZTVN11spirv_cross8Compiler27CombinedImageSamplerHandlerE, symObjAddr: 0x25908, symBinAddr: 0x22CF80, symSize: 0x0 }
  - { offset: 0x205B69, size: 0x8, addend: 0x0, symName: __ZTVN11spirv_cross8Compiler35DummySamplerForCombinedImageHandlerE, symObjAddr: 0x25978, symBinAddr: 0x22CFF0, symSize: 0x0 }
  - { offset: 0x205B83, size: 0x8, addend: 0x0, symName: __ZTVN11spirv_cross8Compiler20ActiveBuiltinHandlerE, symObjAddr: 0x259E8, symBinAddr: 0x22D060, symSize: 0x0 }
  - { offset: 0x205B9D, size: 0x8, addend: 0x0, symName: __ZTVN11spirv_cross8Compiler31CombinedImageSamplerDrefHandlerE, symObjAddr: 0x25A58, symBinAddr: 0x22D0D0, symSize: 0x0 }
  - { offset: 0x205BB7, size: 0x8, addend: 0x0, symName: __ZTVN11spirv_cross8Compiler32CombinedImageSamplerUsageHandlerE, symObjAddr: 0x25AC8, symBinAddr: 0x22D140, symSize: 0x0 }
  - { offset: 0x205BD1, size: 0x8, addend: 0x0, symName: __ZTVN11spirv_cross8Compiler32InterlockedResourceAccessHandlerE, symObjAddr: 0x25B38, symBinAddr: 0x22D1B0, symSize: 0x0 }
  - { offset: 0x205BEB, size: 0x8, addend: 0x0, symName: __ZTVN11spirv_cross8Compiler39InterlockedResourceAccessPrepassHandlerE, symObjAddr: 0x25BA8, symBinAddr: 0x22D220, symSize: 0x0 }
  - { offset: 0x205C05, size: 0x8, addend: 0x0, symName: __ZTVN11spirv_cross8CompilerE, symObjAddr: 0x25658, symBinAddr: 0x22CCE8, symSize: 0x0 }
  - { offset: 0x205C1A, size: 0x8, addend: 0x0, symName: __ZTVN11spirv_cross8Compiler33AnalyzeVariableScopeAccessHandlerE, symObjAddr: 0x256B8, symBinAddr: 0x22CD30, symSize: 0x0 }
  - { offset: 0x205C2F, size: 0x8, addend: 0x0, symName: __ZTVN11spirv_cross8Compiler29StaticExpressionAccessHandlerE, symObjAddr: 0x25710, symBinAddr: 0x22CD88, symSize: 0x0 }
  - { offset: 0x205C49, size: 0x8, addend: 0x0, symName: __ZTVN11spirv_cross8Compiler10CFGBuilderE, symObjAddr: 0x25768, symBinAddr: 0x22CDE0, symSize: 0x0 }
  - { offset: 0x205C63, size: 0x8, addend: 0x0, symName: __ZTVN11spirv_cross8Compiler35PhysicalStorageBufferPointerHandlerE, symObjAddr: 0x257C0, symBinAddr: 0x22CE38, symSize: 0x0 }
  - { offset: 0x205FDE, size: 0x8, addend: 0x0, symName: __ZTVN11spirv_cross13CompilerErrorE, symObjAddr: 0x25C88, symBinAddr: 0x22D300, symSize: 0x0 }
  - { offset: 0x206002, size: 0x8, addend: 0x0, symName: __ZTVN11spirv_cross8SPIRTypeE, symObjAddr: 0x25CB0, symBinAddr: 0x22D328, symSize: 0x0 }
  - { offset: 0x206017, size: 0x8, addend: 0x0, symName: __ZTVN11spirv_cross12SPIRVariableE, symObjAddr: 0x25D00, symBinAddr: 0x22D378, symSize: 0x0 }
  - { offset: 0x20602C, size: 0x8, addend: 0x0, symName: __ZTVN11spirv_cross14SPIRExpressionE, symObjAddr: 0x25D40, symBinAddr: 0x22D3B8, symSize: 0x0 }
  - { offset: 0x206041, size: 0x8, addend: 0x0, symName: __ZTVN11spirv_cross12SPIRConstantE, symObjAddr: 0x25D80, symBinAddr: 0x22D3F8, symSize: 0x0 }
  - { offset: 0x206054, size: 0x8, addend: 0x0, symName: __ZN11spirv_cross8Compiler30InterfaceVariableAccessHandler6handleEN3spv2OpEPKjj, symObjAddr: 0x3D40, symBinAddr: 0x396B8, symSize: 0x4AC }
  - { offset: 0x207CF9, size: 0x8, addend: 0x0, symName: __ZN11spirv_cross8CompilerC2ENSt3__16vectorIjNS1_9allocatorIjEEEE, symObjAddr: 0x0, symBinAddr: 0x35AB8, symSize: 0x3CC }
  - { offset: 0x20900E, size: 0x8, addend: 0x0, symName: __ZN11spirv_cross8Compiler11parse_fixupEv, symObjAddr: 0x1028, symBinAddr: 0x369A0, symSize: 0x17C }
  - { offset: 0x209037, size: 0x8, addend: 0x0, symName: __ZN11spirv_cross8Compiler11parse_fixupEv, symObjAddr: 0x1028, symBinAddr: 0x369A0, symSize: 0x17C }
  - { offset: 0x209073, size: 0x8, addend: 0x0, symName: __ZN11spirv_cross8Compiler11parse_fixupEv, symObjAddr: 0x1028, symBinAddr: 0x369A0, symSize: 0x17C }
  - { offset: 0x20A167, size: 0x8, addend: 0x0, symName: __ZN11spirv_cross6ParserD1Ev, symObjAddr: 0x3F4, symBinAddr: 0x35EAC, symSize: 0x50 }
  - { offset: 0x20A7DE, size: 0x8, addend: 0x0, symName: __ZNSt3__113unordered_mapIjNS_10unique_ptrIN11spirv_cross3CFGENS_14default_deleteIS3_EEEENS_4hashIjEENS_8equal_toIjEENS_9allocatorINS_4pairIKjS6_EEEEED1B9nqe210106Ev, symObjAddr: 0x53C, symBinAddr: 0x35EFC, symSize: 0x6C }
  - { offset: 0x20AB94, size: 0x8, addend: 0x0, symName: __ZN11spirv_cross6BitsetD1Ev, symObjAddr: 0x5A8, symBinAddr: 0x35F68, symSize: 0x48 }
  - { offset: 0x20AFD5, size: 0x8, addend: 0x0, symName: __ZN11spirv_cross8Compiler6set_irEONS_8ParsedIRE, symObjAddr: 0x3CC, symBinAddr: 0x35E84, symSize: 0x28 }
  - { offset: 0x20C420, size: 0x8, addend: 0x0, symName: __ZN11spirv_cross8CompilerC1ENSt3__16vectorIjNS1_9allocatorIjEEEE, symObjAddr: 0x638, symBinAddr: 0x35FB0, symSize: 0x4 }
  - { offset: 0x20C45D, size: 0x8, addend: 0x0, symName: __ZN11spirv_cross8CompilerC1ENSt3__16vectorIjNS1_9allocatorIjEEEE, symObjAddr: 0x638, symBinAddr: 0x35FB0, symSize: 0x4 }
  - { offset: 0x20C479, size: 0x8, addend: 0x0, symName: __ZN11spirv_cross8CompilerC2EPKjm, symObjAddr: 0x63C, symBinAddr: 0x35FB4, symSize: 0x3A0 }
  - { offset: 0x20D50E, size: 0x8, addend: 0x0, symName: __ZN11spirv_cross8CompilerC1EPKjm, symObjAddr: 0x9DC, symBinAddr: 0x36354, symSize: 0x4 }
  - { offset: 0x20D558, size: 0x8, addend: 0x0, symName: __ZN11spirv_cross8CompilerC1EPKjm, symObjAddr: 0x9DC, symBinAddr: 0x36354, symSize: 0x4 }
  - { offset: 0x20D607, size: 0x8, addend: 0x0, symName: __ZN11spirv_cross8CompilerC2ERKNS_8ParsedIRE, symObjAddr: 0x9E0, symBinAddr: 0x36358, symSize: 0x30C }
  - { offset: 0x20E572, size: 0x8, addend: 0x0, symName: __ZN11spirv_cross8Compiler6set_irERKNS_8ParsedIRE, symObjAddr: 0xCEC, symBinAddr: 0x36664, symSize: 0x28 }
  - { offset: 0x20E5AD, size: 0x8, addend: 0x0, symName: __ZN11spirv_cross8CompilerC1ERKNS_8ParsedIRE, symObjAddr: 0xD14, symBinAddr: 0x3668C, symSize: 0x4 }
  - { offset: 0x20E5E9, size: 0x8, addend: 0x0, symName: __ZN11spirv_cross8CompilerC1ERKNS_8ParsedIRE, symObjAddr: 0xD14, symBinAddr: 0x3668C, symSize: 0x4 }
  - { offset: 0x20E605, size: 0x8, addend: 0x0, symName: __ZN11spirv_cross8CompilerC2EONS_8ParsedIRE, symObjAddr: 0xD18, symBinAddr: 0x36690, symSize: 0x30C }
  - { offset: 0x20F571, size: 0x8, addend: 0x0, symName: __ZN11spirv_cross8CompilerC1EONS_8ParsedIRE, symObjAddr: 0x1024, symBinAddr: 0x3699C, symSize: 0x4 }
  - { offset: 0x20F5AD, size: 0x8, addend: 0x0, symName: __ZN11spirv_cross8CompilerC1EONS_8ParsedIRE, symObjAddr: 0x1024, symBinAddr: 0x3699C, symSize: 0x4 }
  - { offset: 0x20F6ED, size: 0x8, addend: 0x0, symName: __ZN11spirv_cross7Variant3getINS_12SPIRConstantEEERT_v, symObjAddr: 0x47E0, symBinAddr: 0x3A154, symSize: 0x88 }
  - { offset: 0x20F765, size: 0x8, addend: 0x0, symName: __ZN11spirv_cross7Variant3getINS_12SPIRVariableEEERT_v, symObjAddr: 0x4874, symBinAddr: 0x3A1E8, symSize: 0x88 }
  - { offset: 0x20F7DD, size: 0x8, addend: 0x0, symName: __ZN11spirv_cross11SmallVectorIjLm8EE7reserveEm, symObjAddr: 0x12D50, symBinAddr: 0x48670, symSize: 0x14C }
  - { offset: 0x20F870, size: 0x8, addend: 0x0, symName: __ZN11spirv_cross8Compiler27variable_storage_is_aliasedERKNS_12SPIRVariableE, symObjAddr: 0x11B0, symBinAddr: 0x36B28, symSize: 0x108 }
  - { offset: 0x20FDF5, size: 0x8, addend: 0x0, symName: __ZN11spirv_cross8Compiler7compileEv, symObjAddr: 0x11A4, symBinAddr: 0x36B1C, symSize: 0xC }
  - { offset: 0x20FE1D, size: 0x8, addend: 0x0, symName: __ZN11spirv_cross8Compiler7compileEv, symObjAddr: 0x11A4, symBinAddr: 0x36B1C, symSize: 0xC }
  - { offset: 0x20FE3A, size: 0x8, addend: 0x0, symName: __ZN11spirv_cross8Compiler7compileEv, symObjAddr: 0x11A4, symBinAddr: 0x36B1C, symSize: 0xC }
  - { offset: 0x20FE58, size: 0x8, addend: 0x0, symName: __ZN11spirv_cross8Compiler7compileEv, symObjAddr: 0x11A4, symBinAddr: 0x36B1C, symSize: 0xC }
  - { offset: 0x20FE87, size: 0x8, addend: 0x0, symName: __ZN11spirv_cross8Compiler7compileEv, symObjAddr: 0x11A4, symBinAddr: 0x36B1C, symSize: 0xC }
  - { offset: 0x20FF7C, size: 0x8, addend: 0x0, symName: __ZN11spirv_cross7Variant3getINS_8SPIRTypeEEERT_v, symObjAddr: 0x17F80, symBinAddr: 0x4C330, symSize: 0x88 }
  - { offset: 0x210006, size: 0x8, addend: 0x0, symName: __ZNSt3__112__hash_tableINS_17__hash_value_typeIN11spirv_cross7TypedIDILNS2_5TypesE0EEENS2_4MetaEEENS_22__unordered_map_hasherIS5_NS_4pairIKS5_S6_EENS_4hashIS5_EENS_8equal_toIS5_EELb1EEENS_21__unordered_map_equalIS5_SB_SF_SD_Lb1EEENS_9allocatorISB_EEE25__emplace_unique_key_argsIS5_JRKNS_21piecewise_construct_tENS_5tupleIJRSA_EEENSQ_IJEEEEEENS9_INS_15__hash_iteratorIPNS_11__hash_nodeIS7_PvEEEEbEERKT_DpOT0_, symObjAddr: 0x18008, symBinAddr: 0x4C3B8, symSize: 0x380 }
  - { offset: 0x210BA5, size: 0x8, addend: 0x0, symName: __ZNK11spirv_cross8Compiler14has_decorationENS_7TypedIDILNS_5TypesE0EEEN3spv10DecorationE, symObjAddr: 0x12B8, symBinAddr: 0x36C30, symSize: 0xC }
  - { offset: 0x210E0C, size: 0x8, addend: 0x0, symName: __ZN11spirv_cross8Compiler13block_is_pureERKNS_9SPIRBlockE, symObjAddr: 0x12C4, symBinAddr: 0x36C3C, symSize: 0x254 }
  - { offset: 0x2112C8, size: 0x8, addend: 0x0, symName: __ZN11spirv_cross7Variant3getINS_12SPIRFunctionEEERT_v, symObjAddr: 0x18508, symBinAddr: 0x4C780, symSize: 0x88 }
  - { offset: 0x211340, size: 0x8, addend: 0x0, symName: __ZN11spirv_cross7Variant3getINS_9SPIRBlockEEERT_v, symObjAddr: 0x186A0, symBinAddr: 0x4C918, symSize: 0x88 }
  - { offset: 0x2113B8, size: 0x8, addend: 0x0, symName: __ZNK11spirv_cross8Compiler18expression_type_idEj, symObjAddr: 0x2598, symBinAddr: 0x37F10, symSize: 0xE8 }
  - { offset: 0x21164F, size: 0x8, addend: 0x0, symName: __ZNK11spirv_cross7Variant3getINS_8SPIRTypeEEERKT_v, symObjAddr: 0x18618, symBinAddr: 0x4C890, symSize: 0x88 }
  - { offset: 0x2116C7, size: 0x8, addend: 0x0, symName: __ZN11spirv_cross7Variant3getINS_13SPIRExtensionEEERT_v, symObjAddr: 0x18590, symBinAddr: 0x4C808, symSize: 0x88 }
  - { offset: 0x21173F, size: 0x8, addend: 0x0, symName: __ZN11spirv_cross13CompilerErrorC1EPKc, symObjAddr: 0x2680, symBinAddr: 0x37FF8, symSize: 0x24 }
  - { offset: 0x2117A0, size: 0x8, addend: 0x0, symName: __ZN11spirv_cross8Compiler13block_is_pureERKNS_9SPIRBlockE.cold.1, symObjAddr: 0x22180, symBinAddr: 0x1DD8C8, symSize: 0xC }
  - { offset: 0x2117B8, size: 0x8, addend: 0x0, symName: __ZN11spirv_cross8Compiler16function_is_pureERKNS_12SPIRFunctionE, symObjAddr: 0x1518, symBinAddr: 0x36E90, symSize: 0x70 }
  - { offset: 0x2117E4, size: 0x8, addend: 0x0, symName: __ZN11spirv_cross8Compiler16function_is_pureERKNS_12SPIRFunctionE, symObjAddr: 0x1518, symBinAddr: 0x36E90, symSize: 0x70 }
  - { offset: 0x211814, size: 0x8, addend: 0x0, symName: __ZN11spirv_cross8Compiler16function_is_pureERKNS_12SPIRFunctionE, symObjAddr: 0x1518, symBinAddr: 0x36E90, symSize: 0x70 }
  - { offset: 0x2118D8, size: 0x8, addend: 0x0, symName: __ZNK11spirv_cross8Compiler15expression_typeEj, symObjAddr: 0x1588, symBinAddr: 0x36F00, symSize: 0x2C }
  - { offset: 0x211A8A, size: 0x8, addend: 0x0, symName: __ZNK11spirv_cross8Compiler7to_nameEjb, symObjAddr: 0x15B4, symBinAddr: 0x36F2C, symSize: 0x128 }
  - { offset: 0x211E22, size: 0x8, addend: 0x0, symName: __ZN11spirv_cross11SmallVectorINS_12SPIRFunction9ParameterELm8EE7reserveEm, symObjAddr: 0x175B4, symBinAddr: 0x4BA08, symSize: 0xE8 }
  - { offset: 0x211FC4, size: 0x8, addend: 0x0, symName: __ZNK11spirv_cross8Compiler23has_extended_decorationEjNS_19ExtendedDecorationsE, symObjAddr: 0x16DC, symBinAddr: 0x37054, symSize: 0xFC }
  - { offset: 0x212352, size: 0x8, addend: 0x0, symName: __ZNK11spirv_cross12StringStreamILm4096ELm4096EE3strEv, symObjAddr: 0x17744, symBinAddr: 0x4BB98, symSize: 0x1B0 }
  - { offset: 0x212823, size: 0x8, addend: 0x0, symName: __ZN11spirv_cross8Compiler33register_global_read_dependenciesERKNS_9SPIRBlockEj, symObjAddr: 0x1920, symBinAddr: 0x37298, symSize: 0x1A8 }
  - { offset: 0x212CA2, size: 0x8, addend: 0x0, symName: __ZN11spirv_cross8Compiler26maybe_get_backing_variableEj, symObjAddr: 0x1B34, symBinAddr: 0x374AC, symSize: 0xF0 }
  - { offset: 0x213149, size: 0x8, addend: 0x0, symName: __ZN11spirv_cross8Compiler33register_global_read_dependenciesERKNS_12SPIRFunctionEj, symObjAddr: 0x1AC8, symBinAddr: 0x37440, symSize: 0x6C }
  - { offset: 0x21317F, size: 0x8, addend: 0x0, symName: __ZN11spirv_cross8Compiler33register_global_read_dependenciesERKNS_12SPIRFunctionEj, symObjAddr: 0x1AC8, symBinAddr: 0x37440, symSize: 0x6C }
  - { offset: 0x2131AF, size: 0x8, addend: 0x0, symName: __ZN11spirv_cross8Compiler33register_global_read_dependenciesERKNS_12SPIRFunctionEj, symObjAddr: 0x1AC8, symBinAddr: 0x37440, symSize: 0x6C }
  - { offset: 0x2133AA, size: 0x8, addend: 0x0, symName: __ZN11spirv_cross7Variant3getINS_14SPIRExpressionEEERT_v, symObjAddr: 0x188FC, symBinAddr: 0x4CA28, symSize: 0x88 }
  - { offset: 0x213422, size: 0x8, addend: 0x0, symName: __ZN11spirv_cross7Variant3getINS_15SPIRAccessChainEEERT_v, symObjAddr: 0x18874, symBinAddr: 0x4C9A0, symSize: 0x88 }
  - { offset: 0x2134BC, size: 0x8, addend: 0x0, symName: __ZN11spirv_cross8Compiler13register_readEjjb, symObjAddr: 0x1C24, symBinAddr: 0x3759C, symSize: 0xA4 }
  - { offset: 0x2135ED, size: 0x8, addend: 0x0, symName: __ZNK11spirv_cross8Compiler12is_immutableEj, symObjAddr: 0x1CC8, symBinAddr: 0x37640, symSize: 0xD8 }
  - { offset: 0x213912, size: 0x8, addend: 0x0, symName: __ZNK11spirv_cross7Variant3getINS_14SPIRExpressionEEERKT_v, symObjAddr: 0x18CB8, symBinAddr: 0x4CDE4, symSize: 0x88 }
  - { offset: 0x21398A, size: 0x8, addend: 0x0, symName: __ZNK11spirv_cross7Variant3getINS_12SPIRVariableEEERKT_v, symObjAddr: 0x18C30, symBinAddr: 0x4CD5C, symSize: 0x88 }
  - { offset: 0x213A02, size: 0x8, addend: 0x0, symName: __ZNK11spirv_cross7Variant3getINS_15SPIRAccessChainEEERKT_v, symObjAddr: 0x18F60, symBinAddr: 0x4D08C, symSize: 0x88 }
  - { offset: 0x213C68, size: 0x8, addend: 0x0, symName: __ZN11spirv_cross8Compiler14register_writeEj, symObjAddr: 0x1DA0, symBinAddr: 0x37718, symSize: 0x2E4 }
  - { offset: 0x214760, size: 0x8, addend: 0x0, symName: __ZN11spirv_cross8Compiler26flush_all_active_variablesEv, symObjAddr: 0x20E4, symBinAddr: 0x37A5C, symSize: 0x208 }
  - { offset: 0x21503D, size: 0x8, addend: 0x0, symName: __ZNSt3__112__hash_tableIjNS_4hashIjEENS_8equal_toIjEENS_9allocatorIjEEE25__emplace_unique_key_argsIjJjEEENS_4pairINS_15__hash_iteratorIPNS_11__hash_nodeIjPvEEEEbEERKT_DpOT0_, symObjAddr: 0x18984, symBinAddr: 0x4CAB0, symSize: 0x2AC }
  - { offset: 0x2156C6, size: 0x8, addend: 0x0, symName: __ZN11spirv_cross8Compiler22get_variable_data_typeERKNS_12SPIRVariableE, symObjAddr: 0x2084, symBinAddr: 0x379FC, symSize: 0x60 }
  - { offset: 0x21588D, size: 0x8, addend: 0x0, symName: __ZN11spirv_cross8Compiler27flush_all_aliased_variablesEv, symObjAddr: 0x22EC, symBinAddr: 0x37C64, symSize: 0xAC }
  - { offset: 0x2158AF, size: 0x8, addend: 0x0, symName: __ZN11spirv_cross8Compiler27flush_all_aliased_variablesEv, symObjAddr: 0x22EC, symBinAddr: 0x37C64, symSize: 0xAC }
  - { offset: 0x2158E3, size: 0x8, addend: 0x0, symName: __ZN11spirv_cross8Compiler27flush_all_aliased_variablesEv, symObjAddr: 0x22EC, symBinAddr: 0x37C64, symSize: 0xAC }
  - { offset: 0x215ABF, size: 0x8, addend: 0x0, symName: __ZN11spirv_cross8Compiler15flush_dependeesERNS_12SPIRVariableE, symObjAddr: 0x2398, symBinAddr: 0x37D10, symSize: 0x64 }
  - { offset: 0x215C03, size: 0x8, addend: 0x0, symName: __ZN11spirv_cross8Compiler15force_recompileEv, symObjAddr: 0x23FC, symBinAddr: 0x37D74, symSize: 0xC }
  - { offset: 0x215C24, size: 0x8, addend: 0x0, symName: __ZN11spirv_cross8Compiler34flush_all_atomic_capable_variablesEv, symObjAddr: 0x2408, symBinAddr: 0x37D80, symSize: 0x11C }
  - { offset: 0x216086, size: 0x8, addend: 0x0, symName: __ZN11spirv_cross8Compiler35flush_control_dependent_expressionsEj, symObjAddr: 0x2524, symBinAddr: 0x37E9C, symSize: 0x74 }
  - { offset: 0x216344, size: 0x8, addend: 0x0, symName: __ZNK11spirv_cross7Variant3getINS_24SPIRCombinedImageSamplerEEERKT_v, symObjAddr: 0x18ED8, symBinAddr: 0x4D004, symSize: 0x88 }
  - { offset: 0x2163BC, size: 0x8, addend: 0x0, symName: __ZNK11spirv_cross7Variant3getINS_9SPIRUndefEEERKT_v, symObjAddr: 0x18E50, symBinAddr: 0x4CF7C, symSize: 0x88 }
  - { offset: 0x216434, size: 0x8, addend: 0x0, symName: __ZNK11spirv_cross7Variant3getINS_12SPIRConstantEEERKT_v, symObjAddr: 0x18D40, symBinAddr: 0x4CE6C, symSize: 0x88 }
  - { offset: 0x2164AC, size: 0x8, addend: 0x0, symName: __ZNK11spirv_cross7Variant3getINS_14SPIRConstantOpEEERKT_v, symObjAddr: 0x18DC8, symBinAddr: 0x4CEF4, symSize: 0x88 }
  - { offset: 0x216578, size: 0x8, addend: 0x0, symName: __ZN11spirv_cross13CompilerErrorD1Ev, symObjAddr: 0x26A4, symBinAddr: 0x3801C, symSize: 0x4 }
  - { offset: 0x21659C, size: 0x8, addend: 0x0, symName: __ZN11spirv_cross13CompilerErrorD1Ev, symObjAddr: 0x26A4, symBinAddr: 0x3801C, symSize: 0x4 }
  - { offset: 0x2165B7, size: 0x8, addend: 0x0, symName: __ZNK11spirv_cross8Compiler20expression_is_lvalueEj, symObjAddr: 0x26A8, symBinAddr: 0x38020, symSize: 0x40 }
  - { offset: 0x216794, size: 0x8, addend: 0x0, symName: __ZNK11spirv_cross8Compiler18is_hidden_variableERKNS_12SPIRVariableEb, symObjAddr: 0x26E8, symBinAddr: 0x38060, symSize: 0x298 }
  - { offset: 0x216DBC, size: 0x8, addend: 0x0, symName: __ZNK11spirv_cross8Compiler40interface_variable_exists_in_entry_pointEj, symObjAddr: 0x2A28, symBinAddr: 0x383A0, symSize: 0x1C4 }
  - { offset: 0x217214, size: 0x8, addend: 0x0, symName: __ZNK11spirv_cross8Compiler19is_builtin_variableERKNS_12SPIRVariableE, symObjAddr: 0x2980, symBinAddr: 0x382F8, symSize: 0xA8 }
  - { offset: 0x2175B0, size: 0x8, addend: 0x0, symName: __ZNK11spirv_cross8Compiler15is_builtin_typeERKNS_8SPIRTypeE, symObjAddr: 0x2BEC, symBinAddr: 0x38564, symSize: 0x60 }
  - { offset: 0x21768A, size: 0x8, addend: 0x0, symName: __ZNK11spirv_cross8Compiler17is_member_builtinERKNS_8SPIRTypeEjPN3spv7BuiltInE, symObjAddr: 0x2C4C, symBinAddr: 0x385C4, symSize: 0x70 }
  - { offset: 0x217765, size: 0x8, addend: 0x0, symName: __ZNK11spirv_cross8Compiler9is_scalarERKNS_8SPIRTypeE, symObjAddr: 0x2CBC, symBinAddr: 0x38634, symSize: 0x2C }
  - { offset: 0x217790, size: 0x8, addend: 0x0, symName: __ZNK11spirv_cross8Compiler9is_vectorERKNS_8SPIRTypeE, symObjAddr: 0x2CE8, symBinAddr: 0x38660, symSize: 0x14 }
  - { offset: 0x2177C9, size: 0x8, addend: 0x0, symName: __ZNK11spirv_cross8Compiler9is_matrixERKNS_8SPIRTypeE, symObjAddr: 0x2CFC, symBinAddr: 0x38674, symSize: 0x14 }
  - { offset: 0x217802, size: 0x8, addend: 0x0, symName: __ZNK11spirv_cross8Compiler8is_arrayERKNS_8SPIRTypeE, symObjAddr: 0x2D10, symBinAddr: 0x38688, symSize: 0x14 }
  - { offset: 0x21782D, size: 0x8, addend: 0x0, symName: __ZNK11spirv_cross8Compiler10is_pointerERKNS_8SPIRTypeE, symObjAddr: 0x2D24, symBinAddr: 0x3869C, symSize: 0x14 }
  - { offset: 0x217858, size: 0x8, addend: 0x0, symName: __ZNK11spirv_cross8Compiler19is_physical_pointerERKNS_8SPIRTypeE, symObjAddr: 0x2D38, symBinAddr: 0x386B0, symSize: 0x1C }
  - { offset: 0x2178D9, size: 0x8, addend: 0x0, symName: __ZNK11spirv_cross8Compiler35is_physical_pointer_to_buffer_blockERKNS_8SPIRTypeE, symObjAddr: 0x2D54, symBinAddr: 0x386CC, symSize: 0xA4 }
  - { offset: 0x217A93, size: 0x8, addend: 0x0, symName: __ZNK11spirv_cross8Compiler16get_pointee_typeERKNS_8SPIRTypeE, symObjAddr: 0x2DF8, symBinAddr: 0x38770, symSize: 0x28 }
  - { offset: 0x217B5F, size: 0x8, addend: 0x0, symName: __ZN11spirv_cross8Compiler21is_runtime_size_arrayERKNS_8SPIRTypeE, symObjAddr: 0x2E20, symBinAddr: 0x38798, symSize: 0x10 }
  - { offset: 0x217B88, size: 0x8, addend: 0x0, symName: __ZNK11spirv_cross8Compiler20get_shader_resourcesEv, symObjAddr: 0x2E30, symBinAddr: 0x387A8, symSize: 0x8 }
  - { offset: 0x217BD5, size: 0x8, addend: 0x0, symName: __ZNK11spirv_cross8Compiler20get_shader_resourcesEPKNSt3__113unordered_setINS_7TypedIDILNS_5TypesE2EEENS1_4hashIS5_EENS1_8equal_toIS5_EENS1_9allocatorIS5_EEEE, symObjAddr: 0x2E38, symBinAddr: 0x387B0, symSize: 0xF04 }
  - { offset: 0x21AF9C, size: 0x8, addend: 0x0, symName: __ZNK11spirv_cross8Compiler44reflection_ssbo_instance_name_is_significantEv, symObjAddr: 0x44A4, symBinAddr: 0x39E18, symSize: 0x218 }
  - { offset: 0x21B7D7, size: 0x8, addend: 0x0, symName: __ZNK11spirv_cross8Compiler32get_remapped_declared_block_nameEjb, symObjAddr: 0x11DA0, symBinAddr: 0x476C0, symSize: 0x1AC }
  - { offset: 0x21BD2D, size: 0x8, addend: 0x0, symName: __ZN11spirv_cross11SmallVectorINS_15BuiltInResourceELm8EE7reserveEm, symObjAddr: 0x19628, symBinAddr: 0x4D53C, symSize: 0x134 }
  - { offset: 0x21C03C, size: 0x8, addend: 0x0, symName: __ZN11spirv_cross11SmallVectorINS_8ResourceELm8EE7reserveEm, symObjAddr: 0x1975C, symBinAddr: 0x4D670, symSize: 0x12C }
  - { offset: 0x21C2BB, size: 0x8, addend: 0x0, symName: __ZN11spirv_cross11SmallVectorINS_8ResourceELm8EE9push_backEOS1_, symObjAddr: 0x195BC, symBinAddr: 0x4D4D0, symSize: 0x6C }
  - { offset: 0x21D230, size: 0x8, addend: 0x0, symName: __ZNK11spirv_cross8Compiler20get_shader_resourcesERKNSt3__113unordered_setINS_7TypedIDILNS_5TypesE2EEENS1_4hashIS5_EENS1_8equal_toIS5_EENS1_9allocatorIS5_EEEE, symObjAddr: 0x3D3C, symBinAddr: 0x396B4, symSize: 0x4 }
  - { offset: 0x21D26A, size: 0x8, addend: 0x0, symName: __ZNK11spirv_cross8Compiler20get_shader_resourcesERKNSt3__113unordered_setINS_7TypedIDILNS_5TypesE2EEENS1_4hashIS5_EENS1_8equal_toIS5_EENS1_9allocatorIS5_EEEE, symObjAddr: 0x3D3C, symBinAddr: 0x396B4, symSize: 0x4 }
  - { offset: 0x21D3B7, size: 0x8, addend: 0x0, symName: __ZNSt3__112__hash_tableIN11spirv_cross7TypedIDILNS1_5TypesE2EEENS_4hashIS4_EENS_8equal_toIS4_EENS_9allocatorIS4_EEE25__emplace_unique_key_argsIS4_JS4_EEENS_4pairINS_15__hash_iteratorIPNS_11__hash_nodeIS4_PvEEEEbEERKT_DpOT0_, symObjAddr: 0x18FE8, symBinAddr: 0x4D114, symSize: 0x2AC }
  - { offset: 0x21DAA9, size: 0x8, addend: 0x0, symName: __ZNK11spirv_cross7Variant3getINS_13SPIRExtensionEEERKT_v, symObjAddr: 0x193CC, symBinAddr: 0x4D3C0, symSize: 0x88 }
  - { offset: 0x21DC3F, size: 0x8, addend: 0x0, symName: __ZNK11spirv_cross8Compiler30get_active_interface_variablesEv, symObjAddr: 0x41EC, symBinAddr: 0x39B64, symSize: 0x208 }
  - { offset: 0x21E6FF, size: 0x8, addend: 0x0, symName: __ZNK11spirv_cross7Variant3getINS_12SPIRFunctionEEERKT_v, symObjAddr: 0x19454, symBinAddr: 0x4D448, symSize: 0x88 }
  - { offset: 0x21E777, size: 0x8, addend: 0x0, symName: __ZNK11spirv_cross7Variant3getINS_9SPIRBlockEEERKT_v, symObjAddr: 0x17EF8, symBinAddr: 0x4C2A8, symSize: 0x88 }
  - { offset: 0x21E7EF, size: 0x8, addend: 0x0, symName: __ZNK11spirv_cross8Compiler30traverse_all_reachable_opcodesERKNS_9SPIRBlockERNS0_13OpcodeHandlerE, symObjAddr: 0x702C, symBinAddr: 0x3C9A0, symSize: 0x218 }
  - { offset: 0x21EC98, size: 0x8, addend: 0x0, symName: __ZNK11spirv_cross8Compiler30traverse_all_reachable_opcodesERKNS_12SPIRFunctionERNS0_13OpcodeHandlerE, symObjAddr: 0x43F4, symBinAddr: 0x39D6C, symSize: 0x80 }
  - { offset: 0x21ECCE, size: 0x8, addend: 0x0, symName: __ZNK11spirv_cross8Compiler30traverse_all_reachable_opcodesERKNS_12SPIRFunctionERNS0_13OpcodeHandlerE, symObjAddr: 0x43F4, symBinAddr: 0x39D6C, symSize: 0x80 }
  - { offset: 0x21ECFE, size: 0x8, addend: 0x0, symName: __ZNK11spirv_cross8Compiler30traverse_all_reachable_opcodesERKNS_12SPIRFunctionERNS0_13OpcodeHandlerE, symObjAddr: 0x43F4, symBinAddr: 0x39D6C, symSize: 0x80 }
  - { offset: 0x21EE13, size: 0x8, addend: 0x0, symName: __ZN11spirv_cross8Compiler31set_enabled_interface_variablesENSt3__113unordered_setINS_7TypedIDILNS_5TypesE2EEENS1_4hashIS5_EENS1_8equal_toIS5_EENS1_9allocatorIS5_EEEE, symObjAddr: 0x4478, symBinAddr: 0x39DEC, symSize: 0x2C }
  - { offset: 0x21F168, size: 0x8, addend: 0x0, symName: __ZNK11spirv_cross8Compiler23type_is_top_level_blockERKNS_8SPIRTypeE, symObjAddr: 0x46BC, symBinAddr: 0x3A030, symSize: 0x64 }
  - { offset: 0x21F254, size: 0x8, addend: 0x0, symName: __ZNK11spirv_cross8Compiler18type_is_block_likeERKNS_8SPIRTypeE, symObjAddr: 0x4720, symBinAddr: 0x3A094, symSize: 0xB4 }
  - { offset: 0x21F3F8, size: 0x8, addend: 0x0, symName: __ZNK11spirv_cross8Compiler21has_member_decorationENS_7TypedIDILNS_5TypesE1EEEjN3spv10DecorationE, symObjAddr: 0x47D4, symBinAddr: 0x3A148, symSize: 0xC }
  - { offset: 0x21F449, size: 0x8, addend: 0x0, symName: __ZNK11spirv_cross8Compiler14get_decorationENS_7TypedIDILNS_5TypesE0EEEN3spv10DecorationE, symObjAddr: 0x4868, symBinAddr: 0x3A1DC, symSize: 0xC }
  - { offset: 0x21F4B9, size: 0x8, addend: 0x0, symName: __ZN11spirv_cross8Compiler17update_name_cacheERNSt3__113unordered_setINS1_12basic_stringIcNS1_11char_traitsIcEENS1_9allocatorIcEEEENS1_4hashIS8_EENS1_8equal_toIS8_EENS6_IS8_EEEERKSE_RS8_, symObjAddr: 0x48FC, symBinAddr: 0x3A270, symSize: 0x460 }
  - { offset: 0x220A27, size: 0x8, addend: 0x0, symName: __ZNSt3__112__hash_tableINS_12basic_stringIcNS_11char_traitsIcEENS_9allocatorIcEEEENS_4hashIS6_EENS_8equal_toIS6_EENS4_IS6_EEE4findIS6_EENS_15__hash_iteratorIPNS_11__hash_nodeIS6_PvEEEERKT_, symObjAddr: 0x14FD8, symBinAddr: 0x49B80, symSize: 0x154 }
  - { offset: 0x220D6B, size: 0x8, addend: 0x0, symName: __ZNKSt3__112__hash_tableINS_12basic_stringIcNS_11char_traitsIcEENS_9allocatorIcEEEENS_4hashIS6_EENS_8equal_toIS6_EENS4_IS6_EEE4findIS6_EENS_21__hash_const_iteratorIPNS_11__hash_nodeIS6_PvEEEERKT_, symObjAddr: 0x15564, symBinAddr: 0x4A10C, symSize: 0x154 }
  - { offset: 0x2210CE, size: 0x8, addend: 0x0, symName: __ZNSt3__112__hash_tableINS_12basic_stringIcNS_11char_traitsIcEENS_9allocatorIcEEEENS_4hashIS6_EENS_8equal_toIS6_EENS4_IS6_EEE25__emplace_unique_key_argsIS6_JRKS6_EEENS_4pairINS_15__hash_iteratorIPNS_11__hash_nodeIS6_PvEEEEbEERKT_DpOT0_, symObjAddr: 0x156B8, symBinAddr: 0x4A260, symSize: 0x35C }
  - { offset: 0x2219A5, size: 0x8, addend: 0x0, symName: __ZN11spirv_cross8Compiler17update_name_cacheERNSt3__113unordered_setINS1_12basic_stringIcNS1_11char_traitsIcEENS1_9allocatorIcEEEENS1_4hashIS8_EENS1_8equal_toIS8_EENS6_IS8_EEEERS8_, symObjAddr: 0x4D5C, symBinAddr: 0x3A6D0, symSize: 0xC }
  - { offset: 0x221A14, size: 0x8, addend: 0x0, symName: __ZN11spirv_cross8Compiler8set_nameENS_7TypedIDILNS_5TypesE0EEERKNSt3__112basic_stringIcNS4_11char_traitsIcEENS4_9allocatorIcEEEE, symObjAddr: 0x4D68, symBinAddr: 0x3A6DC, symSize: 0xC }
  - { offset: 0x221A49, size: 0x8, addend: 0x0, symName: __ZNK11spirv_cross8Compiler8get_typeENS_7TypedIDILNS_5TypesE1EEE, symObjAddr: 0x4D74, symBinAddr: 0x3A6E8, symSize: 0x10 }
  - { offset: 0x221A77, size: 0x8, addend: 0x0, symName: __ZNK11spirv_cross8Compiler8get_typeENS_7TypedIDILNS_5TypesE1EEE, symObjAddr: 0x4D74, symBinAddr: 0x3A6E8, symSize: 0x10 }
  - { offset: 0x221A9F, size: 0x8, addend: 0x0, symName: __ZNK11spirv_cross8Compiler8get_typeENS_7TypedIDILNS_5TypesE1EEE, symObjAddr: 0x4D74, symBinAddr: 0x3A6E8, symSize: 0x10 }
  - { offset: 0x221AEB, size: 0x8, addend: 0x0, symName: __ZNK11spirv_cross8Compiler22get_type_from_variableENS_7TypedIDILNS_5TypesE2EEE, symObjAddr: 0x4D84, symBinAddr: 0x3A6F8, symSize: 0x38 }
  - { offset: 0x221C33, size: 0x8, addend: 0x0, symName: __ZNK11spirv_cross8Compiler19get_pointee_type_idEj, symObjAddr: 0x4DBC, symBinAddr: 0x3A730, symSize: 0x3C }
  - { offset: 0x221CE1, size: 0x8, addend: 0x0, symName: __ZNK11spirv_cross8Compiler16get_pointee_typeEj, symObjAddr: 0x4DF8, symBinAddr: 0x3A76C, symSize: 0x54 }
  - { offset: 0x221E5F, size: 0x8, addend: 0x0, symName: __ZNK11spirv_cross8Compiler25get_variable_data_type_idERKNS_12SPIRVariableE, symObjAddr: 0x4E4C, symBinAddr: 0x3A7C0, symSize: 0x54 }
  - { offset: 0x221F52, size: 0x8, addend: 0x0, symName: __ZNK11spirv_cross8Compiler22get_variable_data_typeERKNS_12SPIRVariableE, symObjAddr: 0x4EA0, symBinAddr: 0x3A814, symSize: 0x60 }
  - { offset: 0x222108, size: 0x8, addend: 0x0, symName: __ZN11spirv_cross8Compiler25get_variable_element_typeERKNS_12SPIRVariableE, symObjAddr: 0x4F00, symBinAddr: 0x3A874, symSize: 0x90 }
  - { offset: 0x22239D, size: 0x8, addend: 0x0, symName: __ZNK11spirv_cross8Compiler25get_variable_element_typeERKNS_12SPIRVariableE, symObjAddr: 0x4F90, symBinAddr: 0x3A904, symSize: 0x90 }
  - { offset: 0x222632, size: 0x8, addend: 0x0, symName: __ZN11spirv_cross8Compiler21is_sampled_image_typeERKNS_8SPIRTypeE, symObjAddr: 0x5020, symBinAddr: 0x3A994, symSize: 0x30 }
  - { offset: 0x22266B, size: 0x8, addend: 0x0, symName: __ZN11spirv_cross8Compiler28set_member_decoration_stringENS_7TypedIDILNS_5TypesE1EEEjN3spv10DecorationERKNSt3__112basic_stringIcNS6_11char_traitsIcEENS6_9allocatorIcEEEE, symObjAddr: 0x5050, symBinAddr: 0x3A9C4, symSize: 0xC }
  - { offset: 0x2226D3, size: 0x8, addend: 0x0, symName: __ZN11spirv_cross8Compiler21set_member_decorationENS_7TypedIDILNS_5TypesE1EEEjN3spv10DecorationEj, symObjAddr: 0x505C, symBinAddr: 0x3A9D0, symSize: 0xC }
  - { offset: 0x22273B, size: 0x8, addend: 0x0, symName: __ZN11spirv_cross8Compiler15set_member_nameENS_7TypedIDILNS_5TypesE1EEEjRKNSt3__112basic_stringIcNS4_11char_traitsIcEENS4_9allocatorIcEEEE, symObjAddr: 0x5068, symBinAddr: 0x3A9DC, symSize: 0xC }
  - { offset: 0x222794, size: 0x8, addend: 0x0, symName: __ZNK11spirv_cross8Compiler15get_member_nameENS_7TypedIDILNS_5TypesE1EEEj, symObjAddr: 0x5074, symBinAddr: 0x3A9E8, symSize: 0xC }
  - { offset: 0x22284E, size: 0x8, addend: 0x0, symName: __ZN11spirv_cross8Compiler18set_qualified_nameEjRKNSt3__112basic_stringIcNS1_11char_traitsIcEENS1_9allocatorIcEEEE, symObjAddr: 0x5080, symBinAddr: 0x3A9F4, symSize: 0x58 }
  - { offset: 0x222923, size: 0x8, addend: 0x0, symName: __ZNSt3__112__hash_tableINS_17__hash_value_typeIN11spirv_cross7TypedIDILNS2_5TypesE0EEENS2_4MetaEEENS_22__unordered_map_hasherIS5_NS_4pairIKS5_S6_EENS_4hashIS5_EENS_8equal_toIS5_EELb1EEENS_21__unordered_map_equalIS5_SB_SF_SD_Lb1EEENS_9allocatorISB_EEE25__emplace_unique_key_argsIS5_JRKNS_21piecewise_construct_tENS_5tupleIJOS5_EEENSQ_IJEEEEEENS9_INS_15__hash_iteratorIPNS_11__hash_nodeIS7_PvEEEEbEERKT_DpOT0_, symObjAddr: 0x19888, symBinAddr: 0x4D79C, symSize: 0x380 }
  - { offset: 0x2235F8, size: 0x8, addend: 0x0, symName: __ZN11spirv_cross8Compiler25set_member_qualified_nameEjjRKNSt3__112basic_stringIcNS1_11char_traitsIcEENS1_9allocatorIcEEEE, symObjAddr: 0x50D8, symBinAddr: 0x3AA4C, symSize: 0x1D8 }
  - { offset: 0x223FFB, size: 0x8, addend: 0x0, symName: __ZN11spirv_cross11SmallVectorINS_4Meta10DecorationELm0EE7reserveEm, symObjAddr: 0x19C08, symBinAddr: 0x4DB1C, symSize: 0x258 }
  - { offset: 0x2247CB, size: 0x8, addend: 0x0, symName: __ZN11spirv_cross5inner11join_helperIRA2_KcJRNS_7TypedIDILNS_5TypesE0EEEEEEvRNS_12StringStreamILm4096ELm4096EEEOT_DpOT0_, symObjAddr: 0x19E60, symBinAddr: 0x4DD74, symSize: 0xA8 }
  - { offset: 0x2247EC, size: 0x8, addend: 0x0, symName: __ZNK11spirv_cross8Compiler25get_member_qualified_nameENS_7TypedIDILNS_5TypesE1EEEj, symObjAddr: 0x52B0, symBinAddr: 0x3AC24, symSize: 0x58 }
  - { offset: 0x2248B6, size: 0x8, addend: 0x0, symName: __ZNK11spirv_cross8Compiler21get_member_decorationENS_7TypedIDILNS_5TypesE1EEEjN3spv10DecorationE, symObjAddr: 0x5308, symBinAddr: 0x3AC7C, symSize: 0xC }
  - { offset: 0x2248F3, size: 0x8, addend: 0x0, symName: __ZNK11spirv_cross8Compiler28get_member_decoration_bitsetENS_7TypedIDILNS_5TypesE1EEEj, symObjAddr: 0x5314, symBinAddr: 0x3AC88, symSize: 0xC }
  - { offset: 0x224928, size: 0x8, addend: 0x0, symName: __ZN11spirv_cross8Compiler23unset_member_decorationENS_7TypedIDILNS_5TypesE1EEEjN3spv10DecorationE, symObjAddr: 0x5320, symBinAddr: 0x3AC94, symSize: 0xC }
  - { offset: 0x224981, size: 0x8, addend: 0x0, symName: __ZN11spirv_cross8Compiler21set_decoration_stringENS_7TypedIDILNS_5TypesE0EEEN3spv10DecorationERKNSt3__112basic_stringIcNS6_11char_traitsIcEENS6_9allocatorIcEEEE, symObjAddr: 0x532C, symBinAddr: 0x3ACA0, symSize: 0xC }
  - { offset: 0x2249DA, size: 0x8, addend: 0x0, symName: __ZN11spirv_cross8Compiler14set_decorationENS_7TypedIDILNS_5TypesE0EEEN3spv10DecorationEj, symObjAddr: 0x5338, symBinAddr: 0x3ACAC, symSize: 0xC }
  - { offset: 0x224AB9, size: 0x8, addend: 0x0, symName: __ZN11spirv_cross8Compiler23set_extended_decorationEjNS_19ExtendedDecorationsEj, symObjAddr: 0x5344, symBinAddr: 0x3ACB8, symSize: 0xA0 }
  - { offset: 0x224C63, size: 0x8, addend: 0x0, symName: __ZNSt3__112__hash_tableIjNS_4hashIjEENS_8equal_toIjEENS_9allocatorIjEEE25__emplace_unique_key_argsIjJRKjEEENS_4pairINS_15__hash_iteratorIPNS_11__hash_nodeIjPvEEEEbEERKT_DpOT0_, symObjAddr: 0x16DCC, symBinAddr: 0x4B45C, symSize: 0x2AC }
  - { offset: 0x2252EC, size: 0x8, addend: 0x0, symName: __ZN11spirv_cross8Compiler30set_extended_member_decorationEjjNS_19ExtendedDecorationsEj, symObjAddr: 0x53E4, symBinAddr: 0x3AD58, symSize: 0x21C }
  - { offset: 0x22585D, size: 0x8, addend: 0x0, symName: __ZNK11spirv_cross8Compiler23get_extended_decorationEjNS_19ExtendedDecorationsE, symObjAddr: 0x5600, symBinAddr: 0x3AF74, symSize: 0x110 }
  - { offset: 0x225ACB, size: 0x8, addend: 0x0, symName: __ZNK11spirv_cross8Compiler30get_extended_member_decorationEjjNS_19ExtendedDecorationsE, symObjAddr: 0x5710, symBinAddr: 0x3B084, symSize: 0x130 }
  - { offset: 0x225D96, size: 0x8, addend: 0x0, symName: __ZNK11spirv_cross8Compiler30has_extended_member_decorationEjjNS_19ExtendedDecorationsE, symObjAddr: 0x5840, symBinAddr: 0x3B1B4, symSize: 0x11C }
  - { offset: 0x226019, size: 0x8, addend: 0x0, symName: __ZN11spirv_cross8Compiler25unset_extended_decorationEjNS_19ExtendedDecorationsE, symObjAddr: 0x595C, symBinAddr: 0x3B2D0, symSize: 0x90 }
  - { offset: 0x226169, size: 0x8, addend: 0x0, symName: __ZNSt3__112__hash_tableIjNS_4hashIjEENS_8equal_toIjEENS_9allocatorIjEEE14__erase_uniqueIjEEmRKT_, symObjAddr: 0x171B0, symBinAddr: 0x4B708, symSize: 0xEC }
  - { offset: 0x2261D7, size: 0x8, addend: 0x0, symName: __ZNSt3__112__hash_tableIjNS_4hashIjEENS_8equal_toIjEENS_9allocatorIjEEE14__erase_uniqueIjEEmRKT_, symObjAddr: 0x171B0, symBinAddr: 0x4B708, symSize: 0xEC }
  - { offset: 0x2261F5, size: 0x8, addend: 0x0, symName: __ZNSt3__112__hash_tableIjNS_4hashIjEENS_8equal_toIjEENS_9allocatorIjEEE14__erase_uniqueIjEEmRKT_, symObjAddr: 0x171B0, symBinAddr: 0x4B708, symSize: 0xEC }
  - { offset: 0x226461, size: 0x8, addend: 0x0, symName: __ZN11spirv_cross8Compiler32unset_extended_member_decorationEjjNS_19ExtendedDecorationsE, symObjAddr: 0x59EC, symBinAddr: 0x3B360, symSize: 0x20C }
  - { offset: 0x226959, size: 0x8, addend: 0x0, symName: __ZNK11spirv_cross8Compiler17get_storage_classENS_7TypedIDILNS_5TypesE2EEE, symObjAddr: 0x5BF8, symBinAddr: 0x3B56C, symSize: 0x24 }
  - { offset: 0x226A0B, size: 0x8, addend: 0x0, symName: __ZNK11spirv_cross8Compiler8get_nameENS_7TypedIDILNS_5TypesE0EEE, symObjAddr: 0x5C1C, symBinAddr: 0x3B590, symSize: 0xC }
  - { offset: 0x226A38, size: 0x8, addend: 0x0, symName: __ZNK11spirv_cross8Compiler17get_fallback_nameENS_7TypedIDILNS_5TypesE0EEE, symObjAddr: 0x5C28, symBinAddr: 0x3B59C, symSize: 0x2C }
  - { offset: 0x226A8C, size: 0x8, addend: 0x0, symName: __ZNK11spirv_cross8Compiler23get_block_fallback_nameENS_7TypedIDILNS_5TypesE2EEE, symObjAddr: 0x5D9C, symBinAddr: 0x3B710, symSize: 0xE4 }
  - { offset: 0x226D71, size: 0x8, addend: 0x0, symName: __ZN11spirv_cross12StringStreamILm4096ELm4096EE6appendEPKcm, symObjAddr: 0x17998, symBinAddr: 0x4BD48, symSize: 0x138 }
  - { offset: 0x226E42, size: 0x8, addend: 0x0, symName: __ZNK11spirv_cross8Compiler21get_decoration_bitsetENS_7TypedIDILNS_5TypesE0EEE, symObjAddr: 0x5FF8, symBinAddr: 0x3B96C, symSize: 0xC }
  - { offset: 0x226E6F, size: 0x8, addend: 0x0, symName: __ZNK11spirv_cross8Compiler21get_decoration_stringENS_7TypedIDILNS_5TypesE0EEEN3spv10DecorationE, symObjAddr: 0x6004, symBinAddr: 0x3B978, symSize: 0xC }
  - { offset: 0x226EB9, size: 0x8, addend: 0x0, symName: __ZNK11spirv_cross8Compiler28get_member_decoration_stringENS_7TypedIDILNS_5TypesE1EEEjN3spv10DecorationE, symObjAddr: 0x6010, symBinAddr: 0x3B984, symSize: 0xC }
  - { offset: 0x226F12, size: 0x8, addend: 0x0, symName: __ZN11spirv_cross8Compiler16unset_decorationENS_7TypedIDILNS_5TypesE0EEEN3spv10DecorationE, symObjAddr: 0x601C, symBinAddr: 0x3B990, symSize: 0xC }
  - { offset: 0x2270C3, size: 0x8, addend: 0x0, symName: __ZNK11spirv_cross8Compiler32get_binary_offset_for_decorationENS_7TypedIDILNS_5TypesE2EEEN3spv10DecorationERj, symObjAddr: 0x6028, symBinAddr: 0x3B99C, symSize: 0xEC }
  - { offset: 0x227362, size: 0x8, addend: 0x0, symName: __ZNK11spirv_cross8Compiler13block_is_noopERKNS_9SPIRBlockE, symObjAddr: 0x6114, symBinAddr: 0x3BA88, symSize: 0x1FC }
  - { offset: 0x2277EF, size: 0x8, addend: 0x0, symName: __ZNK11spirv_cross8Compiler23block_is_loop_candidateERKNS_9SPIRBlockENS1_6MethodE, symObjAddr: 0x6310, symBinAddr: 0x3BC84, symSize: 0x65C }
  - { offset: 0x228A5B, size: 0x8, addend: 0x0, symName: __ZNK11spirv_cross8Compiler17execution_is_noopERKNS_9SPIRBlockES3_, symObjAddr: 0x696C, symBinAddr: 0x3C2E0, symSize: 0xDC }
  - { offset: 0x228C9F, size: 0x8, addend: 0x0, symName: __ZNK11spirv_cross8Compiler23execution_is_branchlessERKNS_9SPIRBlockES3_, symObjAddr: 0x6A48, symBinAddr: 0x3C3BC, symSize: 0x88 }
  - { offset: 0x228DAA, size: 0x8, addend: 0x0, symName: __ZNK11spirv_cross8Compiler26execution_is_direct_branchERKNS_9SPIRBlockES3_, symObjAddr: 0x6AD0, symBinAddr: 0x3C444, symSize: 0x2C }
  - { offset: 0x228EA0, size: 0x8, addend: 0x0, symName: __ZNK11spirv_cross8Compiler19continue_block_typeERKNS_9SPIRBlockE, symObjAddr: 0x6AFC, symBinAddr: 0x3C470, symSize: 0x360 }
  - { offset: 0x229845, size: 0x8, addend: 0x0, symName: __ZNK11spirv_cross8Compiler18flush_phi_requiredENS_7TypedIDILNS_5TypesE6EEES3_, symObjAddr: 0x6E5C, symBinAddr: 0x3C7D0, symSize: 0x68 }
  - { offset: 0x229B73, size: 0x8, addend: 0x0, symName: __ZNK11spirv_cross8Compiler13get_case_listERKNS_9SPIRBlockE, symObjAddr: 0x6EC4, symBinAddr: 0x3C838, symSize: 0x168 }
  - { offset: 0x22A06A, size: 0x8, addend: 0x0, symName: __ZNK11spirv_cross8Compiler25type_struct_member_offsetERKNS_8SPIRTypeEj, symObjAddr: 0x7244, symBinAddr: 0x3CBB8, symSize: 0x9C }
  - { offset: 0x22A1E9, size: 0x8, addend: 0x0, symName: __ZNK11spirv_cross8Compiler31type_struct_member_array_strideERKNS_8SPIRTypeEj, symObjAddr: 0x72E0, symBinAddr: 0x3CC54, symSize: 0x90 }
  - { offset: 0x22A337, size: 0x8, addend: 0x0, symName: __ZNK11spirv_cross8Compiler32type_struct_member_matrix_strideERKNS_8SPIRTypeEj, symObjAddr: 0x7370, symBinAddr: 0x3CCE4, symSize: 0x9C }
  - { offset: 0x22A440, size: 0x8, addend: 0x0, symName: __ZNK11spirv_cross8Compiler24get_declared_struct_sizeERKNS_8SPIRTypeE, symObjAddr: 0x740C, symBinAddr: 0x3CD80, symSize: 0xCC }
  - { offset: 0x22A59E, size: 0x8, addend: 0x0, symName: __ZNK11spirv_cross8Compiler31get_declared_struct_member_sizeERKNS_8SPIRTypeEj, symObjAddr: 0x74D8, symBinAddr: 0x3CE4C, symSize: 0x248 }
  - { offset: 0x22AC4C, size: 0x8, addend: 0x0, symName: __ZNK11spirv_cross8Compiler26evaluate_spec_constant_u32ERKNS_14SPIRConstantOpE, symObjAddr: 0x77F0, symBinAddr: 0x3D164, symSize: 0x6C4 }
  - { offset: 0x22BBA8, size: 0x8, addend: 0x0, symName: __ZNK11spirv_cross8Compiler38get_declared_struct_size_runtime_arrayERKNS_8SPIRTypeEm, symObjAddr: 0x7720, symBinAddr: 0x3D094, symSize: 0xD0 }
  - { offset: 0x22BE0C, size: 0x8, addend: 0x0, symName: '__ZZNK11spirv_cross8Compiler26evaluate_spec_constant_u32ERKNS_14SPIRConstantOpEENK3$_0clEj', symObjAddr: 0x7EB4, symBinAddr: 0x3D828, symSize: 0x108 }
  - { offset: 0x22C186, size: 0x8, addend: 0x0, symName: __ZNK11spirv_cross8Compiler21evaluate_constant_u32Ej, symObjAddr: 0x7FBC, symBinAddr: 0x3D930, symSize: 0x68 }
  - { offset: 0x22C3F4, size: 0x8, addend: 0x0, symName: __ZN11spirv_cross8Compiler19BufferAccessHandler6handleEN3spv2OpEPKjj, symObjAddr: 0x8024, symBinAddr: 0x3D998, symSize: 0x1FC }
  - { offset: 0x22CA14, size: 0x8, addend: 0x0, symName: __ZNK11spirv_cross8Compiler24get_active_buffer_rangesENS_7TypedIDILNS_5TypesE2EEE, symObjAddr: 0x8220, symBinAddr: 0x3DB94, symSize: 0x13C }
  - { offset: 0x22D0DA, size: 0x8, addend: 0x0, symName: __ZN11spirv_cross8Compiler19BufferAccessHandlerD1Ev, symObjAddr: 0x835C, symBinAddr: 0x3DCD0, symSize: 0x54 }
  - { offset: 0x22D3C3, size: 0x8, addend: 0x0, symName: __ZNK11spirv_cross8Compiler30types_are_logically_equivalentERKNS_8SPIRTypeES3_, symObjAddr: 0x83B0, symBinAddr: 0x3DD24, symSize: 0x170 }
  - { offset: 0x22D6E5, size: 0x8, addend: 0x0, symName: __ZNK11spirv_cross8Compiler25get_execution_mode_bitsetEv, symObjAddr: 0x8520, symBinAddr: 0x3DE94, symSize: 0x68 }
  - { offset: 0x22D70B, size: 0x8, addend: 0x0, symName: __ZNK11spirv_cross8Compiler25get_execution_mode_bitsetEv, symObjAddr: 0x8520, symBinAddr: 0x3DE94, symSize: 0x68 }
  - { offset: 0x22D729, size: 0x8, addend: 0x0, symName: __ZNK11spirv_cross8Compiler25get_execution_mode_bitsetEv, symObjAddr: 0x8520, symBinAddr: 0x3DE94, symSize: 0x68 }
  - { offset: 0x22D755, size: 0x8, addend: 0x0, symName: __ZNK11spirv_cross8Compiler25get_execution_mode_bitsetEv, symObjAddr: 0x8520, symBinAddr: 0x3DE94, symSize: 0x68 }
  - { offset: 0x22D78B, size: 0x8, addend: 0x0, symName: __ZNK11spirv_cross8Compiler25get_execution_mode_bitsetEv, symObjAddr: 0x8520, symBinAddr: 0x3DE94, symSize: 0x68 }
  - { offset: 0x22D7AC, size: 0x8, addend: 0x0, symName: __ZNK11spirv_cross8Compiler25get_execution_mode_bitsetEv, symObjAddr: 0x8520, symBinAddr: 0x3DE94, symSize: 0x68 }
  - { offset: 0x22D94B, size: 0x8, addend: 0x0, symName: __ZNK11spirv_cross8Compiler15get_entry_pointEv, symObjAddr: 0x8588, symBinAddr: 0x3DEFC, symSize: 0x68 }
  - { offset: 0x22D971, size: 0x8, addend: 0x0, symName: __ZNK11spirv_cross8Compiler15get_entry_pointEv, symObjAddr: 0x8588, symBinAddr: 0x3DEFC, symSize: 0x68 }
  - { offset: 0x22D99D, size: 0x8, addend: 0x0, symName: __ZNK11spirv_cross8Compiler15get_entry_pointEv, symObjAddr: 0x8588, symBinAddr: 0x3DEFC, symSize: 0x68 }
  - { offset: 0x22D9D3, size: 0x8, addend: 0x0, symName: __ZNK11spirv_cross8Compiler15get_entry_pointEv, symObjAddr: 0x8588, symBinAddr: 0x3DEFC, symSize: 0x68 }
  - { offset: 0x22D9F4, size: 0x8, addend: 0x0, symName: __ZNK11spirv_cross8Compiler15get_entry_pointEv, symObjAddr: 0x8588, symBinAddr: 0x3DEFC, symSize: 0x68 }
  - { offset: 0x22DC34, size: 0x8, addend: 0x0, symName: __ZN11spirv_cross8Compiler18set_execution_modeEN3spv13ExecutionModeEjjj, symObjAddr: 0x85F0, symBinAddr: 0x3DF64, symSize: 0x134 }
  - { offset: 0x22DFA0, size: 0x8, addend: 0x0, symName: __ZN11spirv_cross8Compiler15get_entry_pointEv, symObjAddr: 0x8724, symBinAddr: 0x3E098, symSize: 0x68 }
  - { offset: 0x22DFC6, size: 0x8, addend: 0x0, symName: __ZN11spirv_cross8Compiler15get_entry_pointEv, symObjAddr: 0x8724, symBinAddr: 0x3E098, symSize: 0x68 }
  - { offset: 0x22DFF2, size: 0x8, addend: 0x0, symName: __ZN11spirv_cross8Compiler15get_entry_pointEv, symObjAddr: 0x8724, symBinAddr: 0x3E098, symSize: 0x68 }
  - { offset: 0x22E028, size: 0x8, addend: 0x0, symName: __ZN11spirv_cross8Compiler15get_entry_pointEv, symObjAddr: 0x8724, symBinAddr: 0x3E098, symSize: 0x68 }
  - { offset: 0x22E049, size: 0x8, addend: 0x0, symName: __ZN11spirv_cross8Compiler15get_entry_pointEv, symObjAddr: 0x8724, symBinAddr: 0x3E098, symSize: 0x68 }
  - { offset: 0x22E1E7, size: 0x8, addend: 0x0, symName: __ZN11spirv_cross8Compiler20unset_execution_modeEN3spv13ExecutionModeE, symObjAddr: 0x878C, symBinAddr: 0x3E100, symSize: 0xA8 }
  - { offset: 0x22E236, size: 0x8, addend: 0x0, symName: __ZN11spirv_cross8Compiler20unset_execution_modeEN3spv13ExecutionModeE, symObjAddr: 0x878C, symBinAddr: 0x3E100, symSize: 0xA8 }
  - { offset: 0x22E254, size: 0x8, addend: 0x0, symName: __ZN11spirv_cross8Compiler20unset_execution_modeEN3spv13ExecutionModeE, symObjAddr: 0x878C, symBinAddr: 0x3E100, symSize: 0xA8 }
  - { offset: 0x22E280, size: 0x8, addend: 0x0, symName: __ZN11spirv_cross8Compiler20unset_execution_modeEN3spv13ExecutionModeE, symObjAddr: 0x878C, symBinAddr: 0x3E100, symSize: 0xA8 }
  - { offset: 0x22E2B6, size: 0x8, addend: 0x0, symName: __ZN11spirv_cross8Compiler20unset_execution_modeEN3spv13ExecutionModeE, symObjAddr: 0x878C, symBinAddr: 0x3E100, symSize: 0xA8 }
  - { offset: 0x22E2D7, size: 0x8, addend: 0x0, symName: __ZN11spirv_cross8Compiler20unset_execution_modeEN3spv13ExecutionModeE, symObjAddr: 0x878C, symBinAddr: 0x3E100, symSize: 0xA8 }
  - { offset: 0x22E4D8, size: 0x8, addend: 0x0, symName: __ZNK11spirv_cross8Compiler44get_work_group_size_specialization_constantsERNS_22SpecializationConstantES2_S2_, symObjAddr: 0x8834, symBinAddr: 0x3E1A8, symSize: 0x1D0 }
  - { offset: 0x22EB1C, size: 0x8, addend: 0x0, symName: __ZNK11spirv_cross8Compiler27get_execution_mode_argumentEN3spv13ExecutionModeEj, symObjAddr: 0x8A04, symBinAddr: 0x3E378, symSize: 0x16C }
  - { offset: 0x22EB7C, size: 0x8, addend: 0x0, symName: __ZNK11spirv_cross8Compiler27get_execution_mode_argumentEN3spv13ExecutionModeEj, symObjAddr: 0x8A04, symBinAddr: 0x3E378, symSize: 0x16C }
  - { offset: 0x22EB9A, size: 0x8, addend: 0x0, symName: __ZNK11spirv_cross8Compiler27get_execution_mode_argumentEN3spv13ExecutionModeEj, symObjAddr: 0x8A04, symBinAddr: 0x3E378, symSize: 0x16C }
  - { offset: 0x22EBC6, size: 0x8, addend: 0x0, symName: __ZNK11spirv_cross8Compiler27get_execution_mode_argumentEN3spv13ExecutionModeEj, symObjAddr: 0x8A04, symBinAddr: 0x3E378, symSize: 0x16C }
  - { offset: 0x22EBFC, size: 0x8, addend: 0x0, symName: __ZNK11spirv_cross8Compiler27get_execution_mode_argumentEN3spv13ExecutionModeEj, symObjAddr: 0x8A04, symBinAddr: 0x3E378, symSize: 0x16C }
  - { offset: 0x22EC1D, size: 0x8, addend: 0x0, symName: __ZNK11spirv_cross8Compiler27get_execution_mode_argumentEN3spv13ExecutionModeEj, symObjAddr: 0x8A04, symBinAddr: 0x3E378, symSize: 0x16C }
  - { offset: 0x22EE4B, size: 0x8, addend: 0x0, symName: __ZNK11spirv_cross8Compiler19get_execution_modelEv, symObjAddr: 0x8B70, symBinAddr: 0x3E4E4, symSize: 0x68 }
  - { offset: 0x22EE7B, size: 0x8, addend: 0x0, symName: __ZNK11spirv_cross8Compiler19get_execution_modelEv, symObjAddr: 0x8B70, symBinAddr: 0x3E4E4, symSize: 0x68 }
  - { offset: 0x22EE99, size: 0x8, addend: 0x0, symName: __ZNK11spirv_cross8Compiler19get_execution_modelEv, symObjAddr: 0x8B70, symBinAddr: 0x3E4E4, symSize: 0x68 }
  - { offset: 0x22EEC5, size: 0x8, addend: 0x0, symName: __ZNK11spirv_cross8Compiler19get_execution_modelEv, symObjAddr: 0x8B70, symBinAddr: 0x3E4E4, symSize: 0x68 }
  - { offset: 0x22EEFB, size: 0x8, addend: 0x0, symName: __ZNK11spirv_cross8Compiler19get_execution_modelEv, symObjAddr: 0x8B70, symBinAddr: 0x3E4E4, symSize: 0x68 }
  - { offset: 0x22EF1C, size: 0x8, addend: 0x0, symName: __ZNK11spirv_cross8Compiler19get_execution_modelEv, symObjAddr: 0x8B70, symBinAddr: 0x3E4E4, symSize: 0x68 }
  - { offset: 0x22F0BB, size: 0x8, addend: 0x0, symName: __ZN11spirv_cross8Compiler22is_tessellation_shaderEN3spv14ExecutionModelE, symObjAddr: 0x8BD8, symBinAddr: 0x3E54C, symSize: 0x10 }
  - { offset: 0x22F0DA, size: 0x8, addend: 0x0, symName: __ZNK11spirv_cross8Compiler21is_vertex_like_shaderEv, symObjAddr: 0x8BE8, symBinAddr: 0x3E55C, symSize: 0x70 }
  - { offset: 0x22F118, size: 0x8, addend: 0x0, symName: __ZNK11spirv_cross8Compiler21is_vertex_like_shaderEv, symObjAddr: 0x8BE8, symBinAddr: 0x3E55C, symSize: 0x70 }
  - { offset: 0x22F140, size: 0x8, addend: 0x0, symName: __ZNK11spirv_cross8Compiler21is_vertex_like_shaderEv, symObjAddr: 0x8BE8, symBinAddr: 0x3E55C, symSize: 0x70 }
  - { offset: 0x22F15E, size: 0x8, addend: 0x0, symName: __ZNK11spirv_cross8Compiler21is_vertex_like_shaderEv, symObjAddr: 0x8BE8, symBinAddr: 0x3E55C, symSize: 0x70 }
  - { offset: 0x22F18A, size: 0x8, addend: 0x0, symName: __ZNK11spirv_cross8Compiler21is_vertex_like_shaderEv, symObjAddr: 0x8BE8, symBinAddr: 0x3E55C, symSize: 0x70 }
  - { offset: 0x22F1C0, size: 0x8, addend: 0x0, symName: __ZNK11spirv_cross8Compiler21is_vertex_like_shaderEv, symObjAddr: 0x8BE8, symBinAddr: 0x3E55C, symSize: 0x70 }
  - { offset: 0x22F1E1, size: 0x8, addend: 0x0, symName: __ZNK11spirv_cross8Compiler21is_vertex_like_shaderEv, symObjAddr: 0x8BE8, symBinAddr: 0x3E55C, symSize: 0x70 }
  - { offset: 0x22F398, size: 0x8, addend: 0x0, symName: __ZNK11spirv_cross8Compiler22is_tessellation_shaderEv, symObjAddr: 0x8C58, symBinAddr: 0x3E5CC, symSize: 0x74 }
  - { offset: 0x22F3C5, size: 0x8, addend: 0x0, symName: __ZNK11spirv_cross8Compiler22is_tessellation_shaderEv, symObjAddr: 0x8C58, symBinAddr: 0x3E5CC, symSize: 0x74 }
  - { offset: 0x22F3ED, size: 0x8, addend: 0x0, symName: __ZNK11spirv_cross8Compiler22is_tessellation_shaderEv, symObjAddr: 0x8C58, symBinAddr: 0x3E5CC, symSize: 0x74 }
  - { offset: 0x22F40B, size: 0x8, addend: 0x0, symName: __ZNK11spirv_cross8Compiler22is_tessellation_shaderEv, symObjAddr: 0x8C58, symBinAddr: 0x3E5CC, symSize: 0x74 }
  - { offset: 0x22F437, size: 0x8, addend: 0x0, symName: __ZNK11spirv_cross8Compiler22is_tessellation_shaderEv, symObjAddr: 0x8C58, symBinAddr: 0x3E5CC, symSize: 0x74 }
  - { offset: 0x22F46D, size: 0x8, addend: 0x0, symName: __ZNK11spirv_cross8Compiler22is_tessellation_shaderEv, symObjAddr: 0x8C58, symBinAddr: 0x3E5CC, symSize: 0x74 }
  - { offset: 0x22F48E, size: 0x8, addend: 0x0, symName: __ZNK11spirv_cross8Compiler22is_tessellation_shaderEv, symObjAddr: 0x8C58, symBinAddr: 0x3E5CC, symSize: 0x74 }
  - { offset: 0x22F668, size: 0x8, addend: 0x0, symName: __ZNK11spirv_cross8Compiler25is_tessellating_trianglesEv, symObjAddr: 0x8CCC, symBinAddr: 0x3E640, symSize: 0x6C }
  - { offset: 0x22F695, size: 0x8, addend: 0x0, symName: __ZNK11spirv_cross8Compiler25is_tessellating_trianglesEv, symObjAddr: 0x8CCC, symBinAddr: 0x3E640, symSize: 0x6C }
  - { offset: 0x22F6B3, size: 0x8, addend: 0x0, symName: __ZNK11spirv_cross8Compiler25is_tessellating_trianglesEv, symObjAddr: 0x8CCC, symBinAddr: 0x3E640, symSize: 0x6C }
  - { offset: 0x22F6D1, size: 0x8, addend: 0x0, symName: __ZNK11spirv_cross8Compiler25is_tessellating_trianglesEv, symObjAddr: 0x8CCC, symBinAddr: 0x3E640, symSize: 0x6C }
  - { offset: 0x22F6FD, size: 0x8, addend: 0x0, symName: __ZNK11spirv_cross8Compiler25is_tessellating_trianglesEv, symObjAddr: 0x8CCC, symBinAddr: 0x3E640, symSize: 0x6C }
  - { offset: 0x22F733, size: 0x8, addend: 0x0, symName: __ZNK11spirv_cross8Compiler25is_tessellating_trianglesEv, symObjAddr: 0x8CCC, symBinAddr: 0x3E640, symSize: 0x6C }
  - { offset: 0x22F754, size: 0x8, addend: 0x0, symName: __ZNK11spirv_cross8Compiler25is_tessellating_trianglesEv, symObjAddr: 0x8CCC, symBinAddr: 0x3E640, symSize: 0x6C }
  - { offset: 0x22F912, size: 0x8, addend: 0x0, symName: __ZN11spirv_cross8Compiler27set_remapped_variable_stateENS_7TypedIDILNS_5TypesE2EEEb, symObjAddr: 0x8D38, symBinAddr: 0x3E6AC, symSize: 0x30 }
  - { offset: 0x22F9D0, size: 0x8, addend: 0x0, symName: __ZNK11spirv_cross8Compiler27get_remapped_variable_stateENS_7TypedIDILNS_5TypesE2EEE, symObjAddr: 0x8D68, symBinAddr: 0x3E6DC, symSize: 0x24 }
  - { offset: 0x22FA82, size: 0x8, addend: 0x0, symName: __ZN11spirv_cross8Compiler37set_subpass_input_remapped_componentsENS_7TypedIDILNS_5TypesE2EEEj, symObjAddr: 0x8D8C, symBinAddr: 0x3E700, symSize: 0x30 }
  - { offset: 0x22FB45, size: 0x8, addend: 0x0, symName: __ZNK11spirv_cross8Compiler37get_subpass_input_remapped_componentsENS_7TypedIDILNS_5TypesE2EEE, symObjAddr: 0x8DBC, symBinAddr: 0x3E730, symSize: 0x24 }
  - { offset: 0x22FC0D, size: 0x8, addend: 0x0, symName: __ZN11spirv_cross8Compiler27add_implied_read_expressionERNS_14SPIRExpressionEj, symObjAddr: 0x8DE0, symBinAddr: 0x3E754, symSize: 0x100 }
  - { offset: 0x22FD61, size: 0x8, addend: 0x0, symName: __ZN11spirv_cross8Compiler27add_implied_read_expressionERNS_15SPIRAccessChainEj, symObjAddr: 0x8EE0, symBinAddr: 0x3E854, symSize: 0x100 }
  - { offset: 0x22FEF2, size: 0x8, addend: 0x0, symName: __ZN11spirv_cross8Compiler29add_active_interface_variableEj, symObjAddr: 0x8FE0, symBinAddr: 0x3E954, symSize: 0x180 }
  - { offset: 0x2304B9, size: 0x8, addend: 0x0, symName: __ZN11spirv_cross8Compiler31inherit_expression_dependenciesEjj, symObjAddr: 0x9160, symBinAddr: 0x3EAD4, symSize: 0x340 }
  - { offset: 0x230558, size: 0x8, addend: 0x0, symName: __ZN11spirv_cross8Compiler31inherit_expression_dependenciesEjj, symObjAddr: 0x9160, symBinAddr: 0x3EAD4, symSize: 0x340 }
  - { offset: 0x230579, size: 0x8, addend: 0x0, symName: __ZN11spirv_cross8Compiler31inherit_expression_dependenciesEjj, symObjAddr: 0x9160, symBinAddr: 0x3EAD4, symSize: 0x340 }
  - { offset: 0x2305A4, size: 0x8, addend: 0x0, symName: __ZN11spirv_cross8Compiler31inherit_expression_dependenciesEjj, symObjAddr: 0x9160, symBinAddr: 0x3EAD4, symSize: 0x340 }
  - { offset: 0x2305C5, size: 0x8, addend: 0x0, symName: __ZN11spirv_cross8Compiler31inherit_expression_dependenciesEjj, symObjAddr: 0x9160, symBinAddr: 0x3EAD4, symSize: 0x340 }
  - { offset: 0x230FC0, size: 0x8, addend: 0x0, symName: __ZN11spirv_cross11SmallVectorINS_7TypedIDILNS_5TypesE0EEELm8EE6insertEPS3_PKS3_S7_, symObjAddr: 0x94A0, symBinAddr: 0x3EE14, symSize: 0x694 }
  - { offset: 0x2313AF, size: 0x8, addend: 0x0, symName: __ZNK11spirv_cross8Compiler27get_entry_points_and_stagesEv, symObjAddr: 0x9B34, symBinAddr: 0x3F4A8, symSize: 0xE4 }
  - { offset: 0x231716, size: 0x8, addend: 0x0, symName: __ZN11spirv_cross11SmallVectorINS_10EntryPointELm8EE7reserveEm, symObjAddr: 0x1B014, symBinAddr: 0x4ECF0, symSize: 0x114 }
  - { offset: 0x2319A5, size: 0x8, addend: 0x0, symName: __ZN11spirv_cross11SmallVectorINS_10EntryPointELm8EED1Ev, symObjAddr: 0x9C18, symBinAddr: 0x3F58C, symSize: 0x84 }
  - { offset: 0x231B9B, size: 0x8, addend: 0x0, symName: __ZN11spirv_cross8Compiler18rename_entry_pointERKNSt3__112basic_stringIcNS1_11char_traitsIcEENS1_9allocatorIcEEEES9_N3spv14ExecutionModelE, symObjAddr: 0x9C9C, symBinAddr: 0x3F610, symSize: 0x3C }
  - { offset: 0x231C30, size: 0x8, addend: 0x0, symName: __ZN11spirv_cross8Compiler15get_entry_pointERKNSt3__112basic_stringIcNS1_11char_traitsIcEENS1_9allocatorIcEEEEN3spv14ExecutionModelE, symObjAddr: 0x9CD8, symBinAddr: 0x3F64C, symSize: 0x1C4 }
  - { offset: 0x23273A, size: 0x8, addend: 0x0, symName: __ZN11spirv_cross14SPIREntryPointC2ERKS0_, symObjAddr: 0x1B128, symBinAddr: 0x4EE04, symSize: 0x210 }
  - { offset: 0x232B57, size: 0x8, addend: 0x0, symName: __ZN11spirv_cross8Compiler15set_entry_pointERKNSt3__112basic_stringIcNS1_11char_traitsIcEENS1_9allocatorIcEEEEN3spv14ExecutionModelE, symObjAddr: 0x9E9C, symBinAddr: 0x3F810, symSize: 0x28 }
  - { offset: 0x232BDB, size: 0x8, addend: 0x0, symName: __ZN11spirv_cross8Compiler21get_first_entry_pointERKNSt3__112basic_stringIcNS1_11char_traitsIcEENS1_9allocatorIcEEEE, symObjAddr: 0x9EC4, symBinAddr: 0x3F838, symSize: 0x1AC }
  - { offset: 0x233524, size: 0x8, addend: 0x0, symName: __ZNK11spirv_cross8Compiler21get_first_entry_pointERKNSt3__112basic_stringIcNS1_11char_traitsIcEENS1_9allocatorIcEEEE, symObjAddr: 0xA070, symBinAddr: 0x3F9E4, symSize: 0x1AC }
  - { offset: 0x233E75, size: 0x8, addend: 0x0, symName: __ZNK11spirv_cross8Compiler15get_entry_pointERKNSt3__112basic_stringIcNS1_11char_traitsIcEENS1_9allocatorIcEEEEN3spv14ExecutionModelE, symObjAddr: 0xA21C, symBinAddr: 0x3FB90, symSize: 0x1C4 }
  - { offset: 0x23477B, size: 0x8, addend: 0x0, symName: __ZNK11spirv_cross8Compiler29get_cleansed_entry_point_nameERKNSt3__112basic_stringIcNS1_11char_traitsIcEENS1_9allocatorIcEEEEN3spv14ExecutionModelE, symObjAddr: 0xA3E0, symBinAddr: 0x3FD54, symSize: 0x18 }
  - { offset: 0x234DCF, size: 0x8, addend: 0x0, symName: __ZN11spirv_cross8Compiler27CombinedImageSamplerHandler21push_remap_parametersERKNS_12SPIRFunctionEPKjj, symObjAddr: 0xA3F8, symBinAddr: 0x3FD6C, symSize: 0x1F0 }
  - { offset: 0x235573, size: 0x8, addend: 0x0, symName: __ZN11spirv_cross8Compiler27CombinedImageSamplerHandler15remap_parameterEj, symObjAddr: 0xA5E8, symBinAddr: 0x3FF5C, symSize: 0x11C }
  - { offset: 0x2358BA, size: 0x8, addend: 0x0, symName: __ZNSt3__112__hash_tableINS_17__hash_value_typeIjjEENS_22__unordered_map_hasherIjNS_4pairIKjjEENS_4hashIjEENS_8equal_toIjEELb1EEENS_21__unordered_map_equalIjS6_SA_S8_Lb1EEENS_9allocatorIS6_EEE25__emplace_unique_key_argsIjJRKNS_21piecewise_construct_tENS_5tupleIJOjEEENSL_IJEEEEEENS4_INS_15__hash_iteratorIPNS_11__hash_nodeIS2_PvEEEEbEERKT_DpOT0_, symObjAddr: 0x1B45C, symBinAddr: 0x4F138, symSize: 0x2B0 }
  - { offset: 0x23602E, size: 0x8, addend: 0x0, symName: __ZNSt3__15dequeINS_13unordered_mapIjjNS_4hashIjEENS_8equal_toIjEENS_9allocatorINS_4pairIKjjEEEEEENS6_ISB_EEE19__add_back_capacityEv, symObjAddr: 0x1B844, symBinAddr: 0x4F3E8, symSize: 0x240 }
  - { offset: 0x236C59, size: 0x8, addend: 0x0, symName: __ZN11spirv_cross8Compiler27CombinedImageSamplerHandler20pop_remap_parametersEv, symObjAddr: 0xA74C, symBinAddr: 0x40078, symSize: 0x8 }
  - { offset: 0x236CA0, size: 0x8, addend: 0x0, symName: __ZNSt3__15dequeINS_13unordered_mapIjjNS_4hashIjEENS_8equal_toIjEENS_9allocatorINS_4pairIKjjEEEEEENS6_ISB_EEE8pop_backEv, symObjAddr: 0x1C08C, symBinAddr: 0x4F92C, symSize: 0xDC }
  - { offset: 0x237314, size: 0x8, addend: 0x0, symName: __ZN11spirv_cross8Compiler27CombinedImageSamplerHandler20begin_function_scopeEPKjj, symObjAddr: 0xA754, symBinAddr: 0x40080, symSize: 0xC8 }
  - { offset: 0x23756A, size: 0x8, addend: 0x0, symName: __ZNSt3__15dequeIPN11spirv_cross12SPIRFunctionENS_9allocatorIS3_EEE19__add_back_capacityEv, symObjAddr: 0x1C168, symBinAddr: 0x4FA08, symSize: 0x240 }
  - { offset: 0x23810E, size: 0x8, addend: 0x0, symName: __ZN11spirv_cross8Compiler27CombinedImageSamplerHandler18end_function_scopeEPKjj, symObjAddr: 0xA81C, symBinAddr: 0x40148, symSize: 0x1B4 }
  - { offset: 0x2387A7, size: 0x8, addend: 0x0, symName: __ZN11spirv_cross8Compiler27CombinedImageSamplerHandler31register_combined_image_samplerERNS_12SPIRFunctionENS_7TypedIDILNS_5TypesE2EEES6_S6_b, symObjAddr: 0xA9D0, symBinAddr: 0x402FC, symSize: 0x60C }
  - { offset: 0x239AD7, size: 0x8, addend: 0x0, symName: __ZN11spirv_cross10ObjectPoolINS_8SPIRTypeEE8allocateIJN3spv2OpEEEEPS1_DpOT_, symObjAddr: 0x1C9B0, symBinAddr: 0x4FC48, symSize: 0x174 }
  - { offset: 0x239ED6, size: 0x8, addend: 0x0, symName: __ZN11spirv_cross7Variant3setEPNS_8IVariantENS_5TypesE, symObjAddr: 0x1CB24, symBinAddr: 0x4FDBC, symSize: 0xC4 }
  - { offset: 0x239F8F, size: 0x8, addend: 0x0, symName: __ZN11spirv_cross8SPIRTypeaSERKS0_, symObjAddr: 0xAFDC, symBinAddr: 0x40908, symSize: 0x3F8 }
  - { offset: 0x23A217, size: 0x8, addend: 0x0, symName: __ZN11spirv_cross10ObjectPoolINS_12SPIRVariableEE8allocateIJRjN3spv12StorageClassEiEEEPS1_DpOT_, symObjAddr: 0x1D778, symBinAddr: 0x50A10, symSize: 0x158 }
  - { offset: 0x23A5CB, size: 0x8, addend: 0x0, symName: __ZN11spirv_cross11SmallVectorINS_12SPIRFunction29CombinedImageSamplerParameterELm8EE7reserveEm, symObjAddr: 0x1DE88, symBinAddr: 0x50F50, symSize: 0xCC }
  - { offset: 0x23A676, size: 0x8, addend: 0x0, symName: __ZN11spirv_cross11SmallVectorINS_12SPIRFunction9ParameterELm8EE7reserveEm, symObjAddr: 0x175B4, symBinAddr: 0x4BA08, symSize: 0xE8 }
  - { offset: 0x23A89B, size: 0x8, addend: 0x0, symName: __ZN11spirv_cross11SmallVectorIbLm8EE7reserveEm, symObjAddr: 0x1D638, symBinAddr: 0x508D0, symSize: 0x140 }
  - { offset: 0x23A9C1, size: 0x8, addend: 0x0, symName: __ZNSt3__112__hash_tableINS_12basic_stringIcNS_11char_traitsIcEENS_9allocatorIcEEEENS_4hashIS6_EENS_8equal_toIS6_EENS4_IS6_EEE14__assign_multiINS_21__hash_const_iteratorIPNS_11__hash_nodeIS6_PvEEEEEEvT_SK_, symObjAddr: 0x15D20, symBinAddr: 0x4A754, symSize: 0x124 }
  - { offset: 0x23AEF3, size: 0x8, addend: 0x0, symName: __ZN11spirv_cross8Compiler35DummySamplerForCombinedImageHandler6handleEN3spv2OpEPKjj, symObjAddr: 0xB574, symBinAddr: 0x40EA0, symSize: 0x228 }
  - { offset: 0x23B2C0, size: 0x8, addend: 0x0, symName: __ZN11spirv_cross8Compiler3setINS_14SPIRExpressionEJRA1_KcRjbEEERT_jDpOT0_, symObjAddr: 0xB79C, symBinAddr: 0x410C8, symSize: 0x94 }
  - { offset: 0x23B4E5, size: 0x8, addend: 0x0, symName: __ZN11spirv_cross10ObjectPoolINS_14SPIRExpressionEE8allocateIJRA1_KcRjbEEEPS1_DpOT_, symObjAddr: 0x1DF54, symBinAddr: 0x5101C, symSize: 0x1CC }
  - { offset: 0x23BBA4, size: 0x8, addend: 0x0, symName: __ZN11spirv_cross8Compiler27CombinedImageSamplerHandler6handleEN3spv2OpEPKjj, symObjAddr: 0xB830, symBinAddr: 0x4115C, symSize: 0x844 }
  - { offset: 0x23CCF7, size: 0x8, addend: 0x0, symName: __ZN11spirv_cross11SmallVectorINS_20CombinedImageSamplerELm8EE7reserveEm, symObjAddr: 0x1E744, symBinAddr: 0x5163C, symSize: 0xEC }
  - { offset: 0x23CE2F, size: 0x8, addend: 0x0, symName: __ZN11spirv_cross8Compiler39build_dummy_sampler_for_combined_imagesEv, symObjAddr: 0xC074, symBinAddr: 0x419A0, symSize: 0x264 }
  - { offset: 0x23D8B8, size: 0x8, addend: 0x0, symName: __ZN11spirv_cross8Compiler29build_combined_image_samplersEb, symObjAddr: 0xC2DC, symBinAddr: 0x41C04, symSize: 0x34C }
  - { offset: 0x23F06B, size: 0x8, addend: 0x0, symName: __ZN11spirv_cross8Compiler27CombinedImageSamplerHandlerD1Ev, symObjAddr: 0xC628, symBinAddr: 0x41F50, symSize: 0x84 }
  - { offset: 0x23F313, size: 0x8, addend: 0x0, symName: __ZNSt3__15dequeIPN11spirv_cross12SPIRFunctionENS_9allocatorIS3_EEED2B9nqe210106Ev, symObjAddr: 0x16488, symBinAddr: 0x4AEBC, symSize: 0xC4 }
  - { offset: 0x23F6A8, size: 0x8, addend: 0x0, symName: __ZNSt3__15dequeINS_13unordered_mapIjjNS_4hashIjEENS_8equal_toIjEENS_9allocatorINS_4pairIKjjEEEEEENS6_ISB_EEE5clearEv, symObjAddr: 0x1654C, symBinAddr: 0x4AF80, symSize: 0x148 }
  - { offset: 0x23FBCD, size: 0x8, addend: 0x0, symName: __ZNK11spirv_cross8Compiler28get_specialization_constantsEv, symObjAddr: 0xC6AC, symBinAddr: 0x41FD4, symSize: 0x140 }
  - { offset: 0x2400F2, size: 0x8, addend: 0x0, symName: __ZN11spirv_cross11SmallVectorINS_22SpecializationConstantELm8EE7reserveEm, symObjAddr: 0x1E830, symBinAddr: 0x51728, symSize: 0xC4 }
  - { offset: 0x2401C8, size: 0x8, addend: 0x0, symName: __ZN11spirv_cross8Compiler12get_constantENS_7TypedIDILNS_5TypesE3EEE, symObjAddr: 0xC7EC, symBinAddr: 0x42114, symSize: 0x10 }
  - { offset: 0x240204, size: 0x8, addend: 0x0, symName: __ZN11spirv_cross8Compiler12get_constantENS_7TypedIDILNS_5TypesE3EEE, symObjAddr: 0xC7EC, symBinAddr: 0x42114, symSize: 0x10 }
  - { offset: 0x24022C, size: 0x8, addend: 0x0, symName: __ZN11spirv_cross8Compiler12get_constantENS_7TypedIDILNS_5TypesE3EEE, symObjAddr: 0xC7EC, symBinAddr: 0x42114, symSize: 0x10 }
  - { offset: 0x240278, size: 0x8, addend: 0x0, symName: __ZNK11spirv_cross8Compiler12get_constantENS_7TypedIDILNS_5TypesE3EEE, symObjAddr: 0xC7FC, symBinAddr: 0x42124, symSize: 0x10 }
  - { offset: 0x2402B4, size: 0x8, addend: 0x0, symName: __ZNK11spirv_cross8Compiler12get_constantENS_7TypedIDILNS_5TypesE3EEE, symObjAddr: 0xC7FC, symBinAddr: 0x42124, symSize: 0x10 }
  - { offset: 0x2402DC, size: 0x8, addend: 0x0, symName: __ZNK11spirv_cross8Compiler12get_constantENS_7TypedIDILNS_5TypesE3EEE, symObjAddr: 0xC7FC, symBinAddr: 0x42124, symSize: 0x10 }
  - { offset: 0x240457, size: 0x8, addend: 0x0, symName: __ZN11spirv_cross8Compiler30analyze_parameter_preservationERNS_12SPIRFunctionERKNS_3CFGERKNSt3__113unordered_mapIjNS6_13unordered_setIjNS6_4hashIjEENS6_8equal_toIjEENS6_9allocatorIjEEEESA_SC_NSD_INS6_4pairIKjSF_EEEEEESM_, symObjAddr: 0xC80C, symBinAddr: 0x42134, symSize: 0x284 }
  - { offset: 0x240CE9, size: 0x8, addend: 0x0, symName: __ZL32exists_unaccessed_path_to_returnRKN11spirv_cross3CFGEjRKNSt3__113unordered_setIjNS3_4hashIjEENS3_8equal_toIjEENS3_9allocatorIjEEEERSB_, symObjAddr: 0xCA90, symBinAddr: 0x423B8, symSize: 0x330 }
  - { offset: 0x2417B9, size: 0x8, addend: 0x0, symName: __ZN11spirv_cross8Compiler33AnalyzeVariableScopeAccessHandlerC2ERS0_RNS_12SPIRFunctionE, symObjAddr: 0xCDC0, symBinAddr: 0x426E8, symSize: 0x68 }
  - { offset: 0x241DB5, size: 0x8, addend: 0x0, symName: __ZN11spirv_cross8Compiler33AnalyzeVariableScopeAccessHandlerC1ERS0_RNS_12SPIRFunctionE, symObjAddr: 0xCE28, symBinAddr: 0x42750, symSize: 0x68 }
  - { offset: 0x241DE9, size: 0x8, addend: 0x0, symName: __ZN11spirv_cross8Compiler33AnalyzeVariableScopeAccessHandlerC1ERS0_RNS_12SPIRFunctionE, symObjAddr: 0xCE28, symBinAddr: 0x42750, symSize: 0x68 }
  - { offset: 0x2423A6, size: 0x8, addend: 0x0, symName: __ZN11spirv_cross8Compiler33AnalyzeVariableScopeAccessHandler20follow_function_callERKNS_12SPIRFunctionE, symObjAddr: 0xCE90, symBinAddr: 0x427B8, symSize: 0x8 }
  - { offset: 0x2423F0, size: 0x8, addend: 0x0, symName: __ZN11spirv_cross8Compiler33AnalyzeVariableScopeAccessHandler17set_current_blockERKNS_9SPIRBlockE, symObjAddr: 0xCE98, symBinAddr: 0x427C0, symSize: 0xD8 }
  - { offset: 0x2426F5, size: 0x8, addend: 0x0, symName: __ZN11spirv_cross8Compiler33AnalyzeVariableScopeAccessHandler22notify_variable_accessEjj, symObjAddr: 0xCF70, symBinAddr: 0x42898, symSize: 0x1B4 }
  - { offset: 0x242C99, size: 0x8, addend: 0x0, symName: '__ZZN11spirv_cross8Compiler33AnalyzeVariableScopeAccessHandler17set_current_blockERKNS_9SPIRBlockEENK3$_0clEj', symObjAddr: 0xD124, symBinAddr: 0x42A4C, symSize: 0x134 }
  - { offset: 0x2431D5, size: 0x8, addend: 0x0, symName: __ZNSt3__112__hash_tableINS_17__hash_value_typeIjNS_13unordered_setIjNS_4hashIjEENS_8equal_toIjEENS_9allocatorIjEEEEEENS_22__unordered_map_hasherIjNS_4pairIKjS9_EES4_S6_Lb1EEENS_21__unordered_map_equalIjSE_S6_S4_Lb1EEENS7_ISE_EEE25__emplace_unique_key_argsIjJRKNS_21piecewise_construct_tENS_5tupleIJRSD_EEENSO_IJEEEEEENSC_INS_15__hash_iteratorIPNS_11__hash_nodeISA_PvEEEEbEERKT_DpOT0_, symObjAddr: 0x1ED7C, symBinAddr: 0x51B3C, symSize: 0x2E0 }
  - { offset: 0x243A1B, size: 0x8, addend: 0x0, symName: __ZNSt3__112__hash_tableINS_17__hash_value_typeIjNS_13unordered_setIjNS_4hashIjEENS_8equal_toIjEENS_9allocatorIjEEEEEENS_22__unordered_map_hasherIjNS_4pairIKjS9_EES4_S6_Lb1EEENS_21__unordered_map_equalIjSE_S6_S4_Lb1EEENS7_ISE_EEE25__emplace_unique_key_argsIjJRKNS_21piecewise_construct_tENS_5tupleIJOjEEENSO_IJEEEEEENSC_INS_15__hash_iteratorIPNS_11__hash_nodeISA_PvEEEEbEERKT_DpOT0_, symObjAddr: 0x1E8F4, symBinAddr: 0x517EC, symSize: 0x2E0 }
  - { offset: 0x244222, size: 0x8, addend: 0x0, symName: __ZNK11spirv_cross8Compiler33AnalyzeVariableScopeAccessHandler18id_is_phi_variableEj, symObjAddr: 0xD258, symBinAddr: 0x42B80, symSize: 0x58 }
  - { offset: 0x24434E, size: 0x8, addend: 0x0, symName: __ZNK11spirv_cross8Compiler33AnalyzeVariableScopeAccessHandler25id_is_potential_temporaryEj, symObjAddr: 0xD2B0, symBinAddr: 0x42BD8, symSize: 0x44 }
  - { offset: 0x244418, size: 0x8, addend: 0x0, symName: __ZN11spirv_cross8Compiler33AnalyzeVariableScopeAccessHandler17handle_terminatorERKNS_9SPIRBlockE, symObjAddr: 0xD2F4, symBinAddr: 0x42C1C, symSize: 0x48 }
  - { offset: 0x24469E, size: 0x8, addend: 0x0, symName: __ZN11spirv_cross8Compiler33AnalyzeVariableScopeAccessHandler6handleEN3spv2OpEPKjj, symObjAddr: 0xD33C, symBinAddr: 0x42C64, symSize: 0xD00 }
  - { offset: 0x246951, size: 0x8, addend: 0x0, symName: __ZNSt3__112__hash_tableINS_17__hash_value_typeIjjEENS_22__unordered_map_hasherIjNS_4pairIKjjEENS_4hashIjEENS_8equal_toIjEELb1EEENS_21__unordered_map_equalIjS6_SA_S8_Lb1EEENS_9allocatorIS6_EEE25__emplace_unique_key_argsIjJRKNS_21piecewise_construct_tENS_5tupleIJRS5_EEENSL_IJEEEEEENS4_INS_15__hash_iteratorIPNS_11__hash_nodeIS2_PvEEEEbEERKT_DpOT0_, symObjAddr: 0x1F05C, symBinAddr: 0x51E1C, symSize: 0x2B0 }
  - { offset: 0x24742D, size: 0x8, addend: 0x0, symName: __ZNSt3__112__hash_tableINS_17__hash_value_typeIN11spirv_cross7TypedIDILNS2_5TypesE6EEES5_EENS_22__unordered_map_hasherIS5_NS_4pairIKS5_S5_EENS_4hashIS5_EENS_8equal_toIS5_EELb1EEENS_21__unordered_map_equalIS5_SA_SE_SC_Lb1EEENS_9allocatorISA_EEE25__emplace_unique_key_argsIS5_JRKNS_21piecewise_construct_tENS_5tupleIJOS5_EEENSP_IJEEEEEENS8_INS_15__hash_iteratorIPNS_11__hash_nodeIS6_PvEEEEbEERKT_DpOT0_, symObjAddr: 0x1F4D8, symBinAddr: 0x520CC, symSize: 0x2B0 }
  - { offset: 0x24744D, size: 0x8, addend: 0x0, symName: __ZNKSt3__113unordered_setIjNS_4hashIjEENS_8equal_toIjEENS_9allocatorIjEEE5countB9nqe210106ERKj, symObjAddr: 0xE0B8, symBinAddr: 0x439E0, symSize: 0xAC }
  - { offset: 0x24747B, size: 0x8, addend: 0x0, symName: __ZNKSt3__113unordered_setIjNS_4hashIjEENS_8equal_toIjEENS_9allocatorIjEEE5countB9nqe210106ERKj, symObjAddr: 0xE0B8, symBinAddr: 0x439E0, symSize: 0xAC }
  - { offset: 0x2474A3, size: 0x8, addend: 0x0, symName: __ZNKSt3__113unordered_setIjNS_4hashIjEENS_8equal_toIjEENS_9allocatorIjEEE5countB9nqe210106ERKj, symObjAddr: 0xE0B8, symBinAddr: 0x439E0, symSize: 0xAC }
  - { offset: 0x2474D5, size: 0x8, addend: 0x0, symName: __ZNKSt3__113unordered_setIjNS_4hashIjEENS_8equal_toIjEENS_9allocatorIjEEE5countB9nqe210106ERKj, symObjAddr: 0xE0B8, symBinAddr: 0x439E0, symSize: 0xAC }
  - { offset: 0x2474F3, size: 0x8, addend: 0x0, symName: __ZNKSt3__113unordered_setIjNS_4hashIjEENS_8equal_toIjEENS_9allocatorIjEEE5countB9nqe210106ERKj, symObjAddr: 0xE0B8, symBinAddr: 0x439E0, symSize: 0xAC }
  - { offset: 0x24760F, size: 0x8, addend: 0x0, symName: __ZN11spirv_cross8Compiler26instruction_to_result_typeERjS1_N3spv2OpEPKjj, symObjAddr: 0xE03C, symBinAddr: 0x43964, symSize: 0x7C }
  - { offset: 0x247695, size: 0x8, addend: 0x0, symName: __ZNK11spirv_cross8Compiler20type_is_opaque_valueERKNS_8SPIRTypeE, symObjAddr: 0xE164, symBinAddr: 0x43A8C, symSize: 0x1C }
  - { offset: 0x2476C0, size: 0x8, addend: 0x0, symName: __ZN11spirv_cross8Compiler29StaticExpressionAccessHandlerC2ERS0_j, symObjAddr: 0xE180, symBinAddr: 0x43AA8, symSize: 0x18 }
  - { offset: 0x24772B, size: 0x8, addend: 0x0, symName: __ZN11spirv_cross8Compiler29StaticExpressionAccessHandlerC1ERS0_j, symObjAddr: 0xE198, symBinAddr: 0x43AC0, symSize: 0x18 }
  - { offset: 0x24775F, size: 0x8, addend: 0x0, symName: __ZN11spirv_cross8Compiler29StaticExpressionAccessHandlerC1ERS0_j, symObjAddr: 0xE198, symBinAddr: 0x43AC0, symSize: 0x18 }
  - { offset: 0x24778B, size: 0x8, addend: 0x0, symName: __ZN11spirv_cross8Compiler29StaticExpressionAccessHandler20follow_function_callERKNS_12SPIRFunctionE, symObjAddr: 0xE1B0, symBinAddr: 0x43AD8, symSize: 0x8 }
  - { offset: 0x2477BA, size: 0x8, addend: 0x0, symName: __ZN11spirv_cross8Compiler29StaticExpressionAccessHandler6handleEN3spv2OpEPKjj, symObjAddr: 0xE1B8, symBinAddr: 0x43AE0, symSize: 0x98 }
  - { offset: 0x2479D3, size: 0x8, addend: 0x0, symName: __ZN11spirv_cross8Compiler24find_function_local_lutsERNS_12SPIRFunctionERKNS0_33AnalyzeVariableScopeAccessHandlerEb, symObjAddr: 0xE250, symBinAddr: 0x43B78, symSize: 0x4FC }
  - { offset: 0x24904E, size: 0x8, addend: 0x0, symName: __ZN11spirv_cross8Compiler22analyze_variable_scopeERNS_12SPIRFunctionERNS0_33AnalyzeVariableScopeAccessHandlerE, symObjAddr: 0xE750, symBinAddr: 0x44074, symSize: 0x1184 }
  - { offset: 0x24CC89, size: 0x8, addend: 0x0, symName: __ZNSt3__112__hash_tableINS_17__hash_value_typeIN11spirv_cross7TypedIDILNS2_5TypesE6EEES5_EENS_22__unordered_map_hasherIS5_NS_4pairIKS5_S5_EENS_4hashIS5_EENS_8equal_toIS5_EELb1EEENS_21__unordered_map_equalIS5_SA_SE_SC_Lb1EEENS_9allocatorISA_EEE25__emplace_unique_key_argsIS5_JRKNS_21piecewise_construct_tENS_5tupleIJOS5_EEENSP_IJEEEEEENS8_INS_15__hash_iteratorIPNS_11__hash_nodeIS6_PvEEEEbEERKT_DpOT0_, symObjAddr: 0x1F4D8, symBinAddr: 0x520CC, symSize: 0x2B0 }
  - { offset: 0x24D466, size: 0x8, addend: 0x0, symName: __ZN11spirv_cross8Compiler36may_read_undefined_variable_in_blockERKNS_9SPIRBlockEj, symObjAddr: 0xF8D4, symBinAddr: 0x451F8, symSize: 0x1AC }
  - { offset: 0x24D726, size: 0x8, addend: 0x0, symName: '__ZNK11spirv_cross3CFG9walk_fromIZNS_8Compiler22analyze_variable_scopeERNS_12SPIRFunctionERNS2_33AnalyzeVariableScopeAccessHandlerEE3$_0EEvRNSt3__113unordered_setIjNS8_4hashIjEENS8_8equal_toIjEENS8_9allocatorIjEEEEjRKT_', symObjAddr: 0xFA80, symBinAddr: 0x453A4, symSize: 0x280 }
  - { offset: 0x24DDB9, size: 0x8, addend: 0x0, symName: __ZNK11spirv_cross8Compiler22get_buffer_block_flagsENS_7TypedIDILNS_5TypesE2EEE, symObjAddr: 0xFD00, symBinAddr: 0x45624, symSize: 0x3C }
  - { offset: 0x24DE83, size: 0x8, addend: 0x0, symName: __ZN11spirv_cross8Compiler21get_common_basic_typeERKNS_8SPIRTypeERNS1_8BaseTypeE, symObjAddr: 0xFD3C, symBinAddr: 0x45660, symSize: 0xB8 }
  - { offset: 0x24E02B, size: 0x8, addend: 0x0, symName: __ZN11spirv_cross8Compiler20ActiveBuiltinHandler14handle_builtinERKNS_8SPIRTypeEN3spv7BuiltInERKNS_6BitsetE, symObjAddr: 0xFDF4, symBinAddr: 0x45718, symSize: 0x154 }
  - { offset: 0x24E2F6, size: 0x8, addend: 0x0, symName: __ZN11spirv_cross8Compiler20ActiveBuiltinHandler14add_if_builtinEjb, symObjAddr: 0xFF48, symBinAddr: 0x4586C, symSize: 0x21C }
  - { offset: 0x24EA66, size: 0x8, addend: 0x0, symName: __ZN11spirv_cross8Compiler20ActiveBuiltinHandler14add_if_builtinEj, symObjAddr: 0x10164, symBinAddr: 0x45A88, symSize: 0x8 }
  - { offset: 0x24EAB4, size: 0x8, addend: 0x0, symName: __ZN11spirv_cross8Compiler20ActiveBuiltinHandler23add_if_builtin_or_blockEj, symObjAddr: 0x1016C, symBinAddr: 0x45A90, symSize: 0x8 }
  - { offset: 0x24EB2C, size: 0x8, addend: 0x0, symName: __ZN11spirv_cross8Compiler20ActiveBuiltinHandler6handleEN3spv2OpEPKjj, symObjAddr: 0x10174, symBinAddr: 0x45A98, symSize: 0x3B0 }
  - { offset: 0x24F485, size: 0x8, addend: 0x0, symName: __ZN11spirv_cross8Compiler22update_active_builtinsEv, symObjAddr: 0x10524, symBinAddr: 0x45E48, symSize: 0x1D0 }
  - { offset: 0x24FD97, size: 0x8, addend: 0x0, symName: __ZNK11spirv_cross8Compiler18has_active_builtinEN3spv7BuiltInENS1_12StorageClassE, symObjAddr: 0x106F8, symBinAddr: 0x46018, symSize: 0xF4 }
  - { offset: 0x25041A, size: 0x8, addend: 0x0, symName: __ZN11spirv_cross8Compiler31analyze_image_and_sampler_usageEv, symObjAddr: 0x107EC, symBinAddr: 0x4610C, symSize: 0x3F4 }
  - { offset: 0x251E0D, size: 0x8, addend: 0x0, symName: __ZNSt3__112__hash_tableIjNS_4hashIjEENS_8equal_toIjEENS_9allocatorIjEEE13__move_assignERS7_NS_17integral_constantIbLb1EEE, symObjAddr: 0x173D0, symBinAddr: 0x4B928, symSize: 0xE0 }
  - { offset: 0x252189, size: 0x8, addend: 0x0, symName: __ZN11spirv_cross8Compiler32CombinedImageSamplerUsageHandlerD2Ev, symObjAddr: 0x16694, symBinAddr: 0x4B0C8, symSize: 0xB4 }
  - { offset: 0x2529CB, size: 0x8, addend: 0x0, symName: __ZN11spirv_cross8Compiler31CombinedImageSamplerDrefHandlerD1Ev, symObjAddr: 0x10BE4, symBinAddr: 0x46504, symSize: 0x54 }
  - { offset: 0x252C9E, size: 0x8, addend: 0x0, symName: __ZN11spirv_cross8Compiler32CombinedImageSamplerUsageHandlerD1Ev, symObjAddr: 0x10BE0, symBinAddr: 0x46500, symSize: 0x4 }
  - { offset: 0x252CC2, size: 0x8, addend: 0x0, symName: __ZN11spirv_cross8Compiler32CombinedImageSamplerUsageHandlerD1Ev, symObjAddr: 0x10BE0, symBinAddr: 0x46500, symSize: 0x4 }
  - { offset: 0x252CD6, size: 0x8, addend: 0x0, symName: __ZN11spirv_cross8Compiler31CombinedImageSamplerDrefHandler6handleEN3spv2OpEPKjj, symObjAddr: 0x10C38, symBinAddr: 0x46558, symSize: 0x6C }
  - { offset: 0x252E32, size: 0x8, addend: 0x0, symName: __ZNK11spirv_cross8Compiler28get_cfg_for_current_functionEv, symObjAddr: 0x10CA4, symBinAddr: 0x465C4, symSize: 0x6C }
  - { offset: 0x25305D, size: 0x8, addend: 0x0, symName: __ZNK11spirv_cross8Compiler20get_cfg_for_functionEj, symObjAddr: 0x10D10, symBinAddr: 0x46630, symSize: 0x68 }
  - { offset: 0x253095, size: 0x8, addend: 0x0, symName: __ZNK11spirv_cross8Compiler20get_cfg_for_functionEj, symObjAddr: 0x10D10, symBinAddr: 0x46630, symSize: 0x68 }
  - { offset: 0x2530B6, size: 0x8, addend: 0x0, symName: __ZNK11spirv_cross8Compiler20get_cfg_for_functionEj, symObjAddr: 0x10D10, symBinAddr: 0x46630, symSize: 0x68 }
  - { offset: 0x2530E1, size: 0x8, addend: 0x0, symName: __ZNK11spirv_cross8Compiler20get_cfg_for_functionEj, symObjAddr: 0x10D10, symBinAddr: 0x46630, symSize: 0x68 }
  - { offset: 0x253102, size: 0x8, addend: 0x0, symName: __ZNK11spirv_cross8Compiler20get_cfg_for_functionEj, symObjAddr: 0x10D10, symBinAddr: 0x46630, symSize: 0x68 }
  - { offset: 0x2535A9, size: 0x8, addend: 0x0, symName: __ZN11spirv_cross8Compiler46build_function_control_flow_graphs_and_analyzeEv, symObjAddr: 0x10D78, symBinAddr: 0x46698, symSize: 0x4D8 }
  - { offset: 0x254DA4, size: 0x8, addend: 0x0, symName: __ZNSt3__112__hash_tableINS_17__hash_value_typeIjNS_10unique_ptrIN11spirv_cross3CFGENS_14default_deleteIS4_EEEEEENS_22__unordered_map_hasherIjNS_4pairIKjS7_EENS_4hashIjEENS_8equal_toIjEELb1EEENS_21__unordered_map_equalIjSC_SG_SE_Lb1EEENS_9allocatorISC_EEE25__emplace_unique_key_argsIjJRKNS_21piecewise_construct_tENS_5tupleIJOjEEENSR_IJEEEEEENSA_INS_15__hash_iteratorIPNS_11__hash_nodeIS8_PvEEEEbEERKT_DpOT0_, symObjAddr: 0x2085C, symBinAddr: 0x5237C, symSize: 0x2D0 }
  - { offset: 0x255523, size: 0x8, addend: 0x0, symName: __ZNSt3__112__hash_tableINS_17__hash_value_typeIjNS_10unique_ptrIN11spirv_cross3CFGENS_14default_deleteIS4_EEEEEENS_22__unordered_map_hasherIjNS_4pairIKjS7_EENS_4hashIjEENS_8equal_toIjEELb1EEENS_21__unordered_map_equalIjSC_SG_SE_Lb1EEENS_9allocatorISC_EEE13__move_assignERSM_NS_17integral_constantIbLb1EEE, symObjAddr: 0x20E08, symBinAddr: 0x526B8, symSize: 0xFC }
  - { offset: 0x2559CE, size: 0x8, addend: 0x0, symName: __ZN11spirv_cross8Compiler33AnalyzeVariableScopeAccessHandlerD2Ev, symObjAddr: 0x16748, symBinAddr: 0x4B17C, symSize: 0x23C }
  - { offset: 0x257AE2, size: 0x8, addend: 0x0, symName: __ZN11spirv_cross8Compiler10CFGBuilderC1ERS0_, symObjAddr: 0x11250, symBinAddr: 0x46B70, symSize: 0x20 }
  - { offset: 0x257B0E, size: 0x8, addend: 0x0, symName: __ZN11spirv_cross8Compiler10CFGBuilderC1ERS0_, symObjAddr: 0x11250, symBinAddr: 0x46B70, symSize: 0x20 }
  - { offset: 0x257BFB, size: 0x8, addend: 0x0, symName: __ZN11spirv_cross8Compiler33AnalyzeVariableScopeAccessHandlerD1Ev, symObjAddr: 0x11270, symBinAddr: 0x46B90, symSize: 0x4 }
  - { offset: 0x257C1F, size: 0x8, addend: 0x0, symName: __ZN11spirv_cross8Compiler33AnalyzeVariableScopeAccessHandlerD1Ev, symObjAddr: 0x11270, symBinAddr: 0x46B90, symSize: 0x4 }
  - { offset: 0x257C33, size: 0x8, addend: 0x0, symName: __ZN11spirv_cross8Compiler10CFGBuilderD1Ev, symObjAddr: 0x11274, symBinAddr: 0x46B94, symSize: 0x78 }
  - { offset: 0x258021, size: 0x8, addend: 0x0, symName: __ZN11spirv_cross8Compiler10CFGBuilderC2ERS0_, symObjAddr: 0x112EC, symBinAddr: 0x46C0C, symSize: 0x20 }
  - { offset: 0x258113, size: 0x8, addend: 0x0, symName: __ZN11spirv_cross8Compiler10CFGBuilder6handleEN3spv2OpEPKjj, symObjAddr: 0x1130C, symBinAddr: 0x46C2C, symSize: 0x8 }
  - { offset: 0x258154, size: 0x8, addend: 0x0, symName: __ZN11spirv_cross8Compiler10CFGBuilder20follow_function_callERKNS_12SPIRFunctionE, symObjAddr: 0x11314, symBinAddr: 0x46C34, symSize: 0x148 }
  - { offset: 0x2583B5, size: 0x8, addend: 0x0, symName: __ZN11spirv_cross8Compiler32CombinedImageSamplerUsageHandler14add_dependencyEjj, symObjAddr: 0x1145C, symBinAddr: 0x46D7C, symSize: 0x108 }
  - { offset: 0x258701, size: 0x8, addend: 0x0, symName: __ZN11spirv_cross8Compiler32CombinedImageSamplerUsageHandler20begin_function_scopeEPKjj, symObjAddr: 0x11564, symBinAddr: 0x46E84, symSize: 0x90 }
  - { offset: 0x258866, size: 0x8, addend: 0x0, symName: __ZN11spirv_cross8Compiler32CombinedImageSamplerUsageHandler31add_hierarchy_to_comparison_idsEj, symObjAddr: 0x115F4, symBinAddr: 0x46F14, symSize: 0x78 }
  - { offset: 0x2589CC, size: 0x8, addend: 0x0, symName: __ZN11spirv_cross8Compiler32CombinedImageSamplerUsageHandler6handleEN3spv2OpEPKjj, symObjAddr: 0x1166C, symBinAddr: 0x46F8C, symSize: 0x234 }
  - { offset: 0x258F2F, size: 0x8, addend: 0x0, symName: __ZNK11spirv_cross8Compiler29buffer_is_hlsl_counter_bufferENS_7TypedIDILNS_5TypesE2EEE, symObjAddr: 0x118A0, symBinAddr: 0x471C0, symSize: 0x30 }
  - { offset: 0x258F7B, size: 0x8, addend: 0x0, symName: __ZNK11spirv_cross8Compiler30buffer_get_hlsl_counter_bufferENS_7TypedIDILNS_5TypesE2EEERj, symObjAddr: 0x118D0, symBinAddr: 0x471F0, symSize: 0x44 }
  - { offset: 0x2592DD, size: 0x8, addend: 0x0, symName: __ZN11spirv_cross8Compiler18make_constant_nullEjj, symObjAddr: 0x11914, symBinAddr: 0x47234, symSize: 0x46C }
  - { offset: 0x259E2C, size: 0x8, addend: 0x0, symName: __ZN11spirv_cross10ObjectPoolINS_12SPIRConstantEE8allocateIJRjEEEPS1_DpOT_, symObjAddr: 0x20F04, symBinAddr: 0x527B4, symSize: 0x164 }
  - { offset: 0x25A1FA, size: 0x8, addend: 0x0, symName: __ZN11spirv_cross10ObjectPoolINS_12SPIRConstantEE8allocateIJRjPjjbEEEPS1_DpOT_, symObjAddr: 0x216F4, symBinAddr: 0x52C88, symSize: 0x1D8 }
  - { offset: 0x25A67D, size: 0x8, addend: 0x0, symName: __ZNK11spirv_cross8Compiler25get_declared_capabilitiesEv, symObjAddr: 0x11D80, symBinAddr: 0x476A0, symSize: 0x8 }
  - { offset: 0x25A6A7, size: 0x8, addend: 0x0, symName: __ZNK11spirv_cross8Compiler23get_declared_extensionsEv, symObjAddr: 0x11D88, symBinAddr: 0x476A8, symSize: 0x8 }
  - { offset: 0x25A6D1, size: 0x8, addend: 0x0, symName: __ZNK11spirv_cross8Compiler19get_precise_outputsEv, symObjAddr: 0x11D90, symBinAddr: 0x476B0, symSize: 0x8 }
  - { offset: 0x25A6FB, size: 0x8, addend: 0x0, symName: __ZNK11spirv_cross8Compiler32get_remapped_declared_block_nameENS_7TypedIDILNS_5TypesE2EEE, symObjAddr: 0x11D98, symBinAddr: 0x476B8, symSize: 0x8 }
  - { offset: 0x25A942, size: 0x8, addend: 0x0, symName: __ZNK11spirv_cross8Compiler30combined_decoration_for_memberERKNS_8SPIRTypeEj, symObjAddr: 0x11FA0, symBinAddr: 0x478C0, symSize: 0x1B8 }
  - { offset: 0x25B1BC, size: 0x8, addend: 0x0, symName: __ZN11spirv_cross8Compiler22is_desktop_only_formatEN3spv11ImageFormatE, symObjAddr: 0x12158, symBinAddr: 0x47A78, symSize: 0x20 }
  - { offset: 0x25B1E5, size: 0x8, addend: 0x0, symName: __ZNK11spirv_cross8Compiler14is_depth_imageERKNS_8SPIRTypeEj, symObjAddr: 0x12178, symBinAddr: 0x47A98, symSize: 0xCC }
  - { offset: 0x25B3E1, size: 0x8, addend: 0x0, symName: __ZN11spirv_cross8Compiler42force_recompile_guarantee_forward_progressEv, symObjAddr: 0x12244, symBinAddr: 0x47B64, symSize: 0xC }
  - { offset: 0x25B428, size: 0x8, addend: 0x0, symName: __ZNK11spirv_cross8Compiler24is_forcing_recompilationEv, symObjAddr: 0x12250, symBinAddr: 0x47B70, symSize: 0x8 }
  - { offset: 0x25B452, size: 0x8, addend: 0x0, symName: __ZN11spirv_cross8Compiler21clear_force_recompileEv, symObjAddr: 0x12258, symBinAddr: 0x47B78, symSize: 0x8 }
  - { offset: 0x25B524, size: 0x8, addend: 0x0, symName: __ZN11spirv_cross8Compiler35PhysicalStorageBufferPointerHandlerC2ERS0_, symObjAddr: 0x12260, symBinAddr: 0x47B80, symSize: 0x34 }
  - { offset: 0x25B7DC, size: 0x8, addend: 0x0, symName: __ZN11spirv_cross8Compiler35PhysicalStorageBufferPointerHandlerC1ERS0_, symObjAddr: 0x12294, symBinAddr: 0x47BB4, symSize: 0x34 }
  - { offset: 0x25B808, size: 0x8, addend: 0x0, symName: __ZN11spirv_cross8Compiler35PhysicalStorageBufferPointerHandlerC1ERS0_, symObjAddr: 0x12294, symBinAddr: 0x47BB4, symSize: 0x34 }
  - { offset: 0x25BBF9, size: 0x8, addend: 0x0, symName: __ZNK11spirv_cross8Compiler35PhysicalStorageBufferPointerHandler15find_block_metaEj, symObjAddr: 0x122C8, symBinAddr: 0x47BE8, symSize: 0xA8 }
  - { offset: 0x25BC31, size: 0x8, addend: 0x0, symName: __ZNK11spirv_cross8Compiler35PhysicalStorageBufferPointerHandler15find_block_metaEj, symObjAddr: 0x122C8, symBinAddr: 0x47BE8, symSize: 0xA8 }
  - { offset: 0x25BC52, size: 0x8, addend: 0x0, symName: __ZNK11spirv_cross8Compiler35PhysicalStorageBufferPointerHandler15find_block_metaEj, symObjAddr: 0x122C8, symBinAddr: 0x47BE8, symSize: 0xA8 }
  - { offset: 0x25BC7D, size: 0x8, addend: 0x0, symName: __ZNK11spirv_cross8Compiler35PhysicalStorageBufferPointerHandler15find_block_metaEj, symObjAddr: 0x122C8, symBinAddr: 0x47BE8, symSize: 0xA8 }
  - { offset: 0x25BC9E, size: 0x8, addend: 0x0, symName: __ZNK11spirv_cross8Compiler35PhysicalStorageBufferPointerHandler15find_block_metaEj, symObjAddr: 0x122C8, symBinAddr: 0x47BE8, symSize: 0xA8 }
  - { offset: 0x25BE64, size: 0x8, addend: 0x0, symName: __ZN11spirv_cross8Compiler35PhysicalStorageBufferPointerHandler19mark_aligned_accessEjPKjj, symObjAddr: 0x12370, symBinAddr: 0x47C90, symSize: 0xF8 }
  - { offset: 0x25C130, size: 0x8, addend: 0x0, symName: __ZNK11spirv_cross8Compiler35PhysicalStorageBufferPointerHandler23type_is_bda_block_entryEj, symObjAddr: 0x12468, symBinAddr: 0x47D88, symSize: 0x3C }
  - { offset: 0x25C1FD, size: 0x8, addend: 0x0, symName: __ZNK11spirv_cross8Compiler35PhysicalStorageBufferPointerHandler28get_minimum_scalar_alignmentERKNS_8SPIRTypeE, symObjAddr: 0x124A4, symBinAddr: 0x47DC4, symSize: 0xB0 }
  - { offset: 0x25C43B, size: 0x8, addend: 0x0, symName: __ZN11spirv_cross8Compiler35PhysicalStorageBufferPointerHandler16setup_meta_chainEjj, symObjAddr: 0x12554, symBinAddr: 0x47E74, symSize: 0x18C }
  - { offset: 0x25C998, size: 0x8, addend: 0x0, symName: __ZNSt3__112__hash_tableINS_17__hash_value_typeIjN11spirv_cross8Compiler17PhysicalBlockMetaEEENS_22__unordered_map_hasherIjNS_4pairIKjS4_EENS_4hashIjEENS_8equal_toIjEELb1EEENS_21__unordered_map_equalIjS9_SD_SB_Lb1EEENS_9allocatorIS9_EEE25__emplace_unique_key_argsIjJRKNS_21piecewise_construct_tENS_5tupleIJRS8_EEENSO_IJEEEEEENS7_INS_15__hash_iteratorIPNS_11__hash_nodeIS5_PvEEEEbEERKT_DpOT0_, symObjAddr: 0x218CC, symBinAddr: 0x52E60, symSize: 0x2B0 }
  - { offset: 0x25D10C, size: 0x8, addend: 0x0, symName: __ZNSt3__112__hash_tableINS_17__hash_value_typeIjPN11spirv_cross8Compiler17PhysicalBlockMetaEEENS_22__unordered_map_hasherIjNS_4pairIKjS5_EENS_4hashIjEENS_8equal_toIjEELb1EEENS_21__unordered_map_equalIjSA_SE_SC_Lb1EEENS_9allocatorISA_EEE25__emplace_unique_key_argsIjJRKNS_21piecewise_construct_tENS_5tupleIJRS9_EEENSP_IJEEEEEENS8_INS_15__hash_iteratorIPNS_11__hash_nodeIS6_PvEEEEbEERKT_DpOT0_, symObjAddr: 0x21CB4, symBinAddr: 0x53110, symSize: 0x2B4 }
  - { offset: 0x25D900, size: 0x8, addend: 0x0, symName: __ZN11spirv_cross8Compiler35PhysicalStorageBufferPointerHandler6handleEN3spv2OpEPKjj, symObjAddr: 0x126E0, symBinAddr: 0x48000, symSize: 0x194 }
  - { offset: 0x25DB8E, size: 0x8, addend: 0x0, symName: __ZNK11spirv_cross8Compiler35PhysicalStorageBufferPointerHandler26get_base_non_block_type_idEj, symObjAddr: 0x12874, symBinAddr: 0x48194, symSize: 0xB8 }
  - { offset: 0x25DE15, size: 0x8, addend: 0x0, symName: __ZN11spirv_cross8Compiler35PhysicalStorageBufferPointerHandler34analyze_non_block_types_from_blockERKNS_8SPIRTypeE, symObjAddr: 0x1292C, symBinAddr: 0x4824C, symSize: 0x1A8 }
  - { offset: 0x25DE4F, size: 0x8, addend: 0x0, symName: __ZN11spirv_cross8Compiler35PhysicalStorageBufferPointerHandler34analyze_non_block_types_from_blockERKNS_8SPIRTypeE, symObjAddr: 0x1292C, symBinAddr: 0x4824C, symSize: 0x1A8 }
  - { offset: 0x25DE8B, size: 0x8, addend: 0x0, symName: __ZN11spirv_cross8Compiler35PhysicalStorageBufferPointerHandler34analyze_non_block_types_from_blockERKNS_8SPIRTypeE, symObjAddr: 0x1292C, symBinAddr: 0x4824C, symSize: 0x1A8 }
  - { offset: 0x25E448, size: 0x8, addend: 0x0, symName: __ZN11spirv_cross8Compiler31analyze_non_block_pointer_typesEv, symObjAddr: 0x12AD4, symBinAddr: 0x483F4, symSize: 0x27C }
  - { offset: 0x25FA96, size: 0x8, addend: 0x0, symName: __ZN11spirv_cross8Compiler35PhysicalStorageBufferPointerHandlerD2Ev, symObjAddr: 0x16984, symBinAddr: 0x4B3B8, symSize: 0xA4 }
  - { offset: 0x260281, size: 0x8, addend: 0x0, symName: __ZN11spirv_cross8Compiler35PhysicalStorageBufferPointerHandlerD1Ev, symObjAddr: 0x12E9C, symBinAddr: 0x487BC, symSize: 0x4 }
  - { offset: 0x2602A5, size: 0x8, addend: 0x0, symName: __ZN11spirv_cross8Compiler35PhysicalStorageBufferPointerHandlerD1Ev, symObjAddr: 0x12E9C, symBinAddr: 0x487BC, symSize: 0x4 }
  - { offset: 0x2602B9, size: 0x8, addend: 0x0, symName: __ZN11spirv_cross8Compiler39InterlockedResourceAccessPrepassHandler6handleEN3spv2OpEPKjj, symObjAddr: 0x12EA0, symBinAddr: 0x487C0, symSize: 0xFC }
  - { offset: 0x260601, size: 0x8, addend: 0x0, symName: __ZN11spirv_cross8Compiler39InterlockedResourceAccessPrepassHandler19rearm_current_blockERKNS_9SPIRBlockE, symObjAddr: 0x12F9C, symBinAddr: 0x488BC, symSize: 0xC }
  - { offset: 0x26063B, size: 0x8, addend: 0x0, symName: __ZN11spirv_cross8Compiler39InterlockedResourceAccessPrepassHandler19rearm_current_blockERKNS_9SPIRBlockE, symObjAddr: 0x12F9C, symBinAddr: 0x488BC, symSize: 0xC }
  - { offset: 0x260659, size: 0x8, addend: 0x0, symName: __ZN11spirv_cross8Compiler39InterlockedResourceAccessPrepassHandler20begin_function_scopeEPKjj, symObjAddr: 0x12FA8, symBinAddr: 0x488C8, symSize: 0x60 }
  - { offset: 0x2606E2, size: 0x8, addend: 0x0, symName: __ZN11spirv_cross8Compiler39InterlockedResourceAccessPrepassHandler18end_function_scopeEPKjj, symObjAddr: 0x13008, symBinAddr: 0x48928, symSize: 0x18 }
  - { offset: 0x260721, size: 0x8, addend: 0x0, symName: __ZN11spirv_cross8Compiler39InterlockedResourceAccessPrepassHandler18end_function_scopeEPKjj, symObjAddr: 0x13008, symBinAddr: 0x48928, symSize: 0x18 }
  - { offset: 0x260741, size: 0x8, addend: 0x0, symName: __ZN11spirv_cross8Compiler39InterlockedResourceAccessPrepassHandler18end_function_scopeEPKjj, symObjAddr: 0x13008, symBinAddr: 0x48928, symSize: 0x18 }
  - { offset: 0x260789, size: 0x8, addend: 0x0, symName: __ZN11spirv_cross8Compiler32InterlockedResourceAccessHandler20begin_function_scopeEPKjj, symObjAddr: 0x13020, symBinAddr: 0x48940, symSize: 0x78 }
  - { offset: 0x2607FC, size: 0x8, addend: 0x0, symName: __ZN11spirv_cross8Compiler32InterlockedResourceAccessHandler18end_function_scopeEPKjj, symObjAddr: 0x13098, symBinAddr: 0x489B8, symSize: 0x30 }
  - { offset: 0x26083B, size: 0x8, addend: 0x0, symName: __ZN11spirv_cross8Compiler32InterlockedResourceAccessHandler18end_function_scopeEPKjj, symObjAddr: 0x13098, symBinAddr: 0x489B8, symSize: 0x30 }
  - { offset: 0x2608A3, size: 0x8, addend: 0x0, symName: __ZN11spirv_cross8Compiler32InterlockedResourceAccessHandler25access_potential_resourceEj, symObjAddr: 0x130C8, symBinAddr: 0x489E8, symSize: 0x64 }
  - { offset: 0x26097A, size: 0x8, addend: 0x0, symName: __ZN11spirv_cross8Compiler32InterlockedResourceAccessHandler6handleEN3spv2OpEPKjj, symObjAddr: 0x1312C, symBinAddr: 0x48A4C, symSize: 0x47C }
  - { offset: 0x261348, size: 0x8, addend: 0x0, symName: __ZN11spirv_cross8Compiler34analyze_interlocked_resource_usageEv, symObjAddr: 0x135A8, symBinAddr: 0x48EC8, symSize: 0x6CC }
  - { offset: 0x262A83, size: 0x8, addend: 0x0, symName: __ZN11spirv_cross8Compiler32InterlockedResourceAccessHandlerD1Ev, symObjAddr: 0x13C74, symBinAddr: 0x49594, symSize: 0x48 }
  - { offset: 0x262AA9, size: 0x8, addend: 0x0, symName: __ZN11spirv_cross8Compiler32InterlockedResourceAccessHandlerD1Ev, symObjAddr: 0x13C74, symBinAddr: 0x49594, symSize: 0x48 }
  - { offset: 0x262B38, size: 0x8, addend: 0x0, symName: __ZN11spirv_cross8Compiler39InterlockedResourceAccessPrepassHandlerD1Ev, symObjAddr: 0x13CBC, symBinAddr: 0x495DC, symSize: 0x48 }
  - { offset: 0x262B5E, size: 0x8, addend: 0x0, symName: __ZN11spirv_cross8Compiler39InterlockedResourceAccessPrepassHandlerD1Ev, symObjAddr: 0x13CBC, symBinAddr: 0x495DC, symSize: 0x48 }
  - { offset: 0x262BED, size: 0x8, addend: 0x0, symName: __ZN11spirv_cross8Compiler24check_internal_recursionERKNS_8SPIRTypeERNSt3__113unordered_setIjNS4_4hashIjEENS4_8equal_toIjEENS4_9allocatorIjEEEE, symObjAddr: 0x13D04, symBinAddr: 0x49624, symSize: 0x178 }
  - { offset: 0x26303F, size: 0x8, addend: 0x0, symName: __ZN11spirv_cross8Compiler23type_contains_recursionERKNS_8SPIRTypeE, symObjAddr: 0x13E7C, symBinAddr: 0x4979C, symSize: 0x7C }
  - { offset: 0x263404, size: 0x8, addend: 0x0, symName: __ZNK11spirv_cross8Compiler25type_is_array_of_pointersERKNS_8SPIRTypeE, symObjAddr: 0x13EF8, symBinAddr: 0x49818, symSize: 0x90 }
  - { offset: 0x263453, size: 0x8, addend: 0x0, symName: __ZNK11spirv_cross8Compiler25type_is_array_of_pointersERKNS_8SPIRTypeE, symObjAddr: 0x13EF8, symBinAddr: 0x49818, symSize: 0x90 }
  - { offset: 0x2635E9, size: 0x8, addend: 0x0, symName: __ZN11spirv_cross8Compiler14add_loop_levelEv, symObjAddr: 0x13F88, symBinAddr: 0x498A8, symSize: 0x10 }
  - { offset: 0x263611, size: 0x8, addend: 0x0, symName: __ZN11spirv_cross8Compiler19BufferAccessHandlerD0Ev, symObjAddr: 0x13F98, symBinAddr: 0x498B8, symSize: 0x54 }
  - { offset: 0x26390E, size: 0x8, addend: 0x0, symName: __ZN11spirv_cross8Compiler27CombinedImageSamplerHandlerD0Ev, symObjAddr: 0x14018, symBinAddr: 0x4990C, symSize: 0x84 }
  - { offset: 0x263BE0, size: 0x8, addend: 0x0, symName: __ZN11spirv_cross8Compiler31CombinedImageSamplerDrefHandlerD0Ev, symObjAddr: 0x140A4, symBinAddr: 0x49990, symSize: 0x54 }
  - { offset: 0x263EDD, size: 0x8, addend: 0x0, symName: __ZN11spirv_cross8Compiler32CombinedImageSamplerUsageHandlerD0Ev, symObjAddr: 0x140F8, symBinAddr: 0x499E4, symSize: 0x14 }
  - { offset: 0x263F3F, size: 0x8, addend: 0x0, symName: __ZN11spirv_cross8Compiler32InterlockedResourceAccessHandlerD0Ev, symObjAddr: 0x1410C, symBinAddr: 0x499F8, symSize: 0x48 }
  - { offset: 0x263F70, size: 0x8, addend: 0x0, symName: __ZN11spirv_cross8Compiler32InterlockedResourceAccessHandlerD0Ev, symObjAddr: 0x1410C, symBinAddr: 0x499F8, symSize: 0x48 }
  - { offset: 0x263F90, size: 0x8, addend: 0x0, symName: __ZN11spirv_cross8Compiler32InterlockedResourceAccessHandlerD0Ev, symObjAddr: 0x1410C, symBinAddr: 0x499F8, symSize: 0x48 }
  - { offset: 0x264020, size: 0x8, addend: 0x0, symName: __ZN11spirv_cross8Compiler39InterlockedResourceAccessPrepassHandlerD0Ev, symObjAddr: 0x14154, symBinAddr: 0x49A40, symSize: 0x48 }
  - { offset: 0x264051, size: 0x8, addend: 0x0, symName: __ZN11spirv_cross8Compiler39InterlockedResourceAccessPrepassHandlerD0Ev, symObjAddr: 0x14154, symBinAddr: 0x49A40, symSize: 0x48 }
  - { offset: 0x264071, size: 0x8, addend: 0x0, symName: __ZN11spirv_cross8Compiler39InterlockedResourceAccessPrepassHandlerD0Ev, symObjAddr: 0x14154, symBinAddr: 0x49A40, symSize: 0x48 }
  - { offset: 0x264101, size: 0x8, addend: 0x0, symName: __ZN11spirv_cross8CompilerD1Ev, symObjAddr: 0x1419C, symBinAddr: 0x49A88, symSize: 0x4 }
  - { offset: 0x264125, size: 0x8, addend: 0x0, symName: __ZN11spirv_cross8CompilerD1Ev, symObjAddr: 0x1419C, symBinAddr: 0x49A88, symSize: 0x4 }
  - { offset: 0x26593D, size: 0x8, addend: 0x0, symName: __ZN11spirv_cross8CompilerD0Ev, symObjAddr: 0x141A0, symBinAddr: 0x49A8C, symSize: 0x14 }
  - { offset: 0x26599B, size: 0x8, addend: 0x0, symName: __ZNK11spirv_cross8Compiler24get_fallback_member_nameEj, symObjAddr: 0x141B4, symBinAddr: 0x49AA0, symSize: 0x2C }
  - { offset: 0x2659F1, size: 0x8, addend: 0x0, symName: __ZN11spirv_cross8Compiler33AnalyzeVariableScopeAccessHandlerD0Ev, symObjAddr: 0x141E0, symBinAddr: 0x49ACC, symSize: 0x14 }
  - { offset: 0x265A53, size: 0x8, addend: 0x0, symName: __ZN11spirv_cross8Compiler10CFGBuilderD0Ev, symObjAddr: 0x141F8, symBinAddr: 0x49AE0, symSize: 0x78 }
  - { offset: 0x265E65, size: 0x8, addend: 0x0, symName: __ZN11spirv_cross8Compiler35PhysicalStorageBufferPointerHandlerD0Ev, symObjAddr: 0x14270, symBinAddr: 0x49B58, symSize: 0x14 }
  - { offset: 0x266DC8, size: 0x8, addend: 0x0, symName: __ZN11spirv_cross13CompilerErrorD0Ev, symObjAddr: 0x149CC, symBinAddr: 0x49B6C, symSize: 0x14 }
  - { offset: 0x266FBC, size: 0x8, addend: 0x0, symName: __ZNKSt3__121__murmur2_or_cityhashImLm64EEclB9nqe210106EPKvm, symObjAddr: 0x1512C, symBinAddr: 0x49CD4, symSize: 0x438 }
  - { offset: 0x267FE3, size: 0x8, addend: 0x0, symName: __ZNSt3__112__hash_tableINS_12basic_stringIcNS_11char_traitsIcEENS_9allocatorIcEEEENS_4hashIS6_EENS_8equal_toIS6_EENS4_IS6_EEE11__do_rehashILb1EEEvm, symObjAddr: 0x15A9C, symBinAddr: 0x4A61C, symSize: 0x138 }
  - { offset: 0x26836D, size: 0x8, addend: 0x0, symName: __ZNSt3__110unique_ptrINS_11__hash_nodeINS_12basic_stringIcNS_11char_traitsIcEENS_9allocatorIcEEEEPvEENS_22__hash_node_destructorINS5_IS9_EEEEED1B9nqe210106Ev, symObjAddr: 0x15A14, symBinAddr: 0x4A5BC, symSize: 0x60 }
  - { offset: 0x26894D, size: 0x8, addend: 0x0, symName: __ZNSt3__112__hash_tableINS_12basic_stringIcNS_11char_traitsIcEENS_9allocatorIcEEEENS_4hashIS6_EENS_8equal_toIS6_EENS4_IS6_EEE19__node_insert_multiEPNS_11__hash_nodeIS6_PvEE, symObjAddr: 0x15E44, symBinAddr: 0x4A878, symSize: 0x14C }
  - { offset: 0x268C08, size: 0x8, addend: 0x0, symName: __ZNSt3__112__hash_tableINS_12basic_stringIcNS_11char_traitsIcEENS_9allocatorIcEEEENS_4hashIS6_EENS_8equal_toIS6_EENS4_IS6_EEE16__construct_nodeIJRKS6_EEENS_10unique_ptrINS_11__hash_nodeIS6_PvEENS_22__hash_node_destructorINS4_ISJ_EEEEEEDpOT_, symObjAddr: 0x163CC, symBinAddr: 0x4AE00, symSize: 0xBC }
  - { offset: 0x268FDA, size: 0x8, addend: 0x0, symName: __ZNSt3__112__hash_tableINS_12basic_stringIcNS_11char_traitsIcEENS_9allocatorIcEEEENS_4hashIS6_EENS_8equal_toIS6_EENS4_IS6_EEE17__deallocate_nodeEPNS_16__hash_node_baseIPNS_11__hash_nodeIS6_PvEEEE, symObjAddr: 0x15F90, symBinAddr: 0x4A9C4, symSize: 0x4C }
  - { offset: 0x26924C, size: 0x8, addend: 0x0, symName: __ZNSt3__112__hash_tableINS_12basic_stringIcNS_11char_traitsIcEENS_9allocatorIcEEEENS_4hashIS6_EENS_8equal_toIS6_EENS4_IS6_EEE27__node_insert_multi_prepareEmRS6_, symObjAddr: 0x15FDC, symBinAddr: 0x4AA10, symSize: 0x244 }
  - { offset: 0x269675, size: 0x8, addend: 0x0, symName: __ZNSt3__112__hash_tableINS_12basic_stringIcNS_11char_traitsIcEENS_9allocatorIcEEEENS_4hashIS6_EENS_8equal_toIS6_EENS4_IS6_EEE11__do_rehashILb0EEEvm, symObjAddr: 0x16220, symBinAddr: 0x4AC54, symSize: 0x1AC }
  - { offset: 0x269B8D, size: 0x8, addend: 0x0, symName: __ZNSt3__112__hash_tableINS_12basic_stringIcNS_11char_traitsIcEENS_9allocatorIcEEEENS_4hashIS6_EENS_8equal_toIS6_EENS4_IS6_EEE16__construct_nodeIJRKS6_EEENS_10unique_ptrINS_11__hash_nodeIS6_PvEENS_22__hash_node_destructorINS4_ISJ_EEEEEEDpOT_, symObjAddr: 0x163CC, symBinAddr: 0x4AE00, symSize: 0xBC }
  - { offset: 0x26A1D9, size: 0x8, addend: 0x0, symName: __ZNSt3__112__hash_tableIjNS_4hashIjEENS_8equal_toIjEENS_9allocatorIjEEE14__erase_uniqueIjEEmRKT_, symObjAddr: 0x171B0, symBinAddr: 0x4B708, symSize: 0xEC }
  - { offset: 0x26A2A8, size: 0x8, addend: 0x0, symName: __ZNSt3__112__hash_tableIjNS_4hashIjEENS_8equal_toIjEENS_9allocatorIjEEE6removeENS_21__hash_const_iteratorIPNS_11__hash_nodeIjPvEEEE, symObjAddr: 0x1729C, symBinAddr: 0x4B7F4, symSize: 0x134 }
  - { offset: 0x26A323, size: 0x8, addend: 0x0, symName: __ZNSt3__112__hash_tableIjNS_4hashIjEENS_8equal_toIjEENS_9allocatorIjEEE6removeENS_21__hash_const_iteratorIPNS_11__hash_nodeIjPvEEEE, symObjAddr: 0x1729C, symBinAddr: 0x4B7F4, symSize: 0x134 }
  - { offset: 0x26A341, size: 0x8, addend: 0x0, symName: __ZNSt3__112__hash_tableIjNS_4hashIjEENS_8equal_toIjEENS_9allocatorIjEEE6removeENS_21__hash_const_iteratorIPNS_11__hash_nodeIjPvEEEE, symObjAddr: 0x1729C, symBinAddr: 0x4B7F4, symSize: 0x134 }
  - { offset: 0x26A727, size: 0x8, addend: 0x0, symName: __ZNSt3__112basic_stringIcNS_11char_traitsIcEENS_9allocatorIcEEE18__insert_with_sizeIPcS7_EENS_11__wrap_iterIS7_EENS8_IPKcEET_T0_m, symObjAddr: 0x17BBC, symBinAddr: 0x4BF6C, symSize: 0x2B8 }
  - { offset: 0x26B3A4, size: 0x8, addend: 0x0, symName: __ZN11spirv_cross11SmallVectorINS_12StringStreamILm4096ELm4096EE6BufferELm8EE7reserveEm, symObjAddr: 0x17AD0, symBinAddr: 0x4BE80, symSize: 0xEC }
  - { offset: 0x26B812, size: 0x8, addend: 0x0, symName: __ZNSt3__112basic_stringIcNS_11char_traitsIcEENS_9allocatorIcEEE20__init_with_sentinelB9nqe210106IPcS7_EEvT_T0_, symObjAddr: 0x17E74, symBinAddr: 0x4C224, symSize: 0x84 }
  - { offset: 0x26C103, size: 0x8, addend: 0x0, symName: __ZN11spirv_cross7Variant3getINS_12SPIRFunctionEEERT_v, symObjAddr: 0x18508, symBinAddr: 0x4C780, symSize: 0x88 }
  - { offset: 0x26C118, size: 0x8, addend: 0x0, symName: __ZNSt3__110unique_ptrINS_11__hash_nodeINS_17__hash_value_typeIN11spirv_cross7TypedIDILNS3_5TypesE0EEENS3_4MetaEEEPvEENS_22__hash_node_destructorINS_9allocatorISA_EEEEED1B9nqe210106Ev, symObjAddr: 0x18388, symBinAddr: 0x4C738, symSize: 0x48 }
  - { offset: 0x26CA36, size: 0x8, addend: 0x0, symName: __ZNK11spirv_cross7Variant3getINS_13SPIRExtensionEEERKT_v, symObjAddr: 0x193CC, symBinAddr: 0x4D3C0, symSize: 0x88 }
  - { offset: 0x26D203, size: 0x8, addend: 0x0, symName: __ZNSt3__113unordered_setIjNS_4hashIjEENS_8equal_toIjEENS_9allocatorIjEEEC2ERKS7_, symObjAddr: 0x1B338, symBinAddr: 0x4F014, symSize: 0x124 }
  - { offset: 0x26DD16, size: 0x8, addend: 0x0, symName: __ZNSt3__15dequeINS_13unordered_mapIjjNS_4hashIjEENS_8equal_toIjEENS_9allocatorINS_4pairIKjjEEEEEENS6_ISB_EEE19__add_back_capacityEv, symObjAddr: 0x1B844, symBinAddr: 0x4F3E8, symSize: 0x240 }
  - { offset: 0x26E134, size: 0x8, addend: 0x0, symName: __ZNSt3__114__split_bufferIPNS_13unordered_mapIjjNS_4hashIjEENS_8equal_toIjEENS_9allocatorINS_4pairIKjjEEEEEENS6_ISC_EEE12emplace_backIJRSC_EEEvDpOT_, symObjAddr: 0x1BA84, symBinAddr: 0x4F628, symSize: 0x17C }
  - { offset: 0x26E82A, size: 0x8, addend: 0x0, symName: __ZNSt3__114__split_bufferIPNS_13unordered_mapIjjNS_4hashIjEENS_8equal_toIjEENS_9allocatorINS_4pairIKjjEEEEEENS6_ISC_EEE13emplace_frontIJSC_EEEvDpOT_, symObjAddr: 0x1BD7C, symBinAddr: 0x4F7A4, symSize: 0x188 }
  - { offset: 0x26E840, size: 0x8, addend: 0x0, symName: __ZNSt3__114__split_bufferIPNS_13unordered_mapIjjNS_4hashIjEENS_8equal_toIjEENS_9allocatorINS_4pairIKjjEEEEEENS6_ISC_EEE13emplace_frontIJSC_EEEvDpOT_, symObjAddr: 0x1BD7C, symBinAddr: 0x4F7A4, symSize: 0x188 }
  - { offset: 0x26EF50, size: 0x8, addend: 0x0, symName: __ZNSt3__15dequeINS_13unordered_mapIjjNS_4hashIjEENS_8equal_toIjEENS_9allocatorINS_4pairIKjjEEEEEENS6_ISB_EEE8pop_backEv, symObjAddr: 0x1C08C, symBinAddr: 0x4F92C, symSize: 0xDC }
  - { offset: 0x26FF9D, size: 0x8, addend: 0x0, symName: __ZN11spirv_cross10ObjectPoolINS_8SPIRTypeEE8allocateIJN3spv2OpEEEEPS1_DpOT_, symObjAddr: 0x1C9B0, symBinAddr: 0x4FC48, symSize: 0x174 }
  - { offset: 0x27041C, size: 0x8, addend: 0x0, symName: __ZN11spirv_cross11SmallVectorIPNS_8SPIRTypeELm0EE7reserveEm, symObjAddr: 0x1CBE8, symBinAddr: 0x4FE80, symSize: 0xF0 }
  - { offset: 0x2704C4, size: 0x8, addend: 0x0, symName: __ZN11spirv_cross11SmallVectorINSt3__110unique_ptrINS_8SPIRTypeENS_10ObjectPoolIS3_E13MallocDeleterEEELm8EE7reserveEm, symObjAddr: 0x1CCD8, symBinAddr: 0x4FF70, symSize: 0xE0 }
  - { offset: 0x2704CF, size: 0x8, addend: 0x0, symName: __ZN11spirv_cross11SmallVectorINSt3__110unique_ptrINS_8SPIRTypeENS_10ObjectPoolIS3_E13MallocDeleterEEELm8EE7reserveEm, symObjAddr: 0x1CCD8, symBinAddr: 0x4FF70, symSize: 0xE0 }
  - { offset: 0x2707C9, size: 0x8, addend: 0x0, symName: __ZN11spirv_cross8SPIRTypeD1Ev, symObjAddr: 0x1CDB8, symBinAddr: 0x50050, symSize: 0x4 }
  - { offset: 0x2707ED, size: 0x8, addend: 0x0, symName: __ZN11spirv_cross8SPIRTypeD1Ev, symObjAddr: 0x1CDB8, symBinAddr: 0x50050, symSize: 0x4 }
  - { offset: 0x270801, size: 0x8, addend: 0x0, symName: __ZN11spirv_cross8SPIRTypeD2Ev, symObjAddr: 0x1CDE0, symBinAddr: 0x50078, symSize: 0xD8 }
  - { offset: 0x270DD2, size: 0x8, addend: 0x0, symName: __ZN11spirv_cross8SPIRTypeD0Ev, symObjAddr: 0x1CDBC, symBinAddr: 0x50054, symSize: 0x14 }
  - { offset: 0x270E34, size: 0x8, addend: 0x0, symName: __ZN11spirv_cross8SPIRType5cloneEPNS_14ObjectPoolBaseE, symObjAddr: 0x1CDD0, symBinAddr: 0x50068, symSize: 0x10 }
  - { offset: 0x270E8B, size: 0x8, addend: 0x0, symName: __ZN11spirv_cross10ObjectPoolINS_8SPIRTypeEE8allocateIJRS1_EEEPS1_DpOT_, symObjAddr: 0x1CF20, symBinAddr: 0x501B8, symSize: 0xE8 }
  - { offset: 0x2711D3, size: 0x8, addend: 0x0, symName: __ZNSt3__112__hash_tableINS_12basic_stringIcNS_11char_traitsIcEENS_9allocatorIcEEEENS_4hashIS6_EENS_8equal_toIS6_EENS4_IS6_EEED1Ev, symObjAddr: 0x1CEB8, symBinAddr: 0x50150, symSize: 0x68 }
  - { offset: 0x27156F, size: 0x8, addend: 0x0, symName: __ZN11spirv_cross8SPIRTypeC2ERKS0_, symObjAddr: 0x1D008, symBinAddr: 0x502A0, symSize: 0x50C }
  - { offset: 0x271B09, size: 0x8, addend: 0x0, symName: __ZNSt3__113unordered_setINS_12basic_stringIcNS_11char_traitsIcEENS_9allocatorIcEEEENS_4hashIS6_EENS_8equal_toIS6_EENS4_IS6_EEEC2ERKSC_, symObjAddr: 0x1D514, symBinAddr: 0x507AC, symSize: 0x124 }
  - { offset: 0x2724F9, size: 0x8, addend: 0x0, symName: __ZN11spirv_cross12SPIRVariableD1Ev, symObjAddr: 0x1DAA0, symBinAddr: 0x50B68, symSize: 0x60 }
  - { offset: 0x272641, size: 0x8, addend: 0x0, symName: __ZN11spirv_cross12SPIRVariableD0Ev, symObjAddr: 0x1DB00, symBinAddr: 0x50BC8, symSize: 0x60 }
  - { offset: 0x272792, size: 0x8, addend: 0x0, symName: __ZN11spirv_cross12SPIRVariable5cloneEPNS_14ObjectPoolBaseE, symObjAddr: 0x1DB60, symBinAddr: 0x50C28, symSize: 0x10 }
  - { offset: 0x2727E9, size: 0x8, addend: 0x0, symName: __ZN11spirv_cross10ObjectPoolINS_12SPIRVariableEE8allocateIJRS1_EEEPS1_DpOT_, symObjAddr: 0x1DB70, symBinAddr: 0x50C38, symSize: 0x318 }
  - { offset: 0x273084, size: 0x8, addend: 0x0, symName: __ZN11spirv_cross14SPIRExpressionD1Ev, symObjAddr: 0x1E2F0, symBinAddr: 0x511E8, symSize: 0x70 }
  - { offset: 0x2732C7, size: 0x8, addend: 0x0, symName: __ZN11spirv_cross14SPIRExpressionD0Ev, symObjAddr: 0x1E360, symBinAddr: 0x51258, symSize: 0x70 }
  - { offset: 0x273513, size: 0x8, addend: 0x0, symName: __ZN11spirv_cross14SPIRExpression5cloneEPNS_14ObjectPoolBaseE, symObjAddr: 0x1E3D0, symBinAddr: 0x512C8, symSize: 0x10 }
  - { offset: 0x27356A, size: 0x8, addend: 0x0, symName: __ZN11spirv_cross10ObjectPoolINS_14SPIRExpressionEE8allocateIJRS1_EEEPS1_DpOT_, symObjAddr: 0x1E3E0, symBinAddr: 0x512D8, symSize: 0xE8 }
  - { offset: 0x273779, size: 0x8, addend: 0x0, symName: __ZN11spirv_cross14SPIRExpressionC2ERKS0_, symObjAddr: 0x1E4C8, symBinAddr: 0x513C0, symSize: 0x27C }
  - { offset: 0x273FF2, size: 0x8, addend: 0x0, symName: __ZNSt3__112__hash_tableINS_17__hash_value_typeIjNS_13unordered_setIjNS_4hashIjEENS_8equal_toIjEENS_9allocatorIjEEEEEENS_22__unordered_map_hasherIjNS_4pairIKjS9_EES4_S6_Lb1EEENS_21__unordered_map_equalIjSE_S6_S4_Lb1EEENS7_ISE_EEE25__emplace_unique_key_argsIjJRKNS_21piecewise_construct_tENS_5tupleIJRSD_EEENSO_IJEEEEEENSC_INS_15__hash_iteratorIPNS_11__hash_nodeISA_PvEEEEbEERKT_DpOT0_, symObjAddr: 0x1ED7C, symBinAddr: 0x51B3C, symSize: 0x2E0 }
  - { offset: 0x274007, size: 0x8, addend: 0x0, symName: __ZNSt3__110unique_ptrINS_11__hash_nodeINS_17__hash_value_typeIjNS_13unordered_setIjNS_4hashIjEENS_8equal_toIjEENS_9allocatorIjEEEEEEPvEENS_22__hash_node_destructorINS8_ISD_EEEEED1B9nqe210106Ev, symObjAddr: 0x1EBD4, symBinAddr: 0x51ACC, symSize: 0x70 }
  - { offset: 0x275899, size: 0x8, addend: 0x0, symName: __ZNSt3__110unique_ptrINS_11__hash_nodeINS_17__hash_value_typeIjNS0_IN11spirv_cross3CFGENS_14default_deleteIS4_EEEEEEPvEENS_22__hash_node_destructorINS_9allocatorISA_EEEEED1B9nqe210106Ev, symObjAddr: 0x20B2C, symBinAddr: 0x5264C, symSize: 0x6C }
  - { offset: 0x276690, size: 0x8, addend: 0x0, symName: __ZN11spirv_cross12SPIRConstantD1Ev, symObjAddr: 0x21238, symBinAddr: 0x52918, symSize: 0x58 }
  - { offset: 0x276868, size: 0x8, addend: 0x0, symName: __ZN11spirv_cross12SPIRConstantD0Ev, symObjAddr: 0x21290, symBinAddr: 0x52970, symSize: 0x58 }
  - { offset: 0x276A49, size: 0x8, addend: 0x0, symName: __ZN11spirv_cross12SPIRConstant5cloneEPNS_14ObjectPoolBaseE, symObjAddr: 0x212E8, symBinAddr: 0x529C8, symSize: 0x10 }
  - { offset: 0x276AA0, size: 0x8, addend: 0x0, symName: __ZN11spirv_cross10ObjectPoolINS_12SPIRConstantEE8allocateIJRS1_EEEPS1_DpOT_, symObjAddr: 0x212F8, symBinAddr: 0x529D8, symSize: 0x2B0 }
  - { offset: 0x2776E3, size: 0x8, addend: 0x0, symName: __ZNSt3__112__hash_tableINS_17__hash_value_typeIjPN11spirv_cross8Compiler17PhysicalBlockMetaEEENS_22__unordered_map_hasherIjNS_4pairIKjS5_EENS_4hashIjEENS_8equal_toIjEELb1EEENS_21__unordered_map_equalIjSA_SE_SC_Lb1EEENS_9allocatorISA_EEE25__emplace_unique_key_argsIjJRKNS_21piecewise_construct_tENS_5tupleIJRS9_EEENSP_IJEEEEEENS8_INS_15__hash_iteratorIPNS_11__hash_nodeIS6_PvEEEEbEERKT_DpOT0_, symObjAddr: 0x21CB4, symBinAddr: 0x53110, symSize: 0x2B4 }
  - { offset: 0x277E82, size: 0x8, addend: 0x0, symName: _OUTLINED_FUNCTION_0, symObjAddr: 0x22540, symBinAddr: 0x533C4, symSize: 0x14 }
  - { offset: 0x281385, size: 0x8, addend: 0x0, symName: __ZN11spirv_crossL14extract_stringERKNSt3__16vectorIjNS0_9allocatorIjEEEEj, symObjAddr: 0x3424, symBinAddr: 0x567D4, symSize: 0x128 }
  - { offset: 0x2815EB, size: 0x8, addend: 0x0, symName: __ZN11spirv_crossL18to_signed_basetypeEj, symObjAddr: 0x3A7C, symBinAddr: 0x56E2C, symSize: 0x74 }
  - { offset: 0x281640, size: 0x8, addend: 0x0, symName: __ZN11spirv_crossL20to_unsigned_basetypeEj, symObjAddr: 0x3AF0, symBinAddr: 0x56EA0, symSize: 0x74 }
  - { offset: 0x286415, size: 0x8, addend: 0x0, symName: __ZNSt3__1L19piecewise_constructE, symObjAddr: 0xFD1D, symBinAddr: 0x1E20D1, symSize: 0x0 }
  - { offset: 0x290131, size: 0x8, addend: 0x0, symName: __ZNSt3__1eqB9nqe210106IcNS_11char_traitsIcEENS_9allocatorIcEEEEbRKNS_12basic_stringIT_T0_T1_EEPKS6_, symObjAddr: 0x3618, symBinAddr: 0x569C8, symSize: 0x80 }
  - { offset: 0x292A0D, size: 0x8, addend: 0x0, symName: __ZTVN11spirv_cross10SPIRStringE, symObjAddr: 0x10400, symBinAddr: 0x22D438, symSize: 0x0 }
  - { offset: 0x292A27, size: 0x8, addend: 0x0, symName: __ZTVN11spirv_cross9SPIRUndefE, symObjAddr: 0x10440, symBinAddr: 0x22D478, symSize: 0x0 }
  - { offset: 0x292A41, size: 0x8, addend: 0x0, symName: __ZTVN11spirv_cross13SPIRExtensionE, symObjAddr: 0x10480, symBinAddr: 0x22D4B8, symSize: 0x0 }
  - { offset: 0x292A60, size: 0x8, addend: 0x0, symName: __ZTVN11spirv_cross21SPIRFunctionPrototypeE, symObjAddr: 0x10500, symBinAddr: 0x22D4F8, symSize: 0x0 }
  - { offset: 0x292B5C, size: 0x8, addend: 0x0, symName: __ZTVN11spirv_cross12SPIRFunctionE, symObjAddr: 0x10580, symBinAddr: 0x22D538, symSize: 0x0 }
  - { offset: 0x292B71, size: 0x8, addend: 0x0, symName: __ZTVN11spirv_cross9SPIRBlockE, symObjAddr: 0x105C0, symBinAddr: 0x22D578, symSize: 0x0 }
  - { offset: 0x292C0A, size: 0x8, addend: 0x0, symName: __ZTVN11spirv_cross14SPIRConstantOpE, symObjAddr: 0x10600, symBinAddr: 0x22D5B8, symSize: 0x0 }
  - { offset: 0x2941AD, size: 0x8, addend: 0x0, symName: __ZN11spirv_cross6ParserC2ENSt3__16vectorIjNS1_9allocatorIjEEEE, symObjAddr: 0x0, symBinAddr: 0x533D8, symSize: 0x9C }
  - { offset: 0x294381, size: 0x8, addend: 0x0, symName: __ZN11spirv_cross6ParserC1ENSt3__16vectorIjNS1_9allocatorIjEEEE, symObjAddr: 0x9C, symBinAddr: 0x53474, symSize: 0x9C }
  - { offset: 0x294870, size: 0x8, addend: 0x0, symName: __ZN11spirv_cross6ParserC2EPKjm, symObjAddr: 0x138, symBinAddr: 0x53510, symSize: 0xE0 }
  - { offset: 0x295B3C, size: 0x8, addend: 0x0, symName: __ZN11spirv_cross6ParserC1EPKjm, symObjAddr: 0x218, symBinAddr: 0x535F0, symSize: 0xE0 }
  - { offset: 0x29603F, size: 0x8, addend: 0x0, symName: __ZN11spirv_cross6Parser5parseEv, symObjAddr: 0x2F8, symBinAddr: 0x536D0, symSize: 0x6D4 }
  - { offset: 0x296B43, size: 0x8, addend: 0x0, symName: __ZN11spirv_cross6Parser5parseERKNS_11InstructionE, symObjAddr: 0xA48, symBinAddr: 0x53DF8, symSize: 0x28F4 }
  - { offset: 0x29AFDD, size: 0x8, addend: 0x0, symName: __ZN11spirv_cross11SmallVectorINS_11InstructionELm8EE9push_backERKS1_, symObjAddr: 0x9F4, symBinAddr: 0x53DA4, symSize: 0x54 }
  - { offset: 0x29BF98, size: 0x8, addend: 0x0, symName: __ZN11spirv_cross6Parser3setINS_8SPIRTypeEJRN3spv2OpEEEERT_jDpOT0_, symObjAddr: 0x3A0C, symBinAddr: 0x56DBC, symSize: 0x70 }
  - { offset: 0x29C0EF, size: 0x8, addend: 0x0, symName: __ZN11spirv_cross6Parser3setINS_12SPIRConstantEJRjPKjjbEEERT_jDpOT0_, symObjAddr: 0x4444, symBinAddr: 0x57374, symSize: 0x90 }
  - { offset: 0x29CDFA, size: 0x8, addend: 0x0, symName: __ZN11spirv_cross6Parser3setINS_12SPIRConstantEJRKjybEEERT_jDpOT0_, symObjAddr: 0x42AC, symBinAddr: 0x57264, symSize: 0x88 }
  - { offset: 0x29D016, size: 0x8, addend: 0x0, symName: __ZN11spirv_cross6Parser3setINS_9SPIRBlockEJEEERT_jDpOT0_, symObjAddr: 0x4694, symBinAddr: 0x5756C, symSize: 0x68 }
  - { offset: 0x29D13B, size: 0x8, addend: 0x0, symName: __ZN11spirv_cross6Parser3setINS_12SPIRVariableEJRjN3spv12StorageClassEEEERT_jDpOT0_, symObjAddr: 0x4234, symBinAddr: 0x571EC, symSize: 0x78 }
  - { offset: 0x29D480, size: 0x8, addend: 0x0, symName: __ZN11spirv_cross6Parser3setINS_12SPIRConstantEJRjEEERT_jDpOT0_, symObjAddr: 0x476C, symBinAddr: 0x575D4, symSize: 0x70 }
  - { offset: 0x29D5D1, size: 0x8, addend: 0x0, symName: __ZNSt3__112__hash_tableINS_17__hash_value_typeIN11spirv_cross7TypedIDILNS2_5TypesE4EEENS2_14SPIREntryPointEEENS_22__unordered_map_hasherIS5_NS_4pairIKS5_S6_EENS_4hashIS5_EENS_8equal_toIS5_EELb1EEENS_21__unordered_map_equalIS5_SB_SF_SD_Lb1EEENS_9allocatorISB_EEE25__emplace_unique_key_argsIS5_JRKNS_21piecewise_construct_tENS_5tupleIJOS5_EEENSQ_IJEEEEEENS9_INS_15__hash_iteratorIPNS_11__hash_nodeIS7_PvEEEEbEERKT_DpOT0_, symObjAddr: 0x8C98, symBinAddr: 0x58A58, symSize: 0x33C }
  - { offset: 0x29DF67, size: 0x8, addend: 0x0, symName: __ZN11spirv_cross6Bitset3setEj, symObjAddr: 0x39C0, symBinAddr: 0x56D70, symSize: 0x4C }
  - { offset: 0x29E01D, size: 0x8, addend: 0x0, symName: __ZN11spirv_cross6Parser3setINS_21SPIRFunctionPrototypeEJRjEEERT_jDpOT0_, symObjAddr: 0x413C, symBinAddr: 0x570F4, symSize: 0x70 }
  - { offset: 0x29E1CF, size: 0x8, addend: 0x0, symName: __ZNSt3__112__hash_tableINS_17__hash_value_typeIN11spirv_cross7TypedIDILNS2_5TypesE0EEEjEENS_22__unordered_map_hasherIS5_NS_4pairIKS5_jEENS_4hashIS5_EENS_8equal_toIS5_EELb1EEENS_21__unordered_map_equalIS5_SA_SE_SC_Lb1EEENS_9allocatorISA_EEE25__emplace_unique_key_argsIS5_JSA_EEENS8_INS_15__hash_iteratorIPNS_11__hash_nodeIS6_PvEEEEbEERKT_DpOT0_, symObjAddr: 0x7FFC, symBinAddr: 0x5802C, symSize: 0x2AC }
  - { offset: 0x29E988, size: 0x8, addend: 0x0, symName: __ZN11spirv_cross6Parser3setINS_12SPIRFunctionEJRjS3_EEERT_jDpOT0_, symObjAddr: 0x45BC, symBinAddr: 0x57494, symSize: 0x78 }
  - { offset: 0x29EB05, size: 0x8, addend: 0x0, symName: __ZN11spirv_cross11SmallVectorINSt3__112basic_stringIcNS1_11char_traitsIcEENS1_9allocatorIcEEEELm8EE9push_backEOS7_, symObjAddr: 0x35BC, symBinAddr: 0x5696C, symSize: 0x5C }
  - { offset: 0x29EBA2, size: 0x8, addend: 0x0, symName: __ZN11spirv_cross6Parser3setINS_8SPIRTypeEJRS2_EEERT_jDpOT0_, symObjAddr: 0x3B64, symBinAddr: 0x56F14, symSize: 0x70 }
  - { offset: 0x29EDDF, size: 0x8, addend: 0x0, symName: __ZN11spirv_cross6Parser3setINS_10SPIRStringEJNSt3__112basic_stringIcNS3_11char_traitsIcEENS3_9allocatorIcEEEEEEERT_jDpOT0_, symObjAddr: 0x33B4, symBinAddr: 0x56764, symSize: 0x70 }
  - { offset: 0x29EF31, size: 0x8, addend: 0x0, symName: __ZN11spirv_cross6Parser3setINS_14SPIRConstantOpEJRjRN3spv2OpEPKjjEEERT_jDpOT0_, symObjAddr: 0x47DC, symBinAddr: 0x57644, symSize: 0x90 }
  - { offset: 0x29F107, size: 0x8, addend: 0x0, symName: __ZN11spirv_cross6Parser3setINS_9SPIRUndefEJRjEEERT_jDpOT0_, symObjAddr: 0x354C, symBinAddr: 0x568FC, symSize: 0x70 }
  - { offset: 0x29F3E9, size: 0x8, addend: 0x0, symName: __ZNSt3__112__hash_tableINS_17__hash_value_typeIN11spirv_cross7TypedIDILNS2_5TypesE6EEES5_EENS_22__unordered_map_hasherIS5_NS_4pairIKS5_S5_EENS_4hashIS5_EENS_8equal_toIS5_EELb1EEENS_21__unordered_map_equalIS5_SA_SE_SC_Lb1EEENS_9allocatorISA_EEE25__emplace_unique_key_argsIS5_JRKNS_21piecewise_construct_tENS_5tupleIJRS9_EEENSP_IJEEEEEENS8_INS_15__hash_iteratorIPNS_11__hash_nodeIS6_PvEEEEbEERKT_DpOT0_, symObjAddr: 0xE504, symBinAddr: 0x5AF9C, symSize: 0x2B0 }
  - { offset: 0x29FBC6, size: 0x8, addend: 0x0, symName: __ZN11spirv_cross14SPIREntryPointC1ENS_7TypedIDILNS_5TypesE4EEEN3spv14ExecutionModelERKNSt3__112basic_stringIcNS6_11char_traitsIcEENS6_9allocatorIcEEEE, symObjAddr: 0x37C8, symBinAddr: 0x56B78, symSize: 0xE0 }
  - { offset: 0x29FF9A, size: 0x8, addend: 0x0, symName: __ZNSt3__14pairIjN11spirv_cross14SPIREntryPointEEC2B9nqe210106IRKjS2_Li0EEEOT_OT0_, symObjAddr: 0x83E0, symBinAddr: 0x582D8, symSize: 0x208 }
  - { offset: 0x2A0402, size: 0x8, addend: 0x0, symName: __ZNSt3__112__hash_tableINS_17__hash_value_typeIN11spirv_cross7TypedIDILNS2_5TypesE4EEENS2_14SPIREntryPointEEENS_22__unordered_map_hasherIS5_NS_4pairIKS5_S6_EENS_4hashIS5_EENS_8equal_toIS5_EELb1EEENS_21__unordered_map_equalIS5_SB_SF_SD_Lb1EEENS_9allocatorISB_EEE21__emplace_unique_implIJNS9_IjS6_EEEEENS9_INS_15__hash_iteratorIPNS_11__hash_nodeIS7_PvEEEEbEEDpOT_, symObjAddr: 0x85E8, symBinAddr: 0x584E0, symSize: 0x160 }
  - { offset: 0x2A0A33, size: 0x8, addend: 0x0, symName: __ZNSt3__14pairIjN11spirv_cross14SPIREntryPointEED1Ev, symObjAddr: 0x38A8, symBinAddr: 0x56C58, symSize: 0x8C }
  - { offset: 0x2A0FD6, size: 0x8, addend: 0x0, symName: __ZN11spirv_cross14SPIREntryPointD1Ev, symObjAddr: 0x3934, symBinAddr: 0x56CE4, symSize: 0x8C }
  - { offset: 0x2A1538, size: 0x8, addend: 0x0, symName: '__ZZN11spirv_cross6Parser5parseERKNS_11InstructionEENK3$_0clEj', symObjAddr: 0x98BC, symBinAddr: 0x58D94, symSize: 0x164 }
  - { offset: 0x2A176B, size: 0x8, addend: 0x0, symName: __ZNK11spirv_cross6Parser30types_are_logically_equivalentERKNS_8SPIRTypeES3_, symObjAddr: 0x3FCC, symBinAddr: 0x56F84, symSize: 0x170 }
  - { offset: 0x2A1ACF, size: 0x8, addend: 0x0, symName: __ZN11spirv_cross12SPIRFunction13add_parameterENS_7TypedIDILNS_5TypesE1EEENS1_ILS2_0EEEb, symObjAddr: 0x4634, symBinAddr: 0x5750C, symSize: 0x60 }
  - { offset: 0x2A1BA9, size: 0x8, addend: 0x0, symName: __ZN11spirv_cross6Parser3setINS_12SPIRConstantEJRKjS4_bEEERT_jDpOT0_, symObjAddr: 0x4334, symBinAddr: 0x572EC, symSize: 0x88 }
  - { offset: 0x2A1D58, size: 0x8, addend: 0x0, symName: __ZN11spirv_cross6Parser3setINS_12SPIRVariableEJRjRN3spv12StorageClassES3_EEERT_jDpOT0_, symObjAddr: 0x41AC, symBinAddr: 0x57164, symSize: 0x88 }
  - { offset: 0x2A1F01, size: 0x8, addend: 0x0, symName: __ZN11spirv_cross7Variant3getINS_14SPIRConstantOpEEERT_v, symObjAddr: 0xC1C0, symBinAddr: 0x59700, symSize: 0x88 }
  - { offset: 0x2A1F79, size: 0x8, addend: 0x0, symName: __ZN11spirv_cross7Variant3getINS_9SPIRUndefEEERT_v, symObjAddr: 0xC248, symBinAddr: 0x59788, symSize: 0x88 }
  - { offset: 0x2A2005, size: 0x8, addend: 0x0, symName: __ZN11spirv_cross6Parser3setINS_12SPIRConstantEJRjRA4_PKS2_S3_bEEERT_jDpOT0_, symObjAddr: 0x452C, symBinAddr: 0x57404, symSize: 0x90 }
  - { offset: 0x2A21DA, size: 0x8, addend: 0x0, symName: __ZNKSt3__112basic_stringIcNS_11char_traitsIcEENS_9allocatorIcEEE4findB9nqe210106EPKcm, symObjAddr: 0x3698, symBinAddr: 0x56A48, symSize: 0xC0 }
  - { offset: 0x2A2434, size: 0x8, addend: 0x0, symName: __ZN11spirv_cross6Parser3setINS_13SPIRExtensionEJRNS2_9ExtensionEEEERT_jDpOT0_, symObjAddr: 0x3758, symBinAddr: 0x56B08, symSize: 0x70 }
  - { offset: 0x2A2775, size: 0x8, addend: 0x0, symName: __ZNK11spirv_cross6Parser6streamERKNS_11InstructionE, symObjAddr: 0x333C, symBinAddr: 0x566EC, symSize: 0x78 }
  - { offset: 0x2A2877, size: 0x8, addend: 0x0, symName: __ZN11spirv_cross10ObjectPoolINS_10SPIRStringEE8allocateIJNSt3__112basic_stringIcNS4_11char_traitsIcEENS4_9allocatorIcEEEEEEEPS1_DpOT_, symObjAddr: 0x6F94, symBinAddr: 0x577DC, symSize: 0x15C }
  - { offset: 0x2A2C4D, size: 0x8, addend: 0x0, symName: __ZN11spirv_cross10ObjectPoolINS_9SPIRUndefEE8allocateIJRjEEEPS1_DpOT_, symObjAddr: 0x7554, symBinAddr: 0x57B08, symSize: 0xF8 }
  - { offset: 0x2A2F17, size: 0x8, addend: 0x0, symName: __ZN11spirv_cross11SmallVectorINSt3__112basic_stringIcNS1_11char_traitsIcEENS1_9allocatorIcEEEELm8EE7reserveEm, symObjAddr: 0x7A80, symBinAddr: 0x57D10, symSize: 0x11C }
  - { offset: 0x2A3258, size: 0x8, addend: 0x0, symName: __ZN11spirv_cross10ObjectPoolINS_13SPIRExtensionEE8allocateIJRNS1_9ExtensionEEEEPS1_DpOT_, symObjAddr: 0x7C24, symBinAddr: 0x57E2C, symSize: 0xF8 }
  - { offset: 0x2A48FB, size: 0x8, addend: 0x0, symName: __ZN11spirv_cross10ObjectPoolINS_21SPIRFunctionPrototypeEE8allocateIJRjEEEPS1_DpOT_, symObjAddr: 0xAB3C, symBinAddr: 0x58EF8, symSize: 0x110 }
  - { offset: 0x2A4ED1, size: 0x8, addend: 0x0, symName: __ZN11spirv_cross10ObjectPoolINS_12SPIRVariableEE8allocateIJRjN3spv12StorageClassEEEEPS1_DpOT_, symObjAddr: 0xB914, symBinAddr: 0x592A4, symSize: 0x140 }
  - { offset: 0x2A52C6, size: 0x8, addend: 0x0, symName: __ZN11spirv_cross10ObjectPoolINS_12SPIRConstantEE8allocateIJRKjybEEEPS1_DpOT_, symObjAddr: 0xBB40, symBinAddr: 0x593E4, symSize: 0x190 }
  - { offset: 0x2A5754, size: 0x8, addend: 0x0, symName: __ZN11spirv_cross10ObjectPoolINS_12SPIRConstantEE8allocateIJRKjS5_bEEEPS1_DpOT_, symObjAddr: 0xBCD0, symBinAddr: 0x59574, symSize: 0x18C }
  - { offset: 0x2A622C, size: 0x8, addend: 0x0, symName: __ZN11spirv_cross10ObjectPoolINS_12SPIRConstantEE8allocateIJRjRA4_PKS1_S4_bEEEPS1_DpOT_, symObjAddr: 0xC358, symBinAddr: 0x59810, symSize: 0x114 }
  - { offset: 0x2A64CA, size: 0x8, addend: 0x0, symName: __ZN11spirv_cross10ObjectPoolINS_12SPIRFunctionEE8allocateIJRjS4_EEEPS1_DpOT_, symObjAddr: 0xC5C0, symBinAddr: 0x59A78, symSize: 0x194 }
  - { offset: 0x2A6A96, size: 0x8, addend: 0x0, symName: __ZN11spirv_cross10ObjectPoolINS_9SPIRBlockEE8allocateIJEEEPS1_DpOT_, symObjAddr: 0xD520, symBinAddr: 0x5A5F0, symSize: 0x188 }
  - { offset: 0x2A753F, size: 0x8, addend: 0x0, symName: __ZN11spirv_cross10ObjectPoolINS_14SPIRConstantOpEE8allocateIJRjRN3spv2OpEPKjjEEEPS1_DpOT_, symObjAddr: 0xE8EC, symBinAddr: 0x5B24C, symSize: 0x188 }
  - { offset: 0x2A7909, size: 0x8, addend: 0x0, symName: __ZNK11spirv_cross6Parser27variable_storage_is_aliasedERKNS_12SPIRVariableE, symObjAddr: 0x486C, symBinAddr: 0x576D4, symSize: 0x108 }
  - { offset: 0x2ABFFF, size: 0x8, addend: 0x0, symName: __ZN11spirv_cross10SPIRStringD1Ev, symObjAddr: 0x7384, symBinAddr: 0x57938, symSize: 0x48 }
  - { offset: 0x2AC14D, size: 0x8, addend: 0x0, symName: __ZN11spirv_cross10SPIRStringD0Ev, symObjAddr: 0x73CC, symBinAddr: 0x57980, symSize: 0x48 }
  - { offset: 0x2AC29E, size: 0x8, addend: 0x0, symName: __ZN11spirv_cross10SPIRString5cloneEPNS_14ObjectPoolBaseE, symObjAddr: 0x7414, symBinAddr: 0x579C8, symSize: 0x10 }
  - { offset: 0x2AC2F5, size: 0x8, addend: 0x0, symName: __ZN11spirv_cross10ObjectPoolINS_10SPIRStringEE8allocateIJRS1_EEEPS1_DpOT_, symObjAddr: 0x7424, symBinAddr: 0x579D8, symSize: 0x130 }
  - { offset: 0x2AC9F0, size: 0x8, addend: 0x0, symName: __ZN11spirv_cross9SPIRUndef5cloneEPNS_14ObjectPoolBaseE, symObjAddr: 0x7824, symBinAddr: 0x57C00, symSize: 0x10 }
  - { offset: 0x2ACA47, size: 0x8, addend: 0x0, symName: __ZN11spirv_cross10ObjectPoolINS_9SPIRUndefEE8allocateIJRS1_EEEPS1_DpOT_, symObjAddr: 0x7834, symBinAddr: 0x57C10, symSize: 0x100 }
  - { offset: 0x2AD156, size: 0x8, addend: 0x0, symName: __ZN11spirv_cross13SPIRExtension5cloneEPNS_14ObjectPoolBaseE, symObjAddr: 0x7EF4, symBinAddr: 0x57F24, symSize: 0x10 }
  - { offset: 0x2AD1AD, size: 0x8, addend: 0x0, symName: __ZN11spirv_cross10ObjectPoolINS_13SPIRExtensionEE8allocateIJRS1_EEEPS1_DpOT_, symObjAddr: 0x7F04, symBinAddr: 0x57F34, symSize: 0xF8 }
  - { offset: 0x2AD9EC, size: 0x8, addend: 0x0, symName: __ZNSt3__14pairIjN11spirv_cross14SPIREntryPointEEC2B9nqe210106IRKjS2_Li0EEEOT_OT0_, symObjAddr: 0x83E0, symBinAddr: 0x582D8, symSize: 0x208 }
  - { offset: 0x2AE12C, size: 0x8, addend: 0x0, symName: __ZNSt3__14pairIKN11spirv_cross7TypedIDILNS1_5TypesE4EEENS1_14SPIREntryPointEEC2B9nqe210106IjS6_Li0EEEONS0_IT_T0_EE, symObjAddr: 0x8790, symBinAddr: 0x58688, symSize: 0x210 }
  - { offset: 0x2AE5D1, size: 0x8, addend: 0x0, symName: __ZNSt3__112__hash_tableINS_17__hash_value_typeIN11spirv_cross7TypedIDILNS2_5TypesE4EEENS2_14SPIREntryPointEEENS_22__unordered_map_hasherIS5_NS_4pairIKS5_S6_EENS_4hashIS5_EENS_8equal_toIS5_EELb1EEENS_21__unordered_map_equalIS5_SB_SF_SD_Lb1EEENS_9allocatorISB_EEE28__node_insert_unique_prepareB9nqe210106EmRSB_, symObjAddr: 0x89A0, symBinAddr: 0x58898, symSize: 0x1C0 }
  - { offset: 0x2AE8CB, size: 0x8, addend: 0x0, symName: __ZNSt3__110unique_ptrINS_11__hash_nodeINS_17__hash_value_typeIN11spirv_cross7TypedIDILNS3_5TypesE4EEENS3_14SPIREntryPointEEEPvEENS_22__hash_node_destructorINS_9allocatorISA_EEEEED1B9nqe210106Ev, symObjAddr: 0x8748, symBinAddr: 0x58640, symSize: 0x48 }
  - { offset: 0x2AED01, size: 0x8, addend: 0x0, symName: __ZNSt3__112__hash_tableINS_17__hash_value_typeIN11spirv_cross7TypedIDILNS2_5TypesE4EEENS2_14SPIREntryPointEEENS_22__unordered_map_hasherIS5_NS_4pairIKS5_S6_EENS_4hashIS5_EENS_8equal_toIS5_EELb1EEENS_21__unordered_map_equalIS5_SB_SF_SD_Lb1EEENS_9allocatorISB_EEE25__emplace_unique_key_argsIS5_JRKNS_21piecewise_construct_tENS_5tupleIJOS5_EEENSQ_IJEEEEEENS9_INS_15__hash_iteratorIPNS_11__hash_nodeIS7_PvEEEEbEERKT_DpOT0_, symObjAddr: 0x8C98, symBinAddr: 0x58A58, symSize: 0x33C }
  - { offset: 0x2B027C, size: 0x8, addend: 0x0, symName: '__ZZN11spirv_cross6Parser5parseERKNS_11InstructionEENK3$_0clEj', symObjAddr: 0x98BC, symBinAddr: 0x58D94, symSize: 0x164 }
  - { offset: 0x2B1FB9, size: 0x8, addend: 0x0, symName: __ZN11spirv_cross21SPIRFunctionPrototypeD1Ev, symObjAddr: 0xAE1C, symBinAddr: 0x59008, symSize: 0x4C }
  - { offset: 0x2B1FDF, size: 0x8, addend: 0x0, symName: __ZN11spirv_cross21SPIRFunctionPrototypeD1Ev, symObjAddr: 0xAE1C, symBinAddr: 0x59008, symSize: 0x4C }
  - { offset: 0x2B208F, size: 0x8, addend: 0x0, symName: __ZN11spirv_cross21SPIRFunctionPrototypeD0Ev, symObjAddr: 0xAE68, symBinAddr: 0x59054, symSize: 0x4C }
  - { offset: 0x2B20C0, size: 0x8, addend: 0x0, symName: __ZN11spirv_cross21SPIRFunctionPrototypeD0Ev, symObjAddr: 0xAE68, symBinAddr: 0x59054, symSize: 0x4C }
  - { offset: 0x2B20E0, size: 0x8, addend: 0x0, symName: __ZN11spirv_cross21SPIRFunctionPrototypeD0Ev, symObjAddr: 0xAE68, symBinAddr: 0x59054, symSize: 0x4C }
  - { offset: 0x2B2170, size: 0x8, addend: 0x0, symName: __ZN11spirv_cross21SPIRFunctionPrototype5cloneEPNS_14ObjectPoolBaseE, symObjAddr: 0xAEB4, symBinAddr: 0x590A0, symSize: 0x10 }
  - { offset: 0x2B21C7, size: 0x8, addend: 0x0, symName: __ZN11spirv_cross10ObjectPoolINS_21SPIRFunctionPrototypeEE8allocateIJRS1_EEEPS1_DpOT_, symObjAddr: 0xAEC4, symBinAddr: 0x590B0, symSize: 0x1F4 }
  - { offset: 0x2B2CA3, size: 0x8, addend: 0x0, symName: __ZN11spirv_cross12SPIRConstantC2ENS_7TypedIDILNS_5TypesE1EEEPKPKS0_jb, symObjAddr: 0xC46C, symBinAddr: 0x59924, symSize: 0x154 }
  - { offset: 0x2B2D0C, size: 0x8, addend: 0x0, symName: __ZN11spirv_cross12SPIRConstantC2ENS_7TypedIDILNS_5TypesE1EEEPKPKS0_jb, symObjAddr: 0xC46C, symBinAddr: 0x59924, symSize: 0x154 }
  - { offset: 0x2B2D2A, size: 0x8, addend: 0x0, symName: __ZN11spirv_cross12SPIRConstantC2ENS_7TypedIDILNS_5TypesE1EEEPKPKS0_jb, symObjAddr: 0xC46C, symBinAddr: 0x59924, symSize: 0x154 }
  - { offset: 0x2B2D51, size: 0x8, addend: 0x0, symName: __ZN11spirv_cross12SPIRConstantC2ENS_7TypedIDILNS_5TypesE1EEEPKPKS0_jb, symObjAddr: 0xC46C, symBinAddr: 0x59924, symSize: 0x154 }
  - { offset: 0x2B34A0, size: 0x8, addend: 0x0, symName: __ZN11spirv_cross12SPIRFunctionD1Ev, symObjAddr: 0xC924, symBinAddr: 0x59C0C, symSize: 0x4 }
  - { offset: 0x2B34C4, size: 0x8, addend: 0x0, symName: __ZN11spirv_cross12SPIRFunctionD1Ev, symObjAddr: 0xC924, symBinAddr: 0x59C0C, symSize: 0x4 }
  - { offset: 0x2B34D8, size: 0x8, addend: 0x0, symName: __ZN11spirv_cross12SPIRFunctionD2Ev, symObjAddr: 0xC94C, symBinAddr: 0x59C34, symSize: 0x198 }
  - { offset: 0x2B39E0, size: 0x8, addend: 0x0, symName: __ZN11spirv_cross12SPIRFunctionD0Ev, symObjAddr: 0xC928, symBinAddr: 0x59C10, symSize: 0x14 }
  - { offset: 0x2B3A42, size: 0x8, addend: 0x0, symName: __ZN11spirv_cross12SPIRFunction5cloneEPNS_14ObjectPoolBaseE, symObjAddr: 0xC93C, symBinAddr: 0x59C24, symSize: 0x10 }
  - { offset: 0x2B3A99, size: 0x8, addend: 0x0, symName: __ZN11spirv_cross10ObjectPoolINS_12SPIRFunctionEE8allocateIJRS1_EEEPS1_DpOT_, symObjAddr: 0xCAE4, symBinAddr: 0x59DCC, symSize: 0xE8 }
  - { offset: 0x2B3EB4, size: 0x8, addend: 0x0, symName: __ZN11spirv_cross12SPIRFunctionC2ERKS0_, symObjAddr: 0xCBCC, symBinAddr: 0x59EB4, symSize: 0x4EC }
  - { offset: 0x2B45B8, size: 0x8, addend: 0x0, symName: __ZN11spirv_cross11SmallVectorINSt3__18functionIFvvEEELm0EEaSERKS5_, symObjAddr: 0xD2D0, symBinAddr: 0x5A3A0, symSize: 0x124 }
  - { offset: 0x2B480E, size: 0x8, addend: 0x0, symName: __ZN11spirv_cross11SmallVectorINSt3__18functionIFvvEEELm0EE7reserveEm, symObjAddr: 0xD3F4, symBinAddr: 0x5A4C4, symSize: 0x12C }
  - { offset: 0x2B4F0F, size: 0x8, addend: 0x0, symName: __ZN11spirv_cross9SPIRBlockD1Ev, symObjAddr: 0xD878, symBinAddr: 0x5A778, symSize: 0x4 }
  - { offset: 0x2B4F33, size: 0x8, addend: 0x0, symName: __ZN11spirv_cross9SPIRBlockD1Ev, symObjAddr: 0xD878, symBinAddr: 0x5A778, symSize: 0x4 }
  - { offset: 0x2B4F47, size: 0x8, addend: 0x0, symName: __ZN11spirv_cross9SPIRBlockD2Ev, symObjAddr: 0xD8A0, symBinAddr: 0x5A7A0, symSize: 0x108 }
  - { offset: 0x2B53AE, size: 0x8, addend: 0x0, symName: __ZN11spirv_cross9SPIRBlockD0Ev, symObjAddr: 0xD87C, symBinAddr: 0x5A77C, symSize: 0x14 }
  - { offset: 0x2B5410, size: 0x8, addend: 0x0, symName: __ZN11spirv_cross9SPIRBlock5cloneEPNS_14ObjectPoolBaseE, symObjAddr: 0xD890, symBinAddr: 0x5A790, symSize: 0x10 }
  - { offset: 0x2B5467, size: 0x8, addend: 0x0, symName: __ZN11spirv_cross10ObjectPoolINS_9SPIRBlockEE8allocateIJRS1_EEEPS1_DpOT_, symObjAddr: 0xD9A8, symBinAddr: 0x5A8A8, symSize: 0xE8 }
  - { offset: 0x2B57A1, size: 0x8, addend: 0x0, symName: __ZN11spirv_cross9SPIRBlockC2ERKS0_, symObjAddr: 0xDA90, symBinAddr: 0x5A990, symSize: 0x60C }
  - { offset: 0x2B6774, size: 0x8, addend: 0x0, symName: __ZN11spirv_cross10ObjectPoolINS_14SPIRConstantOpEE8allocateIJRjRN3spv2OpEPKjjEEEPS1_DpOT_, symObjAddr: 0xE8EC, symBinAddr: 0x5B24C, symSize: 0x188 }
  - { offset: 0x2B6CAD, size: 0x8, addend: 0x0, symName: __ZN11spirv_cross14SPIRConstantOpD1Ev, symObjAddr: 0xEC44, symBinAddr: 0x5B3D4, symSize: 0x4C }
  - { offset: 0x2B6CD3, size: 0x8, addend: 0x0, symName: __ZN11spirv_cross14SPIRConstantOpD1Ev, symObjAddr: 0xEC44, symBinAddr: 0x5B3D4, symSize: 0x4C }
  - { offset: 0x2B6D83, size: 0x8, addend: 0x0, symName: __ZN11spirv_cross14SPIRConstantOpD0Ev, symObjAddr: 0xEC90, symBinAddr: 0x5B420, symSize: 0x4C }
  - { offset: 0x2B6DB4, size: 0x8, addend: 0x0, symName: __ZN11spirv_cross14SPIRConstantOpD0Ev, symObjAddr: 0xEC90, symBinAddr: 0x5B420, symSize: 0x4C }
  - { offset: 0x2B6DD4, size: 0x8, addend: 0x0, symName: __ZN11spirv_cross14SPIRConstantOpD0Ev, symObjAddr: 0xEC90, symBinAddr: 0x5B420, symSize: 0x4C }
  - { offset: 0x2B6E64, size: 0x8, addend: 0x0, symName: __ZN11spirv_cross14SPIRConstantOp5cloneEPNS_14ObjectPoolBaseE, symObjAddr: 0xECDC, symBinAddr: 0x5B46C, symSize: 0x10 }
  - { offset: 0x2B6EBB, size: 0x8, addend: 0x0, symName: __ZN11spirv_cross10ObjectPoolINS_14SPIRConstantOpEE8allocateIJRS1_EEEPS1_DpOT_, symObjAddr: 0xECEC, symBinAddr: 0x5B47C, symSize: 0x1F4 }
  - { offset: 0x2BE107, size: 0x8, addend: 0x0, symName: __ZNSt3__1L19piecewise_constructE, symObjAddr: 0xE264, symBinAddr: 0x1E2549, symSize: 0x0 }
  - { offset: 0x2CC633, size: 0x8, addend: 0x0, symName: __ZN11spirv_crossL22is_reserved_identifierERKNSt3__112basic_stringIcNS0_11char_traitsIcEENS0_9allocatorIcEEEEbb, symObjAddr: 0x2250, symBinAddr: 0x5D32C, symSize: 0x23C }
  - { offset: 0x2CCD82, size: 0x8, addend: 0x0, symName: __ZTVN11spirv_cross10ObjectPoolINS_8SPIRTypeEEE, symObjAddr: 0xE3F8, symBinAddr: 0x22D5F8, symSize: 0x0 }
  - { offset: 0x2CF34D, size: 0x8, addend: 0x0, symName: __ZTVN11spirv_cross10ObjectPoolINS_12SPIRVariableEEE, symObjAddr: 0xE448, symBinAddr: 0x22D648, symSize: 0x0 }
  - { offset: 0x2CF3CB, size: 0x8, addend: 0x0, symName: __ZTVN11spirv_cross10ObjectPoolINS_12SPIRConstantEEE, symObjAddr: 0xE488, symBinAddr: 0x22D688, symSize: 0x0 }
  - { offset: 0x2CF51E, size: 0x8, addend: 0x0, symName: __ZTVN11spirv_cross10ObjectPoolINS_12SPIRFunctionEEE, symObjAddr: 0xE4C8, symBinAddr: 0x22D6C8, symSize: 0x0 }
  - { offset: 0x2CF547, size: 0x8, addend: 0x0, symName: __ZTVN11spirv_cross10ObjectPoolINS_21SPIRFunctionPrototypeEEE, symObjAddr: 0xE508, symBinAddr: 0x22D708, symSize: 0x0 }
  - { offset: 0x2CF570, size: 0x8, addend: 0x0, symName: __ZTVN11spirv_cross10ObjectPoolINS_9SPIRBlockEEE, symObjAddr: 0xE548, symBinAddr: 0x22D748, symSize: 0x0 }
  - { offset: 0x2CF599, size: 0x8, addend: 0x0, symName: __ZTVN11spirv_cross10ObjectPoolINS_13SPIRExtensionEEE, symObjAddr: 0xE588, symBinAddr: 0x22D788, symSize: 0x0 }
  - { offset: 0x2CF5C2, size: 0x8, addend: 0x0, symName: __ZTVN11spirv_cross10ObjectPoolINS_14SPIRExpressionEEE, symObjAddr: 0xE5C8, symBinAddr: 0x22D7C8, symSize: 0x0 }
  - { offset: 0x2CF622, size: 0x8, addend: 0x0, symName: __ZTVN11spirv_cross10ObjectPoolINS_14SPIRConstantOpEEE, symObjAddr: 0xE608, symBinAddr: 0x22D808, symSize: 0x0 }
  - { offset: 0x2CF651, size: 0x8, addend: 0x0, symName: __ZTVN11spirv_cross10ObjectPoolINS_24SPIRCombinedImageSamplerEEE, symObjAddr: 0xE648, symBinAddr: 0x22D848, symSize: 0x0 }
  - { offset: 0x2CF744, size: 0x8, addend: 0x0, symName: __ZTVN11spirv_cross10ObjectPoolINS_15SPIRAccessChainEEE, symObjAddr: 0xE688, symBinAddr: 0x22D888, symSize: 0x0 }
  - { offset: 0x2CF83C, size: 0x8, addend: 0x0, symName: __ZTVN11spirv_cross10ObjectPoolINS_9SPIRUndefEEE, symObjAddr: 0xE6C8, symBinAddr: 0x22D8C8, symSize: 0x0 }
  - { offset: 0x2CF865, size: 0x8, addend: 0x0, symName: __ZTVN11spirv_cross10ObjectPoolINS_10SPIRStringEEE, symObjAddr: 0xE708, symBinAddr: 0x22D908, symSize: 0x0 }
  - { offset: 0x2D1791, size: 0x8, addend: 0x0, symName: __ZN11spirv_cross8ParsedIRC2Ev, symObjAddr: 0x0, symBinAddr: 0x5B670, symSize: 0x700 }
  - { offset: 0x2D33C0, size: 0x8, addend: 0x0, symName: __ZNSt3__113unordered_mapIN11spirv_cross7TypedIDILNS1_5TypesE4EEENS1_14SPIREntryPointENS_4hashIS4_EENS_8equal_toIS4_EENS_9allocatorINS_4pairIKS4_S5_EEEEED1B9nqe210106Ev, symObjAddr: 0x790, symBinAddr: 0x5BD70, symSize: 0x5C }
  - { offset: 0x2D3A2A, size: 0x8, addend: 0x0, symName: __ZNSt3__113unordered_mapIN11spirv_cross7TypedIDILNS1_5TypesE0EEENS1_4MetaENS_4hashIS4_EENS_8equal_toIS4_EENS_9allocatorINS_4pairIKS4_S5_EEEEED1B9nqe210106Ev, symObjAddr: 0x900, symBinAddr: 0x5BDCC, symSize: 0x5C }
  - { offset: 0x2D3CE2, size: 0x8, addend: 0x0, symName: __ZN11spirv_cross11SmallVectorINS_7VariantELm8EED1Ev, symObjAddr: 0x95C, symBinAddr: 0x5BE28, symSize: 0x98 }
  - { offset: 0x2D3DAE, size: 0x8, addend: 0x0, symName: __ZNSt3__110unique_ptrIN11spirv_cross15ObjectPoolGroupENS_14default_deleteIS2_EEED1B9nqe210106Ev, symObjAddr: 0x9F4, symBinAddr: 0x5BEC0, symSize: 0x3C }
  - { offset: 0x2D4B6B, size: 0x8, addend: 0x0, symName: __ZN11spirv_cross8ParsedIRC1Ev, symObjAddr: 0xA30, symBinAddr: 0x5BEFC, symSize: 0x4 }
  - { offset: 0x2D4B8F, size: 0x8, addend: 0x0, symName: __ZN11spirv_cross8ParsedIRC1Ev, symObjAddr: 0xA30, symBinAddr: 0x5BEFC, symSize: 0x4 }
  - { offset: 0x2D4BA3, size: 0x8, addend: 0x0, symName: __ZN11spirv_cross8ParsedIRC2EOS0_, symObjAddr: 0xA34, symBinAddr: 0x5BF00, symSize: 0x194 }
  - { offset: 0x2D4BDF, size: 0x8, addend: 0x0, symName: __ZN11spirv_cross8ParsedIRC2EOS0_, symObjAddr: 0xA34, symBinAddr: 0x5BF00, symSize: 0x194 }
  - { offset: 0x2D4BFE, size: 0x8, addend: 0x0, symName: __ZN11spirv_cross8ParsedIRC2EOS0_, symObjAddr: 0xA34, symBinAddr: 0x5BF00, symSize: 0x194 }
  - { offset: 0x2D52F7, size: 0x8, addend: 0x0, symName: __ZN11spirv_cross8ParsedIRaSEOS0_, symObjAddr: 0xBD8, symBinAddr: 0x5C094, symSize: 0x66C }
  - { offset: 0x2D5BEC, size: 0x8, addend: 0x0, symName: __ZNSt3__112__hash_tableINS_17__hash_value_typeIN11spirv_cross7TypedIDILNS2_5TypesE0EEENS2_4MetaEEENS_22__unordered_map_hasherIS5_NS_4pairIKS5_S6_EENS_4hashIS5_EENS_8equal_toIS5_EELb1EEENS_21__unordered_map_equalIS5_SB_SF_SD_Lb1EEENS_9allocatorISB_EEE13__move_assignERSL_NS_17integral_constantIbLb1EEE, symObjAddr: 0x8620, symBinAddr: 0x61A30, symSize: 0xEC }
  - { offset: 0x2D6081, size: 0x8, addend: 0x0, symName: __ZN11spirv_cross11SmallVectorINSt3__112basic_stringIcNS1_11char_traitsIcEENS1_9allocatorIcEEEELm8EEaSEOS8_, symObjAddr: 0x1248, symBinAddr: 0x5C704, symSize: 0x134 }
  - { offset: 0x2D6337, size: 0x8, addend: 0x0, symName: __ZN11spirv_cross11SmallVectorIhLm8EE7reserveEm, symObjAddr: 0x8AC0, symBinAddr: 0x61B1C, symSize: 0xC0 }
  - { offset: 0x2D65E4, size: 0x8, addend: 0x0, symName: __ZNSt3__112__hash_tableINS_17__hash_value_typeIN11spirv_cross7TypedIDILNS2_5TypesE4EEENS2_14SPIREntryPointEEENS_22__unordered_map_hasherIS5_NS_4pairIKS5_S6_EENS_4hashIS5_EENS_8equal_toIS5_EELb1EEENS_21__unordered_map_equalIS5_SB_SF_SD_Lb1EEENS_9allocatorISB_EEE13__move_assignERSL_NS_17integral_constantIbLb1EEE, symObjAddr: 0x8C60, symBinAddr: 0x61BDC, symSize: 0xEC }
  - { offset: 0x2D6993, size: 0x8, addend: 0x0, symName: __ZN11spirv_cross11SmallVectorINS_7VariantELm8EEaSEOS2_, symObjAddr: 0x137C, symBinAddr: 0x5C838, symSize: 0x178 }
  - { offset: 0x2D6F57, size: 0x8, addend: 0x0, symName: __ZN11spirv_cross8ParsedIRC1EOS0_, symObjAddr: 0x1244, symBinAddr: 0x5C700, symSize: 0x4 }
  - { offset: 0x2D6F93, size: 0x8, addend: 0x0, symName: __ZN11spirv_cross8ParsedIRC1EOS0_, symObjAddr: 0x1244, symBinAddr: 0x5C700, symSize: 0x4 }
  - { offset: 0x2D7180, size: 0x8, addend: 0x0, symName: __ZN11spirv_cross11SmallVectorINS_7VariantELm8EE7reserveEm, symObjAddr: 0x2040, symBinAddr: 0x5D11C, symSize: 0x14C }
  - { offset: 0x2D72FF, size: 0x8, addend: 0x0, symName: __ZN11spirv_cross8ParsedIRC2ERKS0_, symObjAddr: 0x14F4, symBinAddr: 0x5C9B0, symSize: 0x44 }
  - { offset: 0x2D737F, size: 0x8, addend: 0x0, symName: __ZN11spirv_cross8ParsedIRaSERKS0_, symObjAddr: 0x1538, symBinAddr: 0x5C9F4, symSize: 0x5F8 }
  - { offset: 0x2D8E35, size: 0x8, addend: 0x0, symName: __ZNSt3__16vectorIjNS_9allocatorIjEEE18__assign_with_sizeB9nqe210106IPjS5_EEvT_T0_l, symObjAddr: 0x8E2C, symBinAddr: 0x61CC8, symSize: 0x134 }
  - { offset: 0x2D98C8, size: 0x8, addend: 0x0, symName: __ZNSt3__112__hash_tableINS_17__hash_value_typeIN11spirv_cross7TypedIDILNS2_5TypesE0EEENS2_4MetaEEENS_22__unordered_map_hasherIS5_NS_4pairIKS5_S6_EENS_4hashIS5_EENS_8equal_toIS5_EELb1EEENS_21__unordered_map_equalIS5_SB_SF_SD_Lb1EEENS_9allocatorISB_EEE14__assign_multiINS_21__hash_const_iteratorIPNS_11__hash_nodeIS7_PvEEEEEEvT_ST_, symObjAddr: 0x8F74, symBinAddr: 0x61DFC, symSize: 0x124 }
  - { offset: 0x2D9C79, size: 0x8, addend: 0x0, symName: __ZN11spirv_cross11SmallVectorINSt3__112basic_stringIcNS1_11char_traitsIcEENS1_9allocatorIcEEEELm8EEaSERKS8_, symObjAddr: 0x1F54, symBinAddr: 0x5D030, symSize: 0xEC }
  - { offset: 0x2D9E6E, size: 0x8, addend: 0x0, symName: __ZNSt3__112__hash_tableINS_17__hash_value_typeIN11spirv_cross7TypedIDILNS2_5TypesE6EEES5_EENS_22__unordered_map_hasherIS5_NS_4pairIKS5_S5_EENS_4hashIS5_EENS_8equal_toIS5_EELb1EEENS_21__unordered_map_equalIS5_SA_SE_SC_Lb1EEENS_9allocatorISA_EEE14__assign_multiINS_21__hash_const_iteratorIPNS_11__hash_nodeIS6_PvEEEEEEvT_SS_, symObjAddr: 0xA704, symBinAddr: 0x62CEC, symSize: 0x120 }
  - { offset: 0x2DA4CF, size: 0x8, addend: 0x0, symName: __ZNSt3__112__hash_tableINS_17__hash_value_typeIN11spirv_cross7TypedIDILNS2_5TypesE4EEENS2_14SPIREntryPointEEENS_22__unordered_map_hasherIS5_NS_4pairIKS5_S6_EENS_4hashIS5_EENS_8equal_toIS5_EELb1EEENS_21__unordered_map_equalIS5_SB_SF_SD_Lb1EEENS_9allocatorISB_EEE14__assign_multiINS_21__hash_const_iteratorIPNS_11__hash_nodeIS7_PvEEEEEEvT_ST_, symObjAddr: 0xAC70, symBinAddr: 0x62E0C, symSize: 0x158 }
  - { offset: 0x2DAB59, size: 0x8, addend: 0x0, symName: __ZNSt3__112__hash_tableIjNS_4hashIjEENS_8equal_toIjEENS_9allocatorIjEEE14__assign_multiINS_21__hash_const_iteratorIPNS_11__hash_nodeIjPvEEEEEEvT_SF_, symObjAddr: 0xB720, symBinAddr: 0x630CC, symSize: 0x118 }
  - { offset: 0x2DB172, size: 0x8, addend: 0x0, symName: __ZNSt3__112__hash_tableINS_17__hash_value_typeIN11spirv_cross7TypedIDILNS2_5TypesE0EEEjEENS_22__unordered_map_hasherIS5_NS_4pairIKS5_jEENS_4hashIS5_EENS_8equal_toIS5_EELb1EEENS_21__unordered_map_equalIS5_SA_SE_SC_Lb1EEENS_9allocatorISA_EEE14__assign_multiINS_21__hash_const_iteratorIPNS_11__hash_nodeIS6_PvEEEEEEvT_SS_, symObjAddr: 0xBC84, symBinAddr: 0x631E4, symSize: 0x120 }
  - { offset: 0x2DB906, size: 0x8, addend: 0x0, symName: __ZN11spirv_cross8ParsedIRC1ERKS0_, symObjAddr: 0x1F10, symBinAddr: 0x5CFEC, symSize: 0x44 }
  - { offset: 0x2DBB37, size: 0x8, addend: 0x0, symName: __ZNSt3__112__hash_tableINS_17__hash_value_typeIjjEENS_22__unordered_map_hasherIjNS_4pairIKjjEENS_4hashIjEENS_8equal_toIjEELb1EEENS_21__unordered_map_equalIjS6_SA_S8_Lb1EEENS_9allocatorIS6_EEE14__assign_multiINS_21__hash_const_iteratorIPNS_11__hash_nodeIS2_PvEEEEEEvT_SO_, symObjAddr: 0x9860, symBinAddr: 0x62414, symSize: 0x118 }
  - { offset: 0x2DBB92, size: 0x8, addend: 0x0, symName: __ZN11spirv_cross8ParsedIR13set_id_boundsEj, symObjAddr: 0x218C, symBinAddr: 0x5D268, symSize: 0xB8 }
  - { offset: 0x2DBCE8, size: 0x8, addend: 0x0, symName: __ZN11spirv_cross8ParsedIR31is_globally_reserved_identifierERNSt3__112basic_stringIcNS1_11char_traitsIcEENS1_9allocatorIcEEEEb, symObjAddr: 0x2244, symBinAddr: 0x5D320, symSize: 0xC }
  - { offset: 0x2DBE94, size: 0x8, addend: 0x0, symName: __ZNK11spirv_cross8ParsedIR17get_spirv_versionEv, symObjAddr: 0x248C, symBinAddr: 0x5D568, symSize: 0xC }
  - { offset: 0x2DBEC0, size: 0x8, addend: 0x0, symName: __ZNK11spirv_cross8ParsedIR17get_spirv_versionEv, symObjAddr: 0x248C, symBinAddr: 0x5D568, symSize: 0xC }
  - { offset: 0x2DBFBE, size: 0x8, addend: 0x0, symName: __ZN11spirv_cross8ParsedIR20sanitize_underscoresERNSt3__112basic_stringIcNS1_11char_traitsIcEENS1_9allocatorIcEEEE, symObjAddr: 0x2498, symBinAddr: 0x5D574, symSize: 0x98 }
  - { offset: 0x2DC337, size: 0x8, addend: 0x0, symName: __ZNK11spirv_cross8ParsedIR8get_nameENS_7TypedIDILNS_5TypesE0EEE, symObjAddr: 0x2530, symBinAddr: 0x5D60C, symSize: 0xCC }
  - { offset: 0x2DC3EA, size: 0x8, addend: 0x0, symName: __ZNK11spirv_cross8ParsedIR8get_nameENS_7TypedIDILNS_5TypesE0EEE, symObjAddr: 0x2530, symBinAddr: 0x5D60C, symSize: 0xCC }
  - { offset: 0x2DC40B, size: 0x8, addend: 0x0, symName: __ZNK11spirv_cross8ParsedIR8get_nameENS_7TypedIDILNS_5TypesE0EEE, symObjAddr: 0x2530, symBinAddr: 0x5D60C, symSize: 0xCC }
  - { offset: 0x2DC5E0, size: 0x8, addend: 0x0, symName: __ZNK11spirv_cross8ParsedIR9find_metaENS_7TypedIDILNS_5TypesE0EEE, symObjAddr: 0x25FC, symBinAddr: 0x5D6D8, symSize: 0xC0 }
  - { offset: 0x2DC654, size: 0x8, addend: 0x0, symName: __ZNK11spirv_cross8ParsedIR9find_metaENS_7TypedIDILNS_5TypesE0EEE, symObjAddr: 0x25FC, symBinAddr: 0x5D6D8, symSize: 0xC0 }
  - { offset: 0x2DC675, size: 0x8, addend: 0x0, symName: __ZNK11spirv_cross8ParsedIR9find_metaENS_7TypedIDILNS_5TypesE0EEE, symObjAddr: 0x25FC, symBinAddr: 0x5D6D8, symSize: 0xC0 }
  - { offset: 0x2DC869, size: 0x8, addend: 0x0, symName: __ZNK11spirv_cross8ParsedIR15get_member_nameENS_7TypedIDILNS_5TypesE1EEEj, symObjAddr: 0x26BC, symBinAddr: 0x5D798, symSize: 0xC8 }
  - { offset: 0x2DC923, size: 0x8, addend: 0x0, symName: __ZNK11spirv_cross8ParsedIR15get_member_nameENS_7TypedIDILNS_5TypesE1EEEj, symObjAddr: 0x26BC, symBinAddr: 0x5D798, symSize: 0xC8 }
  - { offset: 0x2DC944, size: 0x8, addend: 0x0, symName: __ZNK11spirv_cross8ParsedIR15get_member_nameENS_7TypedIDILNS_5TypesE1EEEj, symObjAddr: 0x26BC, symBinAddr: 0x5D798, symSize: 0xC8 }
  - { offset: 0x2DCE69, size: 0x8, addend: 0x0, symName: __ZN11spirv_cross8ParsedIR19sanitize_identifierERNSt3__112basic_stringIcNS1_11char_traitsIcEENS1_9allocatorIcEEEEbb, symObjAddr: 0x2784, symBinAddr: 0x5D860, symSize: 0x684 }
  - { offset: 0x2DDE2D, size: 0x8, addend: 0x0, symName: __ZN11spirv_cross8ParsedIR20fixup_reserved_namesEv, symObjAddr: 0x2E08, symBinAddr: 0x5DEE4, symSize: 0x104 }
  - { offset: 0x2DE983, size: 0x8, addend: 0x0, symName: __ZN11spirv_cross8ParsedIR8set_nameENS_7TypedIDILNS_5TypesE0EEERKNSt3__112basic_stringIcNS4_11char_traitsIcEENS4_9allocatorIcEEEE, symObjAddr: 0x2F0C, symBinAddr: 0x5DFE8, symSize: 0x160 }
  - { offset: 0x2DFA3C, size: 0x8, addend: 0x0, symName: __ZN11spirv_cross8ParsedIR15set_member_nameENS_7TypedIDILNS_5TypesE1EEEjRKNSt3__112basic_stringIcNS4_11char_traitsIcEENS4_9allocatorIcEEEE, symObjAddr: 0x306C, symBinAddr: 0x5E148, symSize: 0x220 }
  - { offset: 0x2E03FA, size: 0x8, addend: 0x0, symName: __ZN11spirv_cross4Meta10DecorationC2ERKS1_, symObjAddr: 0x9604, symBinAddr: 0x62234, symSize: 0x1E0 }
  - { offset: 0x2E04A7, size: 0x8, addend: 0x0, symName: __ZN11spirv_cross8ParsedIR21set_decoration_stringENS_7TypedIDILNS_5TypesE0EEEN3spv10DecorationERKNSt3__112basic_stringIcNS6_11char_traitsIcEENS6_9allocatorIcEEEE, symObjAddr: 0x328C, symBinAddr: 0x5E368, symSize: 0xC0 }
  - { offset: 0x2E0A08, size: 0x8, addend: 0x0, symName: __ZN11spirv_cross8ParsedIR14set_decorationENS_7TypedIDILNS_5TypesE0EEEN3spv10DecorationEj, symObjAddr: 0x334C, symBinAddr: 0x5E428, symSize: 0x19C }
  - { offset: 0x2E0C4F, size: 0x8, addend: 0x0, symName: __ZN11spirv_cross8ParsedIR21set_member_decorationENS_7TypedIDILNS_5TypesE1EEEjN3spv10DecorationEj, symObjAddr: 0x34E8, symBinAddr: 0x5E5C4, symSize: 0x1F0 }
  - { offset: 0x2E1099, size: 0x8, addend: 0x0, symName: __ZN11spirv_cross8ParsedIR25mark_used_as_array_lengthENS_7TypedIDILNS_5TypesE0EEE, symObjAddr: 0x36D8, symBinAddr: 0x5E7B4, symSize: 0xB8 }
  - { offset: 0x2E141F, size: 0x8, addend: 0x0, symName: __ZNK11spirv_cross8ParsedIR27get_buffer_block_type_flagsERKNS_8SPIRTypeE, symObjAddr: 0x3790, symBinAddr: 0x5E86C, symSize: 0x240 }
  - { offset: 0x2E1D76, size: 0x8, addend: 0x0, symName: __ZN11spirv_cross6Bitset9merge_andERKS0_, symObjAddr: 0x3A9C, symBinAddr: 0x5EB78, symSize: 0x15C }
  - { offset: 0x2E23D6, size: 0x8, addend: 0x0, symName: __ZNK11spirv_cross8ParsedIR28get_member_decoration_bitsetENS_7TypedIDILNS_5TypesE1EEEj, symObjAddr: 0x39D0, symBinAddr: 0x5EAAC, symSize: 0xCC }
  - { offset: 0x2E2474, size: 0x8, addend: 0x0, symName: __ZNK11spirv_cross8ParsedIR28get_member_decoration_bitsetENS_7TypedIDILNS_5TypesE1EEEj, symObjAddr: 0x39D0, symBinAddr: 0x5EAAC, symSize: 0xCC }
  - { offset: 0x2E2495, size: 0x8, addend: 0x0, symName: __ZNK11spirv_cross8ParsedIR28get_member_decoration_bitsetENS_7TypedIDILNS_5TypesE1EEEj, symObjAddr: 0x39D0, symBinAddr: 0x5EAAC, symSize: 0xCC }
  - { offset: 0x2E2853, size: 0x8, addend: 0x0, symName: __ZNK11spirv_cross8ParsedIR22get_buffer_block_flagsERKNS_12SPIRVariableE, symObjAddr: 0x3BF8, symBinAddr: 0x5ECD4, symSize: 0x1C4 }
  - { offset: 0x2E31E2, size: 0x8, addend: 0x0, symName: __ZNK11spirv_cross8ParsedIR14has_decorationENS_7TypedIDILNS_5TypesE0EEEN3spv10DecorationE, symObjAddr: 0x3DBC, symBinAddr: 0x5EE98, symSize: 0x194 }
  - { offset: 0x2E32C4, size: 0x8, addend: 0x0, symName: __ZNK11spirv_cross8ParsedIR14has_decorationENS_7TypedIDILNS_5TypesE0EEEN3spv10DecorationE, symObjAddr: 0x3DBC, symBinAddr: 0x5EE98, symSize: 0x194 }
  - { offset: 0x2E32E5, size: 0x8, addend: 0x0, symName: __ZNK11spirv_cross8ParsedIR14has_decorationENS_7TypedIDILNS_5TypesE0EEEN3spv10DecorationE, symObjAddr: 0x3DBC, symBinAddr: 0x5EE98, symSize: 0x194 }
  - { offset: 0x2E3617, size: 0x8, addend: 0x0, symName: __ZNK11spirv_cross8ParsedIR21get_decoration_bitsetENS_7TypedIDILNS_5TypesE0EEE, symObjAddr: 0x3F50, symBinAddr: 0x5F02C, symSize: 0xD0 }
  - { offset: 0x2E36B5, size: 0x8, addend: 0x0, symName: __ZNK11spirv_cross8ParsedIR21get_decoration_bitsetENS_7TypedIDILNS_5TypesE0EEE, symObjAddr: 0x3F50, symBinAddr: 0x5F02C, symSize: 0xD0 }
  - { offset: 0x2E36D6, size: 0x8, addend: 0x0, symName: __ZNK11spirv_cross8ParsedIR21get_decoration_bitsetENS_7TypedIDILNS_5TypesE0EEE, symObjAddr: 0x3F50, symBinAddr: 0x5F02C, symSize: 0xD0 }
  - { offset: 0x2E3836, size: 0x8, addend: 0x0, symName: __ZNK11spirv_cross8ParsedIR14get_decorationENS_7TypedIDILNS_5TypesE0EEEN3spv10DecorationE, symObjAddr: 0x4020, symBinAddr: 0x5F0FC, symSize: 0x20C }
  - { offset: 0x2E38FF, size: 0x8, addend: 0x0, symName: __ZNK11spirv_cross8ParsedIR14get_decorationENS_7TypedIDILNS_5TypesE0EEEN3spv10DecorationE, symObjAddr: 0x4020, symBinAddr: 0x5F0FC, symSize: 0x20C }
  - { offset: 0x2E3920, size: 0x8, addend: 0x0, symName: __ZNK11spirv_cross8ParsedIR14get_decorationENS_7TypedIDILNS_5TypesE0EEEN3spv10DecorationE, symObjAddr: 0x4020, symBinAddr: 0x5F0FC, symSize: 0x20C }
  - { offset: 0x2E3C6E, size: 0x8, addend: 0x0, symName: __ZNK11spirv_cross8ParsedIR21get_decoration_stringENS_7TypedIDILNS_5TypesE0EEEN3spv10DecorationE, symObjAddr: 0x422C, symBinAddr: 0x5F308, symSize: 0x178 }
  - { offset: 0x2E3D37, size: 0x8, addend: 0x0, symName: __ZNK11spirv_cross8ParsedIR21get_decoration_stringENS_7TypedIDILNS_5TypesE0EEEN3spv10DecorationE, symObjAddr: 0x422C, symBinAddr: 0x5F308, symSize: 0x178 }
  - { offset: 0x2E3D58, size: 0x8, addend: 0x0, symName: __ZNK11spirv_cross8ParsedIR21get_decoration_stringENS_7TypedIDILNS_5TypesE0EEEN3spv10DecorationE, symObjAddr: 0x422C, symBinAddr: 0x5F308, symSize: 0x178 }
  - { offset: 0x2E4155, size: 0x8, addend: 0x0, symName: __ZN11spirv_cross8ParsedIR16unset_decorationENS_7TypedIDILNS_5TypesE0EEEN3spv10DecorationE, symObjAddr: 0x43A4, symBinAddr: 0x5F480, symSize: 0x1B0 }
  - { offset: 0x2E4607, size: 0x8, addend: 0x0, symName: __ZNK11spirv_cross8ParsedIR21has_member_decorationENS_7TypedIDILNS_5TypesE1EEEjN3spv10DecorationE, symObjAddr: 0x4554, symBinAddr: 0x5F630, symSize: 0x194 }
  - { offset: 0x2E46E9, size: 0x8, addend: 0x0, symName: __ZNK11spirv_cross8ParsedIR21has_member_decorationENS_7TypedIDILNS_5TypesE1EEEjN3spv10DecorationE, symObjAddr: 0x4554, symBinAddr: 0x5F630, symSize: 0x194 }
  - { offset: 0x2E470A, size: 0x8, addend: 0x0, symName: __ZNK11spirv_cross8ParsedIR21has_member_decorationENS_7TypedIDILNS_5TypesE1EEEjN3spv10DecorationE, symObjAddr: 0x4554, symBinAddr: 0x5F630, symSize: 0x194 }
  - { offset: 0x2E4A80, size: 0x8, addend: 0x0, symName: __ZNK11spirv_cross8ParsedIR21get_member_decorationENS_7TypedIDILNS_5TypesE1EEEjN3spv10DecorationE, symObjAddr: 0x46E8, symBinAddr: 0x5F7C4, symSize: 0x200 }
  - { offset: 0x2E4B5A, size: 0x8, addend: 0x0, symName: __ZNK11spirv_cross8ParsedIR21get_member_decorationENS_7TypedIDILNS_5TypesE1EEEjN3spv10DecorationE, symObjAddr: 0x46E8, symBinAddr: 0x5F7C4, symSize: 0x200 }
  - { offset: 0x2E4B7B, size: 0x8, addend: 0x0, symName: __ZNK11spirv_cross8ParsedIR21get_member_decorationENS_7TypedIDILNS_5TypesE1EEEjN3spv10DecorationE, symObjAddr: 0x46E8, symBinAddr: 0x5F7C4, symSize: 0x200 }
  - { offset: 0x2E4F29, size: 0x8, addend: 0x0, symName: __ZN11spirv_cross8ParsedIR28set_member_decoration_stringENS_7TypedIDILNS_5TypesE1EEEjN3spv10DecorationERKNSt3__112basic_stringIcNS6_11char_traitsIcEENS6_9allocatorIcEEEE, symObjAddr: 0x48E8, symBinAddr: 0x5F9C4, symSize: 0x1BC }
  - { offset: 0x2E538B, size: 0x8, addend: 0x0, symName: __ZNK11spirv_cross8ParsedIR28get_member_decoration_stringENS_7TypedIDILNS_5TypesE1EEEjN3spv10DecorationE, symObjAddr: 0x4AA4, symBinAddr: 0x5FB80, symSize: 0x110 }
  - { offset: 0x2E5630, size: 0x8, addend: 0x0, symName: __ZN11spirv_cross8ParsedIR23unset_member_decorationENS_7TypedIDILNS_5TypesE1EEEjN3spv10DecorationE, symObjAddr: 0x4BB4, symBinAddr: 0x5FC90, symSize: 0x164 }
  - { offset: 0x2E58DA, size: 0x8, addend: 0x0, symName: __ZN11spirv_cross8ParsedIR17increase_bound_byEj, symObjAddr: 0x4D18, symBinAddr: 0x5FDF4, symSize: 0xC8 }
  - { offset: 0x2E5B6B, size: 0x8, addend: 0x0, symName: __ZN11spirv_cross8ParsedIR15remove_typed_idENS_5TypesENS_7TypedIDILS1_0EEE, symObjAddr: 0x4DE0, symBinAddr: 0x5FEBC, symSize: 0x160 }
  - { offset: 0x2E5DA8, size: 0x8, addend: 0x0, symName: __ZN11spirv_cross8ParsedIR17reset_all_of_typeENS_5TypesE, symObjAddr: 0x4F40, symBinAddr: 0x6001C, symSize: 0xA8 }
  - { offset: 0x2E5F6F, size: 0x8, addend: 0x0, symName: __ZN11spirv_cross8ParsedIR12add_typed_idENS_5TypesENS_7TypedIDILS1_0EEE, symObjAddr: 0x4FE8, symBinAddr: 0x600C4, symSize: 0x324 }
  - { offset: 0x2E6463, size: 0x8, addend: 0x0, symName: __ZN11spirv_cross8ParsedIR9find_metaENS_7TypedIDILNS_5TypesE0EEE, symObjAddr: 0x5334, symBinAddr: 0x603E8, symSize: 0xC0 }
  - { offset: 0x2E64EC, size: 0x8, addend: 0x0, symName: __ZN11spirv_cross8ParsedIR9find_metaENS_7TypedIDILNS_5TypesE0EEE, symObjAddr: 0x5334, symBinAddr: 0x603E8, symSize: 0xC0 }
  - { offset: 0x2E650D, size: 0x8, addend: 0x0, symName: __ZN11spirv_cross8ParsedIR9find_metaENS_7TypedIDILNS_5TypesE0EEE, symObjAddr: 0x5334, symBinAddr: 0x603E8, symSize: 0xC0 }
  - { offset: 0x2E66FA, size: 0x8, addend: 0x0, symName: __ZNK11spirv_cross8ParsedIR21create_loop_hard_lockEv, symObjAddr: 0x53F4, symBinAddr: 0x604A8, symSize: 0x18 }
  - { offset: 0x2E6774, size: 0x8, addend: 0x0, symName: __ZN11spirv_cross8ParsedIR8LoopLockC1EPj, symObjAddr: 0x540C, symBinAddr: 0x604C0, symSize: 0x18 }
  - { offset: 0x2E67A0, size: 0x8, addend: 0x0, symName: __ZN11spirv_cross8ParsedIR8LoopLockC1EPj, symObjAddr: 0x540C, symBinAddr: 0x604C0, symSize: 0x18 }
  - { offset: 0x2E67C4, size: 0x8, addend: 0x0, symName: __ZNK11spirv_cross8ParsedIR21create_loop_soft_lockEv, symObjAddr: 0x5424, symBinAddr: 0x604D8, symSize: 0x18 }
  - { offset: 0x2E683E, size: 0x8, addend: 0x0, symName: __ZN11spirv_cross8ParsedIR8LoopLockD2Ev, symObjAddr: 0x543C, symBinAddr: 0x604F0, symSize: 0x18 }
  - { offset: 0x2E6880, size: 0x8, addend: 0x0, symName: __ZN11spirv_cross8ParsedIR8LoopLockD1Ev, symObjAddr: 0x5454, symBinAddr: 0x60508, symSize: 0x18 }
  - { offset: 0x2E68B3, size: 0x8, addend: 0x0, symName: __ZN11spirv_cross8ParsedIR8LoopLockD1Ev, symObjAddr: 0x5454, symBinAddr: 0x60508, symSize: 0x18 }
  - { offset: 0x2E68CF, size: 0x8, addend: 0x0, symName: __ZN11spirv_cross8ParsedIR8LoopLockC2EPj, symObjAddr: 0x546C, symBinAddr: 0x60520, symSize: 0x18 }
  - { offset: 0x2E691D, size: 0x8, addend: 0x0, symName: __ZN11spirv_cross8ParsedIR8LoopLockC2EOS1_, symObjAddr: 0x5484, symBinAddr: 0x60538, symSize: 0x24 }
  - { offset: 0x2E6949, size: 0x8, addend: 0x0, symName: __ZN11spirv_cross8ParsedIR8LoopLockC2EOS1_, symObjAddr: 0x5484, symBinAddr: 0x60538, symSize: 0x24 }
  - { offset: 0x2E696D, size: 0x8, addend: 0x0, symName: __ZN11spirv_cross8ParsedIR8LoopLockaSEOS1_, symObjAddr: 0x54A8, symBinAddr: 0x6055C, symSize: 0x24 }
  - { offset: 0x2E69BF, size: 0x8, addend: 0x0, symName: __ZN11spirv_cross8ParsedIR8LoopLockC1EOS1_, symObjAddr: 0x54CC, symBinAddr: 0x60580, symSize: 0x24 }
  - { offset: 0x2E69FD, size: 0x8, addend: 0x0, symName: __ZN11spirv_cross8ParsedIR8LoopLockC1EOS1_, symObjAddr: 0x54CC, symBinAddr: 0x60580, symSize: 0x24 }
  - { offset: 0x2E6A23, size: 0x8, addend: 0x0, symName: __ZN11spirv_cross8ParsedIR8LoopLockC1EOS1_, symObjAddr: 0x54CC, symBinAddr: 0x60580, symSize: 0x24 }
  - { offset: 0x2E6DA3, size: 0x8, addend: 0x0, symName: __ZN11spirv_cross8ParsedIR18make_constant_nullEjjb, symObjAddr: 0x54F0, symBinAddr: 0x605A4, symSize: 0x4BC }
  - { offset: 0x2E8A6C, size: 0x8, addend: 0x0, symName: __ZNSt3__112__hash_tableINS_17__hash_value_typeIN11spirv_cross7TypedIDILNS2_5TypesE0EEENS2_4MetaEEENS_22__unordered_map_hasherIS5_NS_4pairIKS5_S6_EENS_4hashIS5_EENS_8equal_toIS5_EELb1EEENS_21__unordered_map_equalIS5_SB_SF_SD_Lb1EEENS_9allocatorISB_EEE17__deallocate_nodeEPNS_16__hash_node_baseIPNS_11__hash_nodeIS7_PvEEEE, symObjAddr: 0x62C0, symBinAddr: 0x60A60, symSize: 0x3C }
  - { offset: 0x2E9431, size: 0x8, addend: 0x0, symName: __ZN11spirv_cross11SmallVectorINS_4Meta10DecorationELm0EED1Ev, symObjAddr: 0x638C, symBinAddr: 0x60A9C, symSize: 0x68 }
  - { offset: 0x2E9683, size: 0x8, addend: 0x0, symName: __ZNSt3__112__hash_tableINS_17__hash_value_typeIN11spirv_cross7TypedIDILNS2_5TypesE4EEENS2_14SPIREntryPointEEENS_22__unordered_map_hasherIS5_NS_4pairIKS5_S6_EENS_4hashIS5_EENS_8equal_toIS5_EELb1EEENS_21__unordered_map_equalIS5_SB_SF_SD_Lb1EEENS_9allocatorISB_EEE17__deallocate_nodeEPNS_16__hash_node_baseIPNS_11__hash_nodeIS7_PvEEEE, symObjAddr: 0x6508, symBinAddr: 0x60B04, symSize: 0x3C }
  - { offset: 0x2E9A53, size: 0x8, addend: 0x0, symName: __ZN11spirv_cross10ObjectPoolINS_8SPIRTypeEED1Ev, symObjAddr: 0x6740, symBinAddr: 0x60B40, symSize: 0x90 }
  - { offset: 0x2E9C65, size: 0x8, addend: 0x0, symName: __ZN11spirv_cross10ObjectPoolINS_8SPIRTypeEED0Ev, symObjAddr: 0x67D0, symBinAddr: 0x60BD0, symSize: 0x90 }
  - { offset: 0x2E9EC4, size: 0x8, addend: 0x0, symName: __ZN11spirv_cross10ObjectPoolINS_8SPIRTypeEE17deallocate_opaqueEPv, symObjAddr: 0x6860, symBinAddr: 0x60C60, symSize: 0x50 }
  - { offset: 0x2E9FC4, size: 0x8, addend: 0x0, symName: __ZN11spirv_cross10ObjectPoolINS_12SPIRVariableEED1Ev, symObjAddr: 0x69A0, symBinAddr: 0x60CB0, symSize: 0x90 }
  - { offset: 0x2EA141, size: 0x8, addend: 0x0, symName: __ZN11spirv_cross10ObjectPoolINS_12SPIRVariableEED1Ev, symObjAddr: 0x69A0, symBinAddr: 0x60CB0, symSize: 0x90 }
  - { offset: 0x2EA353, size: 0x8, addend: 0x0, symName: __ZN11spirv_cross10ObjectPoolINS_12SPIRVariableEED0Ev, symObjAddr: 0x6A30, symBinAddr: 0x60D40, symSize: 0x90 }
  - { offset: 0x2EA6E0, size: 0x8, addend: 0x0, symName: __ZN11spirv_cross10ObjectPoolINS_12SPIRConstantEED1Ev, symObjAddr: 0x6C00, symBinAddr: 0x60DD0, symSize: 0x90 }
  - { offset: 0x2EA8F2, size: 0x8, addend: 0x0, symName: __ZN11spirv_cross10ObjectPoolINS_12SPIRConstantEED0Ev, symObjAddr: 0x6C90, symBinAddr: 0x60E60, symSize: 0x90 }
  - { offset: 0x2EAB75, size: 0x8, addend: 0x0, symName: __ZN11spirv_cross10ObjectPoolINS_12SPIRFunctionEED1Ev, symObjAddr: 0x6E60, symBinAddr: 0x60EF0, symSize: 0x90 }
  - { offset: 0x2EACF2, size: 0x8, addend: 0x0, symName: __ZN11spirv_cross10ObjectPoolINS_12SPIRFunctionEED1Ev, symObjAddr: 0x6E60, symBinAddr: 0x60EF0, symSize: 0x90 }
  - { offset: 0x2EAF04, size: 0x8, addend: 0x0, symName: __ZN11spirv_cross10ObjectPoolINS_12SPIRFunctionEED0Ev, symObjAddr: 0x6EF0, symBinAddr: 0x60F80, symSize: 0x90 }
  - { offset: 0x2EB291, size: 0x8, addend: 0x0, symName: __ZN11spirv_cross10ObjectPoolINS_21SPIRFunctionPrototypeEED1Ev, symObjAddr: 0x70C0, symBinAddr: 0x61010, symSize: 0x90 }
  - { offset: 0x2EB4A3, size: 0x8, addend: 0x0, symName: __ZN11spirv_cross10ObjectPoolINS_21SPIRFunctionPrototypeEED0Ev, symObjAddr: 0x7150, symBinAddr: 0x610A0, symSize: 0x90 }
  - { offset: 0x2EB830, size: 0x8, addend: 0x0, symName: __ZN11spirv_cross10ObjectPoolINS_9SPIRBlockEED1Ev, symObjAddr: 0x7320, symBinAddr: 0x61130, symSize: 0x90 }
  - { offset: 0x2EBA42, size: 0x8, addend: 0x0, symName: __ZN11spirv_cross10ObjectPoolINS_9SPIRBlockEED0Ev, symObjAddr: 0x73B0, symBinAddr: 0x611C0, symSize: 0x90 }
  - { offset: 0x2EBDCF, size: 0x8, addend: 0x0, symName: __ZN11spirv_cross10ObjectPoolINS_13SPIRExtensionEED1Ev, symObjAddr: 0x7580, symBinAddr: 0x61250, symSize: 0x90 }
  - { offset: 0x2EBFE1, size: 0x8, addend: 0x0, symName: __ZN11spirv_cross10ObjectPoolINS_13SPIRExtensionEED0Ev, symObjAddr: 0x7610, symBinAddr: 0x612E0, symSize: 0x90 }
  - { offset: 0x2EC36E, size: 0x8, addend: 0x0, symName: __ZN11spirv_cross10ObjectPoolINS_14SPIRExpressionEED1Ev, symObjAddr: 0x77E0, symBinAddr: 0x61370, symSize: 0x90 }
  - { offset: 0x2EC580, size: 0x8, addend: 0x0, symName: __ZN11spirv_cross10ObjectPoolINS_14SPIRExpressionEED0Ev, symObjAddr: 0x7870, symBinAddr: 0x61400, symSize: 0x90 }
  - { offset: 0x2EC90D, size: 0x8, addend: 0x0, symName: __ZN11spirv_cross10ObjectPoolINS_14SPIRConstantOpEED1Ev, symObjAddr: 0x7A40, symBinAddr: 0x61490, symSize: 0x90 }
  - { offset: 0x2ECB1F, size: 0x8, addend: 0x0, symName: __ZN11spirv_cross10ObjectPoolINS_14SPIRConstantOpEED0Ev, symObjAddr: 0x7AD0, symBinAddr: 0x61520, symSize: 0x90 }
  - { offset: 0x2ECEAC, size: 0x8, addend: 0x0, symName: __ZN11spirv_cross10ObjectPoolINS_24SPIRCombinedImageSamplerEED1Ev, symObjAddr: 0x7CA0, symBinAddr: 0x615B0, symSize: 0x90 }
  - { offset: 0x2ED0BE, size: 0x8, addend: 0x0, symName: __ZN11spirv_cross10ObjectPoolINS_24SPIRCombinedImageSamplerEED0Ev, symObjAddr: 0x7D30, symBinAddr: 0x61640, symSize: 0x90 }
  - { offset: 0x2ED44B, size: 0x8, addend: 0x0, symName: __ZN11spirv_cross10ObjectPoolINS_15SPIRAccessChainEED1Ev, symObjAddr: 0x7F00, symBinAddr: 0x616D0, symSize: 0x90 }
  - { offset: 0x2ED65D, size: 0x8, addend: 0x0, symName: __ZN11spirv_cross10ObjectPoolINS_15SPIRAccessChainEED0Ev, symObjAddr: 0x7F90, symBinAddr: 0x61760, symSize: 0x90 }
  - { offset: 0x2ED9EA, size: 0x8, addend: 0x0, symName: __ZN11spirv_cross10ObjectPoolINS_9SPIRUndefEED1Ev, symObjAddr: 0x8160, symBinAddr: 0x617F0, symSize: 0x90 }
  - { offset: 0x2EDBFC, size: 0x8, addend: 0x0, symName: __ZN11spirv_cross10ObjectPoolINS_9SPIRUndefEED0Ev, symObjAddr: 0x81F0, symBinAddr: 0x61880, symSize: 0x90 }
  - { offset: 0x2EDF89, size: 0x8, addend: 0x0, symName: __ZN11spirv_cross10ObjectPoolINS_10SPIRStringEED1Ev, symObjAddr: 0x83C0, symBinAddr: 0x61910, symSize: 0x90 }
  - { offset: 0x2EE19B, size: 0x8, addend: 0x0, symName: __ZN11spirv_cross10ObjectPoolINS_10SPIRStringEED0Ev, symObjAddr: 0x8450, symBinAddr: 0x619A0, symSize: 0x90 }
  - { offset: 0x2EE91A, size: 0x8, addend: 0x0, symName: __ZNSt3__112__hash_tableINS_17__hash_value_typeIN11spirv_cross7TypedIDILNS2_5TypesE0EEENS2_4MetaEEENS_22__unordered_map_hasherIS5_NS_4pairIKS5_S6_EENS_4hashIS5_EENS_8equal_toIS5_EELb1EEENS_21__unordered_map_equalIS5_SB_SF_SD_Lb1EEENS_9allocatorISB_EEE14__assign_multiINS_21__hash_const_iteratorIPNS_11__hash_nodeIS7_PvEEEEEEvT_ST_, symObjAddr: 0x8F74, symBinAddr: 0x61DFC, symSize: 0x124 }
  - { offset: 0x2EEA61, size: 0x8, addend: 0x0, symName: __ZN11spirv_cross4MetaaSERKS0_, symObjAddr: 0x91B0, symBinAddr: 0x62038, symSize: 0x148 }
  - { offset: 0x2EED10, size: 0x8, addend: 0x0, symName: __ZNSt3__112__hash_tableINS_17__hash_value_typeIN11spirv_cross7TypedIDILNS2_5TypesE0EEENS2_4MetaEEENS_22__unordered_map_hasherIS5_NS_4pairIKS5_S6_EENS_4hashIS5_EENS_8equal_toIS5_EELb1EEENS_21__unordered_map_equalIS5_SB_SF_SD_Lb1EEENS_9allocatorISB_EEE19__node_insert_multiEPNS_11__hash_nodeIS7_PvEE, symObjAddr: 0x9098, symBinAddr: 0x61F20, symSize: 0x118 }
  - { offset: 0x2EEF4E, size: 0x8, addend: 0x0, symName: __ZNSt3__112__hash_tableINS_17__hash_value_typeIN11spirv_cross7TypedIDILNS2_5TypesE0EEENS2_4MetaEEENS_22__unordered_map_hasherIS5_NS_4pairIKS5_S6_EENS_4hashIS5_EENS_8equal_toIS5_EELb1EEENS_21__unordered_map_equalIS5_SB_SF_SD_Lb1EEENS_9allocatorISB_EEE16__construct_nodeIJRKSB_EEENS_10unique_ptrINS_11__hash_nodeIS7_PvEENS_22__hash_node_destructorINSJ_ISS_EEEEEEDpOT_, symObjAddr: 0xA0F8, symBinAddr: 0x62860, symSize: 0xBC }
  - { offset: 0x2EF783, size: 0x8, addend: 0x0, symName: __ZN11spirv_cross11SmallVectorINS_4Meta10DecorationELm0EEaSERKS3_, symObjAddr: 0x92F8, symBinAddr: 0x62180, symSize: 0xB4 }
  - { offset: 0x2EF8A2, size: 0x8, addend: 0x0, symName: __ZNSt3__112__hash_tableINS_17__hash_value_typeIjjEENS_22__unordered_map_hasherIjNS_4pairIKjjEENS_4hashIjEENS_8equal_toIjEELb1EEENS_21__unordered_map_equalIjS6_SA_S8_Lb1EEENS_9allocatorIS6_EEE14__assign_multiINS_21__hash_const_iteratorIPNS_11__hash_nodeIS2_PvEEEEEEvT_SO_, symObjAddr: 0x9860, symBinAddr: 0x62414, symSize: 0x118 }
  - { offset: 0x2EFF04, size: 0x8, addend: 0x0, symName: __ZN11spirv_cross4Meta10DecorationC2ERKS1_, symObjAddr: 0x9604, symBinAddr: 0x62234, symSize: 0x1E0 }
  - { offset: 0x2F0C5B, size: 0x8, addend: 0x0, symName: __ZNSt3__112__hash_tableINS_17__hash_value_typeIjjEENS_22__unordered_map_hasherIjNS_4pairIKjjEENS_4hashIjEENS_8equal_toIjEELb1EEENS_21__unordered_map_equalIjS6_SA_S8_Lb1EEENS_9allocatorIS6_EEE27__node_insert_multi_prepareEmRS6_, symObjAddr: 0x9A90, symBinAddr: 0x6252C, symSize: 0x1E8 }
  - { offset: 0x2F0FE9, size: 0x8, addend: 0x0, symName: __ZNSt3__112__hash_tableINS_17__hash_value_typeIjjEENS_22__unordered_map_hasherIjNS_4pairIKjjEENS_4hashIjEENS_8equal_toIjEELb1EEENS_21__unordered_map_equalIjS6_SA_S8_Lb1EEENS_9allocatorIS6_EEE11__do_rehashILb0EEEvm, symObjAddr: 0x9C78, symBinAddr: 0x62714, symSize: 0x14C }
  - { offset: 0x2F1728, size: 0x8, addend: 0x0, symName: __ZNSt3__112__hash_tableINS_17__hash_value_typeIN11spirv_cross7TypedIDILNS2_5TypesE0EEENS2_4MetaEEENS_22__unordered_map_hasherIS5_NS_4pairIKS5_S6_EENS_4hashIS5_EENS_8equal_toIS5_EELb1EEENS_21__unordered_map_equalIS5_SB_SF_SD_Lb1EEENS_9allocatorISB_EEE16__construct_nodeIJRKSB_EEENS_10unique_ptrINS_11__hash_nodeIS7_PvEENS_22__hash_node_destructorINSJ_ISS_EEEEEEDpOT_, symObjAddr: 0xA0F8, symBinAddr: 0x62860, symSize: 0xBC }
  - { offset: 0x2F1A82, size: 0x8, addend: 0x0, symName: __ZNSt3__113unordered_mapIjjNS_4hashIjEENS_8equal_toIjEENS_9allocatorINS_4pairIKjjEEEEEC2ERKSA_, symObjAddr: 0xA1FC, symBinAddr: 0x6291C, symSize: 0x124 }
  - { offset: 0x2F2373, size: 0x8, addend: 0x0, symName: __ZNSt3__112__hash_tableINS_17__hash_value_typeIjjEENS_22__unordered_map_hasherIjNS_4pairIKjjEENS_4hashIjEENS_8equal_toIjEELb1EEENS_21__unordered_map_equalIjS6_SA_S8_Lb1EEENS_9allocatorIS6_EEE25__emplace_unique_key_argsIjJRKS6_EEENS4_INS_15__hash_iteratorIPNS_11__hash_nodeIS2_PvEEEEbEERKT_DpOT0_, symObjAddr: 0xA458, symBinAddr: 0x62A40, symSize: 0x2AC }
  - { offset: 0x2F2388, size: 0x8, addend: 0x0, symName: __ZNSt3__112__hash_tableINS_17__hash_value_typeIjjEENS_22__unordered_map_hasherIjNS_4pairIKjjEENS_4hashIjEENS_8equal_toIjEELb1EEENS_21__unordered_map_equalIjS6_SA_S8_Lb1EEENS_9allocatorIS6_EEE25__emplace_unique_key_argsIjJRKS6_EEENS4_INS_15__hash_iteratorIPNS_11__hash_nodeIS2_PvEEEEbEERKT_DpOT0_, symObjAddr: 0xA458, symBinAddr: 0x62A40, symSize: 0x2AC }
  - { offset: 0x2F3517, size: 0x8, addend: 0x0, symName: __ZNSt3__112__hash_tableINS_17__hash_value_typeIN11spirv_cross7TypedIDILNS2_5TypesE4EEENS2_14SPIREntryPointEEENS_22__unordered_map_hasherIS5_NS_4pairIKS5_S6_EENS_4hashIS5_EENS_8equal_toIS5_EELb1EEENS_21__unordered_map_equalIS5_SB_SF_SD_Lb1EEENS_9allocatorISB_EEE14__assign_multiINS_21__hash_const_iteratorIPNS_11__hash_nodeIS7_PvEEEEEEvT_ST_, symObjAddr: 0xAC70, symBinAddr: 0x62E0C, symSize: 0x158 }
  - { offset: 0x2F393F, size: 0x8, addend: 0x0, symName: __ZNSt3__112__hash_tableINS_17__hash_value_typeIN11spirv_cross7TypedIDILNS2_5TypesE4EEENS2_14SPIREntryPointEEENS_22__unordered_map_hasherIS5_NS_4pairIKS5_S6_EENS_4hashIS5_EENS_8equal_toIS5_EELb1EEENS_21__unordered_map_equalIS5_SB_SF_SD_Lb1EEENS_9allocatorISB_EEE14__assign_valueB9nqe210106IRKSB_S7_Li0EEEvRSB_OT_, symObjAddr: 0xADC8, symBinAddr: 0x62F64, symSize: 0x168 }
  - { offset: 0x2F4D7E, size: 0x8, addend: 0x0, symName: __ZNSt3__112__hash_tableINS_17__hash_value_typeIN11spirv_cross7TypedIDILNS2_5TypesE0EEEjEENS_22__unordered_map_hasherIS5_NS_4pairIKS5_jEENS_4hashIS5_EENS_8equal_toIS5_EELb1EEENS_21__unordered_map_equalIS5_SA_SE_SC_Lb1EEENS_9allocatorISA_EEE14__assign_multiINS_21__hash_const_iteratorIPNS_11__hash_nodeIS6_PvEEEEEEvT_SS_, symObjAddr: 0xBC84, symBinAddr: 0x631E4, symSize: 0x120 }
  - { offset: 0x2F84C5, size: 0x8, addend: 0x0, symName: __ZN11spirv_cross3CFGC2ERNS_8CompilerERKNS_12SPIRFunctionE, symObjAddr: 0x0, symBinAddr: 0x63304, symSize: 0x110 }
  - { offset: 0x2FD447, size: 0x8, addend: 0x0, symName: __ZNSt3__1L19piecewise_constructE, symObjAddr: 0x29F7, symBinAddr: 0x1E254A, symSize: 0x0 }
  - { offset: 0x31000A, size: 0x8, addend: 0x0, symName: __ZN11spirv_cross3CFGC2ERNS_8CompilerERKNS_12SPIRFunctionE, symObjAddr: 0x0, symBinAddr: 0x63304, symSize: 0x110 }
  - { offset: 0x31054F, size: 0x8, addend: 0x0, symName: __ZN11spirv_cross3CFG16post_order_visitEj, symObjAddr: 0x7B0, symBinAddr: 0x639B4, symSize: 0x4D0 }
  - { offset: 0x311148, size: 0x8, addend: 0x0, symName: __ZN11spirv_cross3CFG26build_immediate_dominatorsEv, symObjAddr: 0x188, symBinAddr: 0x6348C, symSize: 0x18C }
  - { offset: 0x311BF1, size: 0x8, addend: 0x0, symName: __ZN11spirv_cross3CFG28build_post_order_visit_orderEv, symObjAddr: 0x110, symBinAddr: 0x63414, symSize: 0x78 }
  - { offset: 0x3124E6, size: 0x8, addend: 0x0, symName: __ZNSt3__112__hash_tableINS_17__hash_value_typeIjN11spirv_cross11SmallVectorIjLm8EEEEENS_22__unordered_map_hasherIjNS_4pairIKjS4_EENS_4hashIjEENS_8equal_toIjEELb1EEENS_21__unordered_map_equalIjS9_SD_SB_Lb1EEENS_9allocatorIS9_EEE25__emplace_unique_key_argsIjJRKNS_21piecewise_construct_tENS_5tupleIJRS8_EEENSO_IJEEEEEENS7_INS_15__hash_iteratorIPNS_11__hash_nodeIS5_PvEEEEbEERKT_DpOT0_, symObjAddr: 0x1CD0, symBinAddr: 0x648B4, symSize: 0x2E0 }
  - { offset: 0x3130F2, size: 0x8, addend: 0x0, symName: __ZNK11spirv_cross3CFG21find_common_dominatorEjj, symObjAddr: 0x418, symBinAddr: 0x6361C, symSize: 0x238 }
  - { offset: 0x313BB8, size: 0x8, addend: 0x0, symName: __ZN11spirv_cross3CFGC1ERNS_8CompilerERKNS_12SPIRFunctionE, symObjAddr: 0x414, symBinAddr: 0x63618, symSize: 0x4 }
  - { offset: 0x313C02, size: 0x8, addend: 0x0, symName: __ZN11spirv_cross3CFGC1ERNS_8CompilerERKNS_12SPIRFunctionE, symObjAddr: 0x414, symBinAddr: 0x63618, symSize: 0x4 }
  - { offset: 0x313F2D, size: 0x8, addend: 0x0, symName: __ZNK11spirv_cross3CFG12is_back_edgeEj, symObjAddr: 0x650, symBinAddr: 0x63854, symSize: 0xB0 }
  - { offset: 0x313F65, size: 0x8, addend: 0x0, symName: __ZNK11spirv_cross3CFG12is_back_edgeEj, symObjAddr: 0x650, symBinAddr: 0x63854, symSize: 0xB0 }
  - { offset: 0x313F85, size: 0x8, addend: 0x0, symName: __ZNK11spirv_cross3CFG12is_back_edgeEj, symObjAddr: 0x650, symBinAddr: 0x63854, symSize: 0xB0 }
  - { offset: 0x313FB0, size: 0x8, addend: 0x0, symName: __ZNK11spirv_cross3CFG12is_back_edgeEj, symObjAddr: 0x650, symBinAddr: 0x63854, symSize: 0xB0 }
  - { offset: 0x313FD1, size: 0x8, addend: 0x0, symName: __ZNK11spirv_cross3CFG12is_back_edgeEj, symObjAddr: 0x650, symBinAddr: 0x63854, symSize: 0xB0 }
  - { offset: 0x314161, size: 0x8, addend: 0x0, symName: __ZNK11spirv_cross3CFG24has_visited_forward_edgeEj, symObjAddr: 0x700, symBinAddr: 0x63904, symSize: 0xB0 }
  - { offset: 0x314199, size: 0x8, addend: 0x0, symName: __ZNK11spirv_cross3CFG24has_visited_forward_edgeEj, symObjAddr: 0x700, symBinAddr: 0x63904, symSize: 0xB0 }
  - { offset: 0x3141B9, size: 0x8, addend: 0x0, symName: __ZNK11spirv_cross3CFG24has_visited_forward_edgeEj, symObjAddr: 0x700, symBinAddr: 0x63904, symSize: 0xB0 }
  - { offset: 0x3141E4, size: 0x8, addend: 0x0, symName: __ZNK11spirv_cross3CFG24has_visited_forward_edgeEj, symObjAddr: 0x700, symBinAddr: 0x63904, symSize: 0xB0 }
  - { offset: 0x314205, size: 0x8, addend: 0x0, symName: __ZNK11spirv_cross3CFG24has_visited_forward_edgeEj, symObjAddr: 0x700, symBinAddr: 0x63904, symSize: 0xB0 }
  - { offset: 0x3145FF, size: 0x8, addend: 0x0, symName: __ZNSt3__112__hash_tableINS_17__hash_value_typeIjN11spirv_cross3CFG10VisitOrderEEENS_22__unordered_map_hasherIjNS_4pairIKjS4_EENS_4hashIjEENS_8equal_toIjEELb1EEENS_21__unordered_map_equalIjS9_SD_SB_Lb1EEENS_9allocatorIS9_EEE25__emplace_unique_key_argsIjJRKNS_21piecewise_construct_tENS_5tupleIJRS8_EEENSO_IJEEEEEENS7_INS_15__hash_iteratorIPNS_11__hash_nodeIS5_PvEEEEbEERKT_DpOT0_, symObjAddr: 0x2400, symBinAddr: 0x64BFC, symSize: 0x2B4 }
  - { offset: 0x314DD5, size: 0x8, addend: 0x0, symName: __ZN11spirv_cross3CFG10add_branchEjj, symObjAddr: 0xC80, symBinAddr: 0x63E84, symSize: 0x130 }
  - { offset: 0x315425, size: 0x8, addend: 0x0, symName: __ZNK11spirv_cross3CFG19find_loop_dominatorEj, symObjAddr: 0xDB0, symBinAddr: 0x63FB4, symSize: 0x1B0 }
  - { offset: 0x315910, size: 0x8, addend: 0x0, symName: __ZNK11spirv_cross3CFG41node_terminates_control_flow_in_sub_graphENS_7TypedIDILNS_5TypesE6EEES3_, symObjAddr: 0xF60, symBinAddr: 0x64164, symSize: 0x318 }
  - { offset: 0x316186, size: 0x8, addend: 0x0, symName: __ZN11spirv_cross16DominatorBuilder9add_blockEj, symObjAddr: 0x1284, symBinAddr: 0x64488, symSize: 0xE8 }
  - { offset: 0x31640D, size: 0x8, addend: 0x0, symName: __ZN11spirv_cross16DominatorBuilderC1ERKNS_3CFGE, symObjAddr: 0x1278, symBinAddr: 0x6447C, symSize: 0xC }
  - { offset: 0x316439, size: 0x8, addend: 0x0, symName: __ZN11spirv_cross16DominatorBuilderC1ERKNS_3CFGE, symObjAddr: 0x1278, symBinAddr: 0x6447C, symSize: 0xC }
  - { offset: 0x316484, size: 0x8, addend: 0x0, symName: __ZN11spirv_cross16DominatorBuilderC2ERKNS_3CFGE, symObjAddr: 0x136C, symBinAddr: 0x64570, symSize: 0xC }
  - { offset: 0x31652F, size: 0x8, addend: 0x0, symName: __ZN11spirv_cross16DominatorBuilder29lift_continue_block_dominatorEv, symObjAddr: 0x1378, symBinAddr: 0x6457C, symSize: 0x338 }
  - { offset: 0x317631, size: 0x8, addend: 0x0, symName: __ZNSt3__112__hash_tableINS_17__hash_value_typeIjN11spirv_cross11SmallVectorIjLm8EEEEENS_22__unordered_map_hasherIjNS_4pairIKjS4_EENS_4hashIjEENS_8equal_toIjEELb1EEENS_21__unordered_map_equalIjS9_SD_SB_Lb1EEENS_9allocatorIS9_EEE25__emplace_unique_key_argsIjJRKNS_21piecewise_construct_tENS_5tupleIJRS8_EEENSO_IJEEEEEENS7_INS_15__hash_iteratorIPNS_11__hash_nodeIS5_PvEEEEbEERKT_DpOT0_, symObjAddr: 0x1CD0, symBinAddr: 0x648B4, symSize: 0x2E0 }
  - { offset: 0x317D3F, size: 0x8, addend: 0x0, symName: __ZNSt3__110unique_ptrINS_11__hash_nodeINS_17__hash_value_typeIjN11spirv_cross11SmallVectorIjLm8EEEEEPvEENS_22__hash_node_destructorINS_9allocatorIS8_EEEEED1B9nqe210106Ev, symObjAddr: 0x1FB0, symBinAddr: 0x64B94, symSize: 0x68 }
  - { offset: 0x3311C5, size: 0x8, addend: 0x0, symName: __ZN11spirv_cross4joinIJRA25_KcRjEEENSt3__112basic_stringIcNS5_11char_traitsIcEENS5_9allocatorIcEEEEDpOT_, symObjAddr: 0x196D4, symBinAddr: 0x7DE84, symSize: 0x148 }
  - { offset: 0x33149A, size: 0x8, addend: 0x0, symName: __ZN11spirv_cross4joinIJRA4_KcNSt3__112basic_stringIcNS4_11char_traitsIcEENS4_9allocatorIcEEEEEEESA_DpOT_, symObjAddr: 0x22470, symBinAddr: 0x86950, symSize: 0x174 }
  - { offset: 0x331897, size: 0x8, addend: 0x0, symName: __ZN11spirv_cross5mergeERKNS_11SmallVectorINSt3__112basic_stringIcNS1_11char_traitsIcEENS1_9allocatorIcEEEELm8EEEPKc, symObjAddr: 0xF0DC, symBinAddr: 0x73A84, symSize: 0x1CC }
  - { offset: 0x331D2D, size: 0x8, addend: 0x0, symName: __ZN11spirv_cross4joinIJRA2_KcRNS_7TypedIDILNS_5TypesE0EEERA12_S1_EEENSt3__112basic_stringIcNSA_11char_traitsIcEENSA_9allocatorIcEEEEDpOT_, symObjAddr: 0x6E170, symBinAddr: 0xD1E10, symSize: 0x170 }
  - { offset: 0x3320A0, size: 0x8, addend: 0x0, symName: __ZN11spirv_cross4joinIJRA12_KcEEENSt3__112basic_stringIcNS4_11char_traitsIcEENS4_9allocatorIcEEEEDpOT_, symObjAddr: 0x7D3D8, symBinAddr: 0xDC958, symSize: 0x150 }
  - { offset: 0x3323C5, size: 0x8, addend: 0x0, symName: __ZN11spirv_cross4joinIJRA78_KcEEENSt3__112basic_stringIcNS4_11char_traitsIcEENS4_9allocatorIcEEEEDpOT_, symObjAddr: 0x7D528, symBinAddr: 0xDCAA8, symSize: 0x150 }
  - { offset: 0x3326EA, size: 0x8, addend: 0x0, symName: __ZN11spirv_cross4joinIJRA40_KcEEENSt3__112basic_stringIcNS4_11char_traitsIcEENS4_9allocatorIcEEEEDpOT_, symObjAddr: 0x7D678, symBinAddr: 0xDCBF8, symSize: 0x150 }
  - { offset: 0x332A0F, size: 0x8, addend: 0x0, symName: __ZN11spirv_cross4joinIJRA26_KcEEENSt3__112basic_stringIcNS4_11char_traitsIcEENS4_9allocatorIcEEEEDpOT_, symObjAddr: 0x7D7C8, symBinAddr: 0xDCD48, symSize: 0x150 }
  - { offset: 0x332D34, size: 0x8, addend: 0x0, symName: __ZN11spirv_cross4joinIJRA38_KcEEENSt3__112basic_stringIcNS4_11char_traitsIcEENS4_9allocatorIcEEEEDpOT_, symObjAddr: 0x7D918, symBinAddr: 0xDCE98, symSize: 0x150 }
  - { offset: 0x333059, size: 0x8, addend: 0x0, symName: __ZN11spirv_cross4joinIJRA19_KcRKjEEENSt3__112basic_stringIcNS6_11char_traitsIcEENS6_9allocatorIcEEEEDpOT_, symObjAddr: 0x7CF4, symBinAddr: 0x6C720, symSize: 0x148 }
  - { offset: 0x33332E, size: 0x8, addend: 0x0, symName: __ZN11spirv_cross4joinIJRA16_KcRNSt3__112basic_stringIcNS4_11char_traitsIcEENS4_9allocatorIcEEEEEEESA_DpOT_, symObjAddr: 0x7E3C, symBinAddr: 0x6C868, symSize: 0x174 }
  - { offset: 0x33372B, size: 0x8, addend: 0x0, symName: __ZN11spirv_cross4joinIJRA16_KcjEEENSt3__112basic_stringIcNS4_11char_traitsIcEENS4_9allocatorIcEEEEDpOT_, symObjAddr: 0x7FB0, symBinAddr: 0x6C9DC, symSize: 0x148 }
  - { offset: 0x333A00, size: 0x8, addend: 0x0, symName: __ZN11spirv_cross4joinIJRA16_KcRjEEENSt3__112basic_stringIcNS5_11char_traitsIcEENS5_9allocatorIcEEEEDpOT_, symObjAddr: 0x80F8, symBinAddr: 0x6CB24, symSize: 0x148 }
  - { offset: 0x333CDA, size: 0x8, addend: 0x0, symName: __ZN11spirv_cross5inner11join_helperIRA19_KcJRKjEEEvRNS_12StringStreamILm4096ELm4096EEEOT_DpOT0_, symObjAddr: 0x7DA68, symBinAddr: 0xDCFE8, symSize: 0xA8 }
  - { offset: 0x3340D5, size: 0x8, addend: 0x0, symName: __ZN11spirv_cross5inner11join_helperIRA16_KcJjEEEvRNS_12StringStreamILm4096ELm4096EEEOT_DpOT0_, symObjAddr: 0x7DB10, symBinAddr: 0xDD090, symSize: 0xA8 }
  - { offset: 0x334460, size: 0x8, addend: 0x0, symName: __ZN11spirv_cross5inner11join_helperIRA16_KcJRjEEEvRNS_12StringStreamILm4096ELm4096EEEOT_DpOT0_, symObjAddr: 0x7DBB8, symBinAddr: 0xDD138, symSize: 0xA8 }
  - { offset: 0x3347EB, size: 0x8, addend: 0x0, symName: __ZN11spirv_cross5inner11join_helperIRA13_KcJRjEEEvRNS_12StringStreamILm4096ELm4096EEEOT_DpOT0_, symObjAddr: 0x81610, symBinAddr: 0xE0B90, symSize: 0xA8 }
  - { offset: 0x334B76, size: 0x8, addend: 0x0, symName: __ZN11spirv_cross5inner11join_helperIRA15_KcJRjEEEvRNS_12StringStreamILm4096ELm4096EEEOT_DpOT0_, symObjAddr: 0x816B8, symBinAddr: 0xE0C38, symSize: 0xA8 }
  - { offset: 0x334F01, size: 0x8, addend: 0x0, symName: __ZN11spirv_cross5inner11join_helperIRA12_KcJRjEEEvRNS_12StringStreamILm4096ELm4096EEEOT_DpOT0_, symObjAddr: 0x81760, symBinAddr: 0xE0CE0, symSize: 0xA8 }
  - { offset: 0x33528C, size: 0x8, addend: 0x0, symName: __ZN11spirv_cross5inner11join_helperIRA18_KcJRjEEEvRNS_12StringStreamILm4096ELm4096EEEOT_DpOT0_, symObjAddr: 0x81808, symBinAddr: 0xE0D88, symSize: 0xA8 }
  - { offset: 0x335617, size: 0x8, addend: 0x0, symName: __ZN11spirv_cross5inner11join_helperIRA10_KcJRjEEEvRNS_12StringStreamILm4096ELm4096EEEOT_DpOT0_, symObjAddr: 0x82CD8, symBinAddr: 0xE1D58, symSize: 0xA8 }
  - { offset: 0x3359A2, size: 0x8, addend: 0x0, symName: __ZN11spirv_cross5inner11join_helperIRA14_KcJRjEEEvRNS_12StringStreamILm4096ELm4096EEEOT_DpOT0_, symObjAddr: 0x82D80, symBinAddr: 0xE1E00, symSize: 0xA8 }
  - { offset: 0x335D2D, size: 0x8, addend: 0x0, symName: __ZN11spirv_cross5inner11join_helperIRA26_KcJjEEEvRNS_12StringStreamILm4096ELm4096EEEOT_DpOT0_, symObjAddr: 0x82E28, symBinAddr: 0xE1EA8, symSize: 0xA8 }
  - { offset: 0x3360B8, size: 0x8, addend: 0x0, symName: __ZN11spirv_cross5inner11join_helperIRA12_KcJjEEEvRNS_12StringStreamILm4096ELm4096EEEOT_DpOT0_, symObjAddr: 0x82ED0, symBinAddr: 0xE1F50, symSize: 0xA8 }
  - { offset: 0x336443, size: 0x8, addend: 0x0, symName: __ZN11spirv_cross5inner11join_helperIRA10_KcJjEEEvRNS_12StringStreamILm4096ELm4096EEEOT_DpOT0_, symObjAddr: 0x82F78, symBinAddr: 0xE1FF8, symSize: 0xA8 }
  - { offset: 0x3367CE, size: 0x8, addend: 0x0, symName: __ZN11spirv_cross5inner11join_helperIRA14_KcJjEEEvRNS_12StringStreamILm4096ELm4096EEEOT_DpOT0_, symObjAddr: 0x83020, symBinAddr: 0xE20A0, symSize: 0xA8 }
  - { offset: 0x336B59, size: 0x8, addend: 0x0, symName: __ZN11spirv_cross5inner11join_helperIRA13_KcJjEEEvRNS_12StringStreamILm4096ELm4096EEEOT_DpOT0_, symObjAddr: 0x830C8, symBinAddr: 0xE2148, symSize: 0xA8 }
  - { offset: 0x336EE4, size: 0x8, addend: 0x0, symName: __ZN11spirv_cross5inner11join_helperIRA9_KcJjEEEvRNS_12StringStreamILm4096ELm4096EEEOT_DpOT0_, symObjAddr: 0x83170, symBinAddr: 0xE21F0, symSize: 0xA8 }
  - { offset: 0x33726F, size: 0x8, addend: 0x0, symName: __ZN11spirv_cross5inner11join_helperIRA7_KcJjEEEvRNS_12StringStreamILm4096ELm4096EEEOT_DpOT0_, symObjAddr: 0x83218, symBinAddr: 0xE2298, symSize: 0xA8 }
  - { offset: 0x3375FA, size: 0x8, addend: 0x0, symName: __ZN11spirv_cross5inner11join_helperIRA11_KcJjEEEvRNS_12StringStreamILm4096ELm4096EEEOT_DpOT0_, symObjAddr: 0x832C0, symBinAddr: 0xE2340, symSize: 0xA8 }
  - { offset: 0x337BBB, size: 0x8, addend: 0x0, symName: __ZN11spirv_cross5inner11join_helperIRA26_KcJRjEEEvRNS_12StringStreamILm4096ELm4096EEEOT_DpOT0_, symObjAddr: 0x83564, symBinAddr: 0xE23E8, symSize: 0xA8 }
  - { offset: 0x337FA9, size: 0x8, addend: 0x0, symName: __ZN11spirv_cross5inner11join_helperIRNS_7TypedIDILNS_5TypesE0EEEJRA2_KcRKS4_EEEvRNS_12StringStreamILm4096ELm4096EEEOT_DpOT0_, symObjAddr: 0x84214, symBinAddr: 0xE3098, symSize: 0xA0 }
  - { offset: 0x338380, size: 0x8, addend: 0x0, symName: __ZN11spirv_cross5inner11join_helperIRA25_KcJRjEEEvRNS_12StringStreamILm4096ELm4096EEEOT_DpOT0_, symObjAddr: 0x8570C, symBinAddr: 0xE4320, symSize: 0xA8 }
  - { offset: 0x33875E, size: 0x8, addend: 0x0, symName: __ZN11spirv_cross5inner11join_helperIRjJRA2_KcEEEvRNS_12StringStreamILm4096ELm4096EEEOT_DpOT0_, symObjAddr: 0x865B0, symBinAddr: 0xE5070, symSize: 0xA4 }
  - { offset: 0x338C75, size: 0x8, addend: 0x0, symName: __ZN11spirv_cross5inner11join_helperIRjJRA16_KcS2_EEEvRNS_12StringStreamILm4096ELm4096EEEOT_DpOT0_, symObjAddr: 0x86D00, symBinAddr: 0xE53D8, symSize: 0xA0 }
  - { offset: 0x339199, size: 0x8, addend: 0x0, symName: __ZN11spirv_cross5inner11join_helperIRKNS_7TypedIDILNS_5TypesE0EEEJRA2_KcRjRA6_S7_EEEvRNS_12StringStreamILm4096ELm4096EEEOT_DpOT0_, symObjAddr: 0x88908, symBinAddr: 0xE6F58, symSize: 0xC4 }
  - { offset: 0x3395F7, size: 0x8, addend: 0x0, symName: __ZN11spirv_cross5inner11join_helperIRKNS_7TypedIDILNS_5TypesE0EEEJRA6_KcEEEvRNS_12StringStreamILm4096ELm4096EEEOT_DpOT0_, symObjAddr: 0x8ACFC, symBinAddr: 0xE8628, symSize: 0xA4 }
  - { offset: 0x33A111, size: 0x8, addend: 0x0, symName: __ZN11spirv_cross5inner11join_helperIRA4_KcJRA2_S2_NSt3__112basic_stringIcNS7_11char_traitsIcEENS7_9allocatorIcEEEES4_SD_S6_EEEvRNS_12StringStreamILm4096ELm4096EEEOT_DpOT0_, symObjAddr: 0x92E14, symBinAddr: 0xEE2F8, symSize: 0xE8 }
  - { offset: 0x33AE46, size: 0x8, addend: 0x0, symName: __ZN11spirv_cross5inner11join_helperIRA2_KcJRA32_cRA5_S2_RPS2_S8_EEEvRNS_12StringStreamILm4096ELm4096EEEOT_DpOT0_, symObjAddr: 0x92FDC, symBinAddr: 0xEE3E0, symSize: 0xB8 }
  - { offset: 0x33BA87, size: 0x8, addend: 0x0, symName: __ZN11spirv_cross5inner11join_helperIRPKcJRA2_S2_NSt3__112basic_stringIcNS7_11char_traitsIcEENS7_9allocatorIcEEEERA3_S2_SD_S6_EEEvRNS_12StringStreamILm4096ELm4096EEEOT_DpOT0_, symObjAddr: 0x93BAC, symBinAddr: 0xEEB14, symSize: 0xE8 }
  - { offset: 0x33EE7F, size: 0x8, addend: 0x0, symName: __ZN11spirv_cross5inner11join_helperIRA4_KcJNSt3__112basic_stringIcNS5_11char_traitsIcEENS5_9allocatorIcEEEES4_RPS2_RA3_S2_EEEvRNS_12StringStreamILm4096ELm4096EEEOT_DpOT0_, symObjAddr: 0x955B8, symBinAddr: 0xEF7BC, symSize: 0xC0 }
  - { offset: 0x33F1F4, size: 0x8, addend: 0x0, symName: __ZN11spirv_cross5inner11join_helperIRA6_KcJRPS2_RA4_S2_NSt3__112basic_stringIcNS9_11char_traitsIcEENS9_9allocatorIcEEEES4_S6_S8_SF_RA9_S2_S5_EEEvRNS_12StringStreamILm4096ELm4096EEEOT_DpOT0_, symObjAddr: 0x95678, symBinAddr: 0xEF87C, symSize: 0x104 }
  - { offset: 0x33F968, size: 0x8, addend: 0x0, symName: __ZN11spirv_cross5inner11join_helperIjJRA2_KcEEEvRNS_12StringStreamILm4096ELm4096EEEOT_DpOT0_, symObjAddr: 0x95FFC, symBinAddr: 0xF0200, symSize: 0xA4 }
  - { offset: 0x3423DE, size: 0x8, addend: 0x0, symName: __ZN11spirv_cross5inner11join_helperIRA32_KcJNSt3__112basic_stringIcNS5_11char_traitsIcEENS5_9allocatorIcEEEERA3_S2_RA6_S2_SB_SD_EEEvRNS_12StringStreamILm4096ELm4096EEEOT_DpOT0_, symObjAddr: 0x9C2FC, symBinAddr: 0xF4E10, symSize: 0xE8 }
  - { offset: 0x3445B6, size: 0x8, addend: 0x0, symName: __ZN11spirv_cross5inner11join_helperIRA3_KcJRjEEEvRNS_12StringStreamILm4096ELm4096EEEOT_DpOT0_, symObjAddr: 0x9CEE4, symBinAddr: 0xF50E8, symSize: 0xA8 }
  - { offset: 0x344A17, size: 0x8, addend: 0x0, symName: __ZN11spirv_cross5inner11join_helperIRjJcRNSt3__112basic_stringIcNS3_11char_traitsIcEENS3_9allocatorIcEEEEEEEvRNS_12StringStreamILm4096ELm4096EEEOT_DpOT0_, symObjAddr: 0x9CF8C, symBinAddr: 0xF5190, symSize: 0xC8 }
  - { offset: 0x344E72, size: 0x8, addend: 0x0, symName: __ZN11spirv_cross5inner11join_helperIRA13_KcJPS2_RA2_S2_RNSt3__112basic_stringIcNS8_11char_traitsIcEENS8_9allocatorIcEEEES7_EEEvRNS_12StringStreamILm4096ELm4096EEEOT_DpOT0_, symObjAddr: 0x9D054, symBinAddr: 0xF5258, symSize: 0xC0 }
  - { offset: 0x3454AF, size: 0x8, addend: 0x0, symName: __ZN11spirv_cross5inner11join_helperIRKjJRA2_KcEEEvRNS_12StringStreamILm4096ELm4096EEEOT_DpOT0_, symObjAddr: 0x9DC94, symBinAddr: 0xF5E10, symSize: 0xA4 }
  - { offset: 0x3458D3, size: 0x8, addend: 0x0, symName: __ZN11spirv_cross5inner11join_helperIRA5_KcJRKjEEEvRNS_12StringStreamILm4096ELm4096EEEOT_DpOT0_, symObjAddr: 0x9DD38, symBinAddr: 0xF5EB4, symSize: 0xA8 }
  - { offset: 0x345C5E, size: 0x8, addend: 0x0, symName: __ZN11spirv_cross5inner11join_helperIRA6_KcJRKjEEEvRNS_12StringStreamILm4096ELm4096EEEOT_DpOT0_, symObjAddr: 0x9DDE0, symBinAddr: 0xF5F5C, symSize: 0xA8 }
  - { offset: 0x345FE9, size: 0x8, addend: 0x0, symName: __ZN11spirv_cross5inner11join_helperIRA7_KcJRKjEEEvRNS_12StringStreamILm4096ELm4096EEEOT_DpOT0_, symObjAddr: 0x9DE88, symBinAddr: 0xF6004, symSize: 0xA8 }
  - { offset: 0x346374, size: 0x8, addend: 0x0, symName: __ZN11spirv_cross5inner11join_helperIRA4_KcJRKjEEEvRNS_12StringStreamILm4096ELm4096EEEOT_DpOT0_, symObjAddr: 0x9DF30, symBinAddr: 0xF60AC, symSize: 0xA8 }
  - { offset: 0x346762, size: 0x8, addend: 0x0, symName: __ZN11spirv_cross5inner11join_helperIRKjJRA2_KcS3_EEEvRNS_12StringStreamILm4096ELm4096EEEOT_DpOT0_, symObjAddr: 0x9DFD8, symBinAddr: 0xF6154, symSize: 0xA0 }
  - { offset: 0x346BC3, size: 0x8, addend: 0x0, symName: __ZN11spirv_cross5inner11join_helperIRNS_7TypedIDILNS_5TypesE0EEEJRA12_KcEEEvRNS_12StringStreamILm4096ELm4096EEEOT_DpOT0_, symObjAddr: 0x9F8F0, symBinAddr: 0xF6A70, symSize: 0xA4 }
  - { offset: 0x346FC3, size: 0x8, addend: 0x0, symName: __ZN11spirv_cross5inner11join_helperIRNS_7TypedIDILNS_5TypesE0EEEJRA6_KcEEEvRNS_12StringStreamILm4096ELm4096EEEOT_DpOT0_, symObjAddr: 0xA10E8, symBinAddr: 0xF7390, symSize: 0xA4 }
  - { offset: 0x3474FF, size: 0x8, addend: 0x0, symName: __ZN11spirv_cross5inner11join_helperIRjJRA10_KcEEEvRNS_12StringStreamILm4096ELm4096EEEOT_DpOT0_, symObjAddr: 0xA5AE4, symBinAddr: 0xFADA8, symSize: 0xA4 }
  - { offset: 0x3478D0, size: 0x8, addend: 0x0, symName: __ZN11spirv_cross5inner11join_helperINSt3__112basic_stringIcNS2_11char_traitsIcEENS2_9allocatorIcEEEEJRPKcRA2_S9_S8_SD_S8_EEEvRNS_12StringStreamILm4096ELm4096EEEOT_DpOT0_, symObjAddr: 0xA60BC, symBinAddr: 0xFB380, symSize: 0xE4 }
  - { offset: 0x348274, size: 0x8, addend: 0x0, symName: __ZN11spirv_cross5inner11join_helperIRKyJRPKcS5_EEEvRNS_12StringStreamILm4096ELm4096EEEOT_DpOT0_, symObjAddr: 0x7B610, symBinAddr: 0xDC17C, symSize: 0xC8 }
  - { offset: 0x348805, size: 0x8, addend: 0x0, symName: __ZN11spirv_cross5inner11join_helperIRjJPKcEEEvRNS_12StringStreamILm4096ELm4096EEEOT_DpOT0_, symObjAddr: 0x7DEBC, symBinAddr: 0xDD43C, symSize: 0xA8 }
  - { offset: 0x349230, size: 0x8, addend: 0x0, symName: __ZN11spirv_cross5inner11join_helperIRA10_KcJRPS2_RA2_S2_S5_S6_EEEvRNS_12StringStreamILm4096ELm4096EEEOT_DpOT0_, symObjAddr: 0x80F7C, symBinAddr: 0xE04FC, symSize: 0xC0 }
  - { offset: 0x349A35, size: 0x8, addend: 0x0, symName: __ZN11spirv_cross5inner11join_helperIRA8_KcJNSt3__112basic_stringIcNS5_11char_traitsIcEENS5_9allocatorIcEEEERA2_S2_RSB_RA9_S2_SE_EEEvRNS_12StringStreamILm4096ELm4096EEEOT_DpOT0_, symObjAddr: 0x838A0, symBinAddr: 0xE2724, symSize: 0xF0 }
  - { offset: 0x34A1B6, size: 0x8, addend: 0x0, symName: __ZN11spirv_cross5inner11join_helperIRjJRA10_KcRNSt3__112basic_stringIcNS6_11char_traitsIcEENS6_9allocatorIcEEEEEEEvRNS_12StringStreamILm4096ELm4096EEEOT_DpOT0_, symObjAddr: 0x83B50, symBinAddr: 0xE29D4, symSize: 0xC8 }
  - { offset: 0x34A865, size: 0x8, addend: 0x0, symName: __ZN11spirv_cross5inner11join_helperIRA2_KcJRKNS_7TypedIDILNS_5TypesE0EEEEEEvRNS_12StringStreamILm4096ELm4096EEEOT_DpOT0_, symObjAddr: 0x842B4, symBinAddr: 0xE3138, symSize: 0xA8 }
  - { offset: 0x34AD52, size: 0x8, addend: 0x0, symName: __ZN11spirv_cross5inner11join_helperIPKcJS3_S3_S3_RNSt3__112basic_stringIcNS4_11char_traitsIcEENS4_9allocatorIcEEEEEEEvRNS_12StringStreamILm4096ELm4096EEEOT_DpOT0_, symObjAddr: 0x84980, symBinAddr: 0xE36CC, symSize: 0xC8 }
  - { offset: 0x34B226, size: 0x8, addend: 0x0, symName: __ZN11spirv_cross5inner11join_helperINSt3__112basic_stringIcNS2_11char_traitsIcEENS2_9allocatorIcEEEEJS8_RA2_KcRS8_SB_RmRA3_S9_EEEvRNS_12StringStreamILm4096ELm4096EEEOT_DpOT0_, symObjAddr: 0x84D28, symBinAddr: 0xE3A74, symSize: 0xE4 }
  - { offset: 0x34B860, size: 0x8, addend: 0x0, symName: __ZN11spirv_cross5inner11join_helperIRmJRA3_KcEEEvRNS_12StringStreamILm4096ELm4096EEEOT_DpOT0_, symObjAddr: 0x84E0C, symBinAddr: 0xE3B58, symSize: 0xA4 }
  - { offset: 0x34BF06, size: 0x8, addend: 0x0, symName: __ZN11spirv_cross5inner11join_helperIjJRA9_KcNSt3__112basic_stringIcNS5_11char_traitsIcEENS5_9allocatorIcEEEERA4_S2_SB_RA2_S2_EEEvRNS_12StringStreamILm4096ELm4096EEEOT_DpOT0_, symObjAddr: 0x85B28, symBinAddr: 0xE473C, symSize: 0x134 }
  - { offset: 0x34C993, size: 0x8, addend: 0x0, symName: __ZN11spirv_cross5inner11join_helperIRjJRA20_KcEEEvRNS_12StringStreamILm4096ELm4096EEEOT_DpOT0_, symObjAddr: 0x87580, symBinAddr: 0xE5C58, symSize: 0xA4 }
  - { offset: 0x34CDA1, size: 0x8, addend: 0x0, symName: __ZN11spirv_cross5inner11join_helperIRjJRA22_KcEEEvRNS_12StringStreamILm4096ELm4096EEEOT_DpOT0_, symObjAddr: 0x879CC, symBinAddr: 0xE60A4, symSize: 0xA4 }
  - { offset: 0x34D1A2, size: 0x8, addend: 0x0, symName: __ZN11spirv_cross5inner11join_helperIRjJRA25_KcS2_RA3_S3_EEEvRNS_12StringStreamILm4096ELm4096EEEOT_DpOT0_, symObjAddr: 0x87CE0, symBinAddr: 0xE63B8, symSize: 0xC4 }
  - { offset: 0x34D5E1, size: 0x8, addend: 0x0, symName: __ZN11spirv_cross5inner11join_helperIRjJRA3_KcEEEvRNS_12StringStreamILm4096ELm4096EEEOT_DpOT0_, symObjAddr: 0x87DA4, symBinAddr: 0xE647C, symSize: 0xA4 }
  - { offset: 0x34DB9E, size: 0x8, addend: 0x0, symName: __ZN11spirv_cross5inner11join_helperIRjJRA6_KcEEEvRNS_12StringStreamILm4096ELm4096EEEOT_DpOT0_, symObjAddr: 0x889CC, symBinAddr: 0xE701C, symSize: 0xA4 }
  - { offset: 0x34E1D8, size: 0x8, addend: 0x0, symName: __ZN11spirv_cross5inner11join_helperINSt3__112basic_stringIcNS2_11char_traitsIcEENS2_9allocatorIcEEEEJRA4_KcS8_RA2_S9_S8_RA3_S9_EEEvRNS_12StringStreamILm4096ELm4096EEEOT_DpOT0_, symObjAddr: 0x88C5C, symBinAddr: 0xE72AC, symSize: 0xE0 }
  - { offset: 0x34E9CB, size: 0x8, addend: 0x0, symName: __ZN11spirv_cross5inner11join_helperIRKjJRA3_KcEEEvRNS_12StringStreamILm4096ELm4096EEEOT_DpOT0_, symObjAddr: 0x8A808, symBinAddr: 0xE8344, symSize: 0xA4 }
  - { offset: 0x34F267, size: 0x8, addend: 0x0, symName: __ZN11spirv_cross5inner11join_helperIRA2_KcJRNSt3__112basic_stringIcNS5_11char_traitsIcEENS5_9allocatorIcEEEESB_RA4_S2_SB_S4_EEEvRNS_12StringStreamILm4096ELm4096EEEOT_DpOT0_, symObjAddr: 0x8AF60, symBinAddr: 0xE888C, symSize: 0xF0 }
  - { offset: 0x34F97E, size: 0x8, addend: 0x0, symName: __ZN11spirv_cross5inner11join_helperIRjJRA5_KcNSt3__112basic_stringIcNS6_11char_traitsIcEENS6_9allocatorIcEEEERA2_S3_EEEvRNS_12StringStreamILm4096ELm4096EEEOT_DpOT0_, symObjAddr: 0x8BD24, symBinAddr: 0xE9650, symSize: 0xEC }
  - { offset: 0x35199F, size: 0x8, addend: 0x0, symName: __ZN11spirv_cross5inner11join_helperIRA18_KcJRPS2_RA2_S2_S6_RA8_S2_EEEvRNS_12StringStreamILm4096ELm4096EEEOT_DpOT0_, symObjAddr: 0x8FD3C, symBinAddr: 0xED024, symSize: 0xBC }
  - { offset: 0x35374F, size: 0x8, addend: 0x0, symName: __ZN11spirv_cross5inner11join_helperINSt3__112basic_stringIcNS2_11char_traitsIcEENS2_9allocatorIcEEEEJRA2_KcS8_RA4_S9_RA6_S9_S8_RA3_S9_S8_SB_S8_SH_EEEvRNS_12StringStreamILm4096ELm4096EEEOT_DpOT0_, symObjAddr: 0x94964, symBinAddr: 0xEF16C, symSize: 0x104 }
  - { offset: 0x3553F6, size: 0x8, addend: 0x0, symName: __ZN11spirv_cross5inner11join_helperIRPKcJRA4_S2_NSt3__112basic_stringIcNS7_11char_traitsIcEENS7_9allocatorIcEEEERA9_S2_S3_EEEvRNS_12StringStreamILm4096ELm4096EEEOT_DpOT0_, symObjAddr: 0x9577C, symBinAddr: 0xEF980, symSize: 0xC0 }
  - { offset: 0x355863, size: 0x8, addend: 0x0, symName: __ZN11spirv_cross5inner11join_helperIRA43_KcJRjEEEvRNS_12StringStreamILm4096ELm4096EEEOT_DpOT0_, symObjAddr: 0x95984, symBinAddr: 0xEFB88, symSize: 0xA8 }
  - { offset: 0x355BEE, size: 0x8, addend: 0x0, symName: __ZN11spirv_cross5inner11join_helperIRA62_KcJRjEEEvRNS_12StringStreamILm4096ELm4096EEEOT_DpOT0_, symObjAddr: 0x95B74, symBinAddr: 0xEFD78, symSize: 0xA8 }
  - { offset: 0x355F79, size: 0x8, addend: 0x0, symName: __ZN11spirv_cross5inner11join_helperIRA51_KcJRjEEEvRNS_12StringStreamILm4096ELm4096EEEOT_DpOT0_, symObjAddr: 0x95D64, symBinAddr: 0xEFF68, symSize: 0xA8 }
  - { offset: 0x356304, size: 0x8, addend: 0x0, symName: __ZN11spirv_cross5inner11join_helperIRA40_KcJRjEEEvRNS_12StringStreamILm4096ELm4096EEEOT_DpOT0_, symObjAddr: 0x95F54, symBinAddr: 0xF0158, symSize: 0xA8 }
  - { offset: 0x3567EB, size: 0x8, addend: 0x0, symName: __ZN11spirv_cross5inner11join_helperIRKNSt3__112basic_stringIcNS2_11char_traitsIcEENS2_9allocatorIcEEEEJRA2_KcRcRA3_SB_RS8_SD_EEEvRNS_12StringStreamILm4096ELm4096EEEOT_DpOT0_, symObjAddr: 0x968A0, symBinAddr: 0xF0A1C, symSize: 0xE4 }
  - { offset: 0x3570BF, size: 0x8, addend: 0x0, symName: __ZN11spirv_cross5inner11join_helperIRA4_KcJRPS2_RA2_S2_NSt3__112basic_stringIcNS9_11char_traitsIcEENS9_9allocatorIcEEEERA3_S2_SF_SH_SF_S8_SF_SH_EEEvRNS_12StringStreamILm4096ELm4096EEEOT_DpOT0_, symObjAddr: 0x97AA0, symBinAddr: 0xF14F4, symSize: 0x100 }
  - { offset: 0x357B3C, size: 0x8, addend: 0x0, symName: __ZN11spirv_cross5inner11join_helperIRA3_KcJNSt3__112basic_stringIcNS5_11char_traitsIcEENS5_9allocatorIcEEEES4_SB_RA2_S2_SB_S4_SB_SD_SB_S4_EEEvRNS_12StringStreamILm4096ELm4096EEEOT_DpOT0_, symObjAddr: 0x97EF4, symBinAddr: 0xF1948, symSize: 0x104 }
  - { offset: 0x359868, size: 0x8, addend: 0x0, symName: __ZN11spirv_cross5inner11join_helperIRA25_KcJRKtEEEvRNS_12StringStreamILm4096ELm4096EEEOT_DpOT0_, symObjAddr: 0x9A208, symBinAddr: 0xF2F94, symSize: 0xA8 }
  - { offset: 0x359F36, size: 0x8, addend: 0x0, symName: __ZN11spirv_cross5inner11join_helperIRA3_KcJNSt3__112basic_stringIcNS5_11char_traitsIcEENS5_9allocatorIcEEEES4_SB_S4_SB_S4_SB_S4_SB_S4_SB_S4_SB_S4_SB_S4_SB_S4_SB_S4_EEEvRNS_12StringStreamILm4096ELm4096EEEOT_DpOT0_, symObjAddr: 0x9A4A4, symBinAddr: 0xF3230, symSize: 0x180 }
  - { offset: 0x35ABFA, size: 0x8, addend: 0x0, symName: __ZN11spirv_cross5inner11join_helperINSt3__112basic_stringIcNS2_11char_traitsIcEENS2_9allocatorIcEEEEJRA3_KcS8_SB_S8_SB_S8_SB_S8_SB_S8_SB_S8_SB_S8_SB_EEEvRNS_12StringStreamILm4096ELm4096EEEOT_DpOT0_, symObjAddr: 0x9A624, symBinAddr: 0xF33B0, symSize: 0x130 }
  - { offset: 0x35BE42, size: 0x8, addend: 0x0, symName: __ZN11spirv_cross5inner11join_helperINSt3__112basic_stringIcNS2_11char_traitsIcEENS2_9allocatorIcEEEEJRA3_KcS8_SB_S8_SB_S8_SB_S8_SB_S8_SB_S8_SB_S8_SB_S8_SB_S8_SB_jSB_EEEvRNS_12StringStreamILm4096ELm4096EEEOT_DpOT0_, symObjAddr: 0x9AD5C, symBinAddr: 0xF3870, symSize: 0x188 }
  - { offset: 0x35CBC9, size: 0x8, addend: 0x0, symName: __ZN11spirv_cross5inner11join_helperIRA3_KcJNSt3__112basic_stringIcNS5_11char_traitsIcEENS5_9allocatorIcEEEES4_SB_S4_SB_S4_SB_S4_SB_S4_SB_S4_SB_S4_jS4_EEEvRNS_12StringStreamILm4096ELm4096EEEOT_DpOT0_, symObjAddr: 0x9AEE4, symBinAddr: 0xF39F8, symSize: 0x140 }
  - { offset: 0x35D699, size: 0x8, addend: 0x0, symName: __ZN11spirv_cross5inner11join_helperINSt3__112basic_stringIcNS2_11char_traitsIcEENS2_9allocatorIcEEEEJRA3_KcS8_SB_S8_SB_S8_SB_S8_SB_jSB_EEEvRNS_12StringStreamILm4096ELm4096EEEOT_DpOT0_, symObjAddr: 0x9B024, symBinAddr: 0xF3B38, symSize: 0x10C }
  - { offset: 0x35DF3F, size: 0x8, addend: 0x0, symName: __ZN11spirv_cross5inner11join_helperIRA3_KcJNSt3__112basic_stringIcNS5_11char_traitsIcEENS5_9allocatorIcEEEES4_SB_S4_jS4_EEEvRNS_12StringStreamILm4096ELm4096EEEOT_DpOT0_, symObjAddr: 0x9B130, symBinAddr: 0xF3C44, symSize: 0xE4 }
  - { offset: 0x35E533, size: 0x8, addend: 0x0, symName: __ZN11spirv_cross5inner11join_helperIjJRA3_KcEEEvRNS_12StringStreamILm4096ELm4096EEEOT_DpOT0_, symObjAddr: 0x9B214, symBinAddr: 0xF3D28, symSize: 0xA4 }
  - { offset: 0x35ED1C, size: 0x8, addend: 0x0, symName: __ZN11spirv_cross5inner11join_helperIRA21_KcJRKtEEEvRNS_12StringStreamILm4096ELm4096EEEOT_DpOT0_, symObjAddr: 0x9CE3C, symBinAddr: 0xF5040, symSize: 0xA8 }
  - { offset: 0x35F2D6, size: 0x8, addend: 0x0, symName: __ZN11spirv_cross5inner11join_helperIRjJRA2_KcS2_RA3_S3_EEEvRNS_12StringStreamILm4096ELm4096EEEOT_DpOT0_, symObjAddr: 0x9D2D8, symBinAddr: 0xF54DC, symSize: 0xC4 }
  - { offset: 0x35F89E, size: 0x8, addend: 0x0, symName: __ZN11spirv_cross5inner11join_helperIRjJRA2_KcS2_RA6_S3_EEEvRNS_12StringStreamILm4096ELm4096EEEOT_DpOT0_, symObjAddr: 0x9D730, symBinAddr: 0xF5934, symSize: 0xC4 }
  - { offset: 0x35FC8A, size: 0x8, addend: 0x0, symName: __ZN11spirv_cross5inner11join_helperINSt3__112basic_stringIcNS2_11char_traitsIcEENS2_9allocatorIcEEEEJRS8_RKS8_S8_S8_RA2_KcEEEvRNS_12StringStreamILm4096ELm4096EEEOT_DpOT0_, symObjAddr: 0x9DB1C, symBinAddr: 0xF5D20, symSize: 0xF0 }
  - { offset: 0x36029B, size: 0x8, addend: 0x0, symName: __ZN11spirv_cross5inner11join_helperIRA2_KcJRKjEEEvRNS_12StringStreamILm4096ELm4096EEEOT_DpOT0_, symObjAddr: 0x9E078, symBinAddr: 0xF61F4, symSize: 0xA8 }
  - { offset: 0x36076C, size: 0x8, addend: 0x0, symName: __ZN11spirv_cross5inner11join_helperIRNS_7TypedIDILNS_5TypesE2EEEJRA6_KcRA4_S6_NSt3__112basic_stringIcNSB_11char_traitsIcEENSB_9allocatorIcEEEERA2_S6_EEEvRNS_12StringStreamILm4096ELm4096EEEOT_DpOT0_, symObjAddr: 0xA0E9C, symBinAddr: 0xF7144, symSize: 0x108 }
  - { offset: 0x360DFB, size: 0x8, addend: 0x0, symName: __ZN11spirv_cross5inner11join_helperIRNS_7TypedIDILNS_5TypesE0EEEJRA22_KcEEEvRNS_12StringStreamILm4096ELm4096EEEOT_DpOT0_, symObjAddr: 0xA1904, symBinAddr: 0xF77DC, symSize: 0xA4 }
  - { offset: 0x3613B7, size: 0x8, addend: 0x0, symName: __ZN11spirv_cross5inner11join_helperIRNS_7TypedIDILNS_5TypesE0EEEJRA23_KcEEEvRNS_12StringStreamILm4096ELm4096EEEOT_DpOT0_, symObjAddr: 0xA3558, symBinAddr: 0xF9154, symSize: 0xA4 }
  - { offset: 0x3617F7, size: 0x8, addend: 0x0, symName: __ZN11spirv_cross5inner11join_helperIRjJRA15_KcS2_S5_S2_RA4_S3_EEEvRNS_12StringStreamILm4096ELm4096EEEOT_DpOT0_, symObjAddr: 0xA4788, symBinAddr: 0xF9A4C, symSize: 0xDC }
  - { offset: 0x361C9E, size: 0x8, addend: 0x0, symName: __ZN11spirv_cross5inner11join_helperIRjJRA15_KcS2_RA4_S3_EEEvRNS_12StringStreamILm4096ELm4096EEEOT_DpOT0_, symObjAddr: 0xA4864, symBinAddr: 0xF9B28, symSize: 0xC4 }
  - { offset: 0x3620DD, size: 0x8, addend: 0x0, symName: __ZN11spirv_cross5inner11join_helperIRjJRA4_KcEEEvRNS_12StringStreamILm4096ELm4096EEEOT_DpOT0_, symObjAddr: 0xA4928, symBinAddr: 0xF9BEC, symSize: 0xA4 }
  - { offset: 0x3625D7, size: 0x8, addend: 0x0, symName: __ZN11spirv_cross5inner11join_helperIRNS_7TypedIDILNS_5TypesE0EEEJRA15_KcEEEvRNS_12StringStreamILm4096ELm4096EEEOT_DpOT0_, symObjAddr: 0xA5164, symBinAddr: 0xFA428, symSize: 0xA4 }
  - { offset: 0x362E48, size: 0x8, addend: 0x0, symName: __ZN11spirv_cross5inner11join_helperIRjJRA3_KcRNSt3__112basic_stringIcNS6_11char_traitsIcEENS6_9allocatorIcEEEERA2_S3_EEEvRNS_12StringStreamILm4096ELm4096EEEOT_DpOT0_, symObjAddr: 0xA67E8, symBinAddr: 0xFBAAC, symSize: 0xEC }
  - { offset: 0x363556, size: 0x8, addend: 0x0, symName: __ZN11spirv_cross4joinIJRA12_KcRjEEENSt3__112basic_stringIcNS5_11char_traitsIcEENS5_9allocatorIcEEEEDpOT_, symObjAddr: 0xE4C0, symBinAddr: 0x72E68, symSize: 0x148 }
  - { offset: 0x36382B, size: 0x8, addend: 0x0, symName: __ZN11spirv_cross4joinIJRA18_KcRjEEENSt3__112basic_stringIcNS5_11char_traitsIcEENS5_9allocatorIcEEEEDpOT_, symObjAddr: 0xE608, symBinAddr: 0x72FB0, symSize: 0x148 }
  - { offset: 0x363B00, size: 0x8, addend: 0x0, symName: __ZN11spirv_cross4joinIJRA13_KcRjEEENSt3__112basic_stringIcNS5_11char_traitsIcEENS5_9allocatorIcEEEEDpOT_, symObjAddr: 0xE230, symBinAddr: 0x72BD8, symSize: 0x148 }
  - { offset: 0x363DD5, size: 0x8, addend: 0x0, symName: __ZN11spirv_cross4joinIJRA15_KcRjEEENSt3__112basic_stringIcNS5_11char_traitsIcEENS5_9allocatorIcEEEEDpOT_, symObjAddr: 0xE378, symBinAddr: 0x72D20, symSize: 0x148 }
  - { offset: 0x3640AA, size: 0x8, addend: 0x0, symName: __ZN11spirv_cross4joinIJRA10_KcRjPS1_EEENSt3__112basic_stringIcNS6_11char_traitsIcEENS6_9allocatorIcEEEEDpOT_, symObjAddr: 0x7DC60, symBinAddr: 0xDD1E0, symSize: 0x170 }
  - { offset: 0x36441D, size: 0x8, addend: 0x0, symName: __ZN11spirv_cross4joinIJRA39_KcEEENSt3__112basic_stringIcNS4_11char_traitsIcEENS4_9allocatorIcEEEEDpOT_, symObjAddr: 0x7DF64, symBinAddr: 0xDD4E4, symSize: 0x150 }
  - { offset: 0x364742, size: 0x8, addend: 0x0, symName: __ZN11spirv_cross4joinIJRA53_KcEEENSt3__112basic_stringIcNS4_11char_traitsIcEENS4_9allocatorIcEEEEDpOT_, symObjAddr: 0x7E0B4, symBinAddr: 0xDD634, symSize: 0x150 }
  - { offset: 0x364A67, size: 0x8, addend: 0x0, symName: __ZN11spirv_cross4joinIJRA7_KcEEENSt3__112basic_stringIcNS4_11char_traitsIcEENS4_9allocatorIcEEEEDpOT_, symObjAddr: 0x7E204, symBinAddr: 0xDD784, symSize: 0x150 }
  - { offset: 0x364D8C, size: 0x8, addend: 0x0, symName: __ZN11spirv_cross4joinIJRA37_KcEEENSt3__112basic_stringIcNS4_11char_traitsIcEENS4_9allocatorIcEEEEDpOT_, symObjAddr: 0x7E354, symBinAddr: 0xDD8D4, symSize: 0x150 }
  - { offset: 0x3650B1, size: 0x8, addend: 0x0, symName: __ZN11spirv_cross4joinIJRA45_KcEEENSt3__112basic_stringIcNS4_11char_traitsIcEENS4_9allocatorIcEEEEDpOT_, symObjAddr: 0x7E4A4, symBinAddr: 0xDDA24, symSize: 0x150 }
  - { offset: 0x3653D6, size: 0x8, addend: 0x0, symName: __ZN11spirv_cross4joinIJRA33_KcEEENSt3__112basic_stringIcNS4_11char_traitsIcEENS4_9allocatorIcEEEEDpOT_, symObjAddr: 0x7E5F4, symBinAddr: 0xDDB74, symSize: 0x150 }
  - { offset: 0x3656FB, size: 0x8, addend: 0x0, symName: __ZN11spirv_cross4joinIJRA6_KcEEENSt3__112basic_stringIcNS4_11char_traitsIcEENS4_9allocatorIcEEEEDpOT_, symObjAddr: 0x7E744, symBinAddr: 0xDDCC4, symSize: 0x150 }
  - { offset: 0x365A20, size: 0x8, addend: 0x0, symName: __ZN11spirv_cross4joinIJRA51_KcEEENSt3__112basic_stringIcNS4_11char_traitsIcEENS4_9allocatorIcEEEEDpOT_, symObjAddr: 0x7E894, symBinAddr: 0xDDE14, symSize: 0x150 }
  - { offset: 0x365D45, size: 0x8, addend: 0x0, symName: __ZN11spirv_cross4joinIJRA42_KcEEENSt3__112basic_stringIcNS4_11char_traitsIcEENS4_9allocatorIcEEEEDpOT_, symObjAddr: 0x7E9E4, symBinAddr: 0xDDF64, symSize: 0x150 }
  - { offset: 0x36606A, size: 0x8, addend: 0x0, symName: __ZN11spirv_cross4joinIJRA50_KcEEENSt3__112basic_stringIcNS4_11char_traitsIcEENS4_9allocatorIcEEEEDpOT_, symObjAddr: 0x7EB34, symBinAddr: 0xDE0B4, symSize: 0x150 }
  - { offset: 0x36638F, size: 0x8, addend: 0x0, symName: __ZN11spirv_cross4joinIJRA63_KcEEENSt3__112basic_stringIcNS4_11char_traitsIcEENS4_9allocatorIcEEEEDpOT_, symObjAddr: 0x7EC84, symBinAddr: 0xDE204, symSize: 0x150 }
  - { offset: 0x3666B4, size: 0x8, addend: 0x0, symName: __ZN11spirv_cross4joinIJRA69_KcEEENSt3__112basic_stringIcNS4_11char_traitsIcEENS4_9allocatorIcEEEEDpOT_, symObjAddr: 0x7EDD4, symBinAddr: 0xDE354, symSize: 0x150 }
  - { offset: 0x3669D9, size: 0x8, addend: 0x0, symName: __ZN11spirv_cross4joinIJRA66_KcEEENSt3__112basic_stringIcNS4_11char_traitsIcEENS4_9allocatorIcEEEEDpOT_, symObjAddr: 0x7EF24, symBinAddr: 0xDE4A4, symSize: 0x150 }
  - { offset: 0x366CFE, size: 0x8, addend: 0x0, symName: __ZN11spirv_cross4joinIJRA58_KcEEENSt3__112basic_stringIcNS4_11char_traitsIcEENS4_9allocatorIcEEEEDpOT_, symObjAddr: 0x7F074, symBinAddr: 0xDE5F4, symSize: 0x150 }
  - { offset: 0x367023, size: 0x8, addend: 0x0, symName: __ZN11spirv_cross4joinIJRA67_KcEEENSt3__112basic_stringIcNS4_11char_traitsIcEENS4_9allocatorIcEEEEDpOT_, symObjAddr: 0x7F1C4, symBinAddr: 0xDE744, symSize: 0x150 }
  - { offset: 0x367348, size: 0x8, addend: 0x0, symName: __ZN11spirv_cross4joinIJRA59_KcEEENSt3__112basic_stringIcNS4_11char_traitsIcEENS4_9allocatorIcEEEEDpOT_, symObjAddr: 0x7F314, symBinAddr: 0xDE894, symSize: 0x150 }
  - { offset: 0x36766D, size: 0x8, addend: 0x0, symName: __ZN11spirv_cross4joinIJRA41_KcEEENSt3__112basic_stringIcNS4_11char_traitsIcEENS4_9allocatorIcEEEEDpOT_, symObjAddr: 0x7F464, symBinAddr: 0xDE9E4, symSize: 0x150 }
  - { offset: 0x367992, size: 0x8, addend: 0x0, symName: __ZN11spirv_cross4joinIJRA48_KcEEENSt3__112basic_stringIcNS4_11char_traitsIcEENS4_9allocatorIcEEEEDpOT_, symObjAddr: 0x7F5B4, symBinAddr: 0xDEB34, symSize: 0x150 }
  - { offset: 0x367CB7, size: 0x8, addend: 0x0, symName: __ZN11spirv_cross4joinIJRA8_KcRNSt3__112basic_stringIcNS4_11char_traitsIcEENS4_9allocatorIcEEEEEEESA_DpOT_, symObjAddr: 0x7F704, symBinAddr: 0xDEC84, symSize: 0x174 }
  - { offset: 0x3680B4, size: 0x8, addend: 0x0, symName: __ZN11spirv_cross4joinIJRA12_KcRNSt3__112basic_stringIcNS4_11char_traitsIcEENS4_9allocatorIcEEEERA10_S1_EEESA_DpOT_, symObjAddr: 0x7F878, symBinAddr: 0xDEDF8, symSize: 0x198 }
  - { offset: 0x368551, size: 0x8, addend: 0x0, symName: __ZN11spirv_cross4joinIJRA44_KcEEENSt3__112basic_stringIcNS4_11char_traitsIcEENS4_9allocatorIcEEEEDpOT_, symObjAddr: 0x7FA10, symBinAddr: 0xDEF90, symSize: 0x150 }
  - { offset: 0x368876, size: 0x8, addend: 0x0, symName: __ZN11spirv_cross4joinIJRA52_KcEEENSt3__112basic_stringIcNS4_11char_traitsIcEENS4_9allocatorIcEEEEDpOT_, symObjAddr: 0x7FB60, symBinAddr: 0xDF0E0, symSize: 0x150 }
  - { offset: 0x368B9B, size: 0x8, addend: 0x0, symName: __ZN11spirv_cross4joinIJRA28_KcEEENSt3__112basic_stringIcNS4_11char_traitsIcEENS4_9allocatorIcEEEEDpOT_, symObjAddr: 0x7FCB0, symBinAddr: 0xDF230, symSize: 0x150 }
  - { offset: 0x368EC0, size: 0x8, addend: 0x0, symName: __ZN11spirv_cross4joinIJRA27_KcEEENSt3__112basic_stringIcNS4_11char_traitsIcEENS4_9allocatorIcEEEEDpOT_, symObjAddr: 0x7FE00, symBinAddr: 0xDF380, symSize: 0x150 }
  - { offset: 0x3691E5, size: 0x8, addend: 0x0, symName: __ZN11spirv_cross4joinIJRA25_KcEEENSt3__112basic_stringIcNS4_11char_traitsIcEENS4_9allocatorIcEEEEDpOT_, symObjAddr: 0x7FF50, symBinAddr: 0xDF4D0, symSize: 0x150 }
  - { offset: 0x36950A, size: 0x8, addend: 0x0, symName: __ZN11spirv_cross4joinIJRA76_KcEEENSt3__112basic_stringIcNS4_11char_traitsIcEENS4_9allocatorIcEEEEDpOT_, symObjAddr: 0x800A0, symBinAddr: 0xDF620, symSize: 0x150 }
  - { offset: 0x36982F, size: 0x8, addend: 0x0, symName: __ZN11spirv_cross4joinIJRA72_KcEEENSt3__112basic_stringIcNS4_11char_traitsIcEENS4_9allocatorIcEEEEDpOT_, symObjAddr: 0x801F0, symBinAddr: 0xDF770, symSize: 0x150 }
  - { offset: 0x369B54, size: 0x8, addend: 0x0, symName: __ZN11spirv_cross4joinIJRA77_KcEEENSt3__112basic_stringIcNS4_11char_traitsIcEENS4_9allocatorIcEEEEDpOT_, symObjAddr: 0x80340, symBinAddr: 0xDF8C0, symSize: 0x150 }
  - { offset: 0x369E79, size: 0x8, addend: 0x0, symName: __ZN11spirv_cross4joinIJRA73_KcEEENSt3__112basic_stringIcNS4_11char_traitsIcEENS4_9allocatorIcEEEEDpOT_, symObjAddr: 0x80490, symBinAddr: 0xDFA10, symSize: 0x150 }
  - { offset: 0x36A19E, size: 0x8, addend: 0x0, symName: __ZN11spirv_cross4joinIJRA49_KcEEENSt3__112basic_stringIcNS4_11char_traitsIcEENS4_9allocatorIcEEEEDpOT_, symObjAddr: 0x805E0, symBinAddr: 0xDFB60, symSize: 0x150 }
  - { offset: 0x36A4C3, size: 0x8, addend: 0x0, symName: __ZN11spirv_cross4joinIJRA54_KcEEENSt3__112basic_stringIcNS4_11char_traitsIcEENS4_9allocatorIcEEEEDpOT_, symObjAddr: 0x80730, symBinAddr: 0xDFCB0, symSize: 0x150 }
  - { offset: 0x36A7E8, size: 0x8, addend: 0x0, symName: __ZN11spirv_cross4joinIJRA82_KcEEENSt3__112basic_stringIcNS4_11char_traitsIcEENS4_9allocatorIcEEEEDpOT_, symObjAddr: 0x80880, symBinAddr: 0xDFE00, symSize: 0x150 }
  - { offset: 0x36AB0D, size: 0x8, addend: 0x0, symName: __ZN11spirv_cross4joinIJRA12_KcRNSt3__112basic_stringIcNS4_11char_traitsIcEENS4_9allocatorIcEEEERA11_S1_EEESA_DpOT_, symObjAddr: 0x809D0, symBinAddr: 0xDFF50, symSize: 0x198 }
  - { offset: 0x36AFAA, size: 0x8, addend: 0x0, symName: __ZN11spirv_cross4joinIJRA1_KcEEENSt3__112basic_stringIcNS4_11char_traitsIcEENS4_9allocatorIcEEEEDpOT_, symObjAddr: 0x80B68, symBinAddr: 0xE00E8, symSize: 0x150 }
  - { offset: 0x36B2CF, size: 0x8, addend: 0x0, symName: __ZN11spirv_cross4joinIJPKcRA10_S1_RS2_RA2_S1_S2_S5_EEENSt3__112basic_stringIcNS8_11char_traitsIcEENS8_9allocatorIcEEEEDpOT_, symObjAddr: 0x80CB8, symBinAddr: 0xE0238, symSize: 0x194 }
  - { offset: 0x36B6A0, size: 0x8, addend: 0x0, symName: __ZN11spirv_cross4joinIJRA12_KcRKNSt3__112basic_stringIcNS4_11char_traitsIcEENS4_9allocatorIcEEEERA10_S1_EEESA_DpOT_, symObjAddr: 0x8103C, symBinAddr: 0xE05BC, symSize: 0x198 }
  - { offset: 0x36BB3D, size: 0x8, addend: 0x0, symName: __ZN11spirv_cross4joinIJRA12_KcRPS1_RA11_S1_EEENSt3__112basic_stringIcNS8_11char_traitsIcEENS8_9allocatorIcEEEEDpOT_, symObjAddr: 0x811D4, symBinAddr: 0xE0754, symSize: 0x194 }
  - { offset: 0x36BF9C, size: 0x8, addend: 0x0, symName: __ZN11spirv_cross4joinIJRA70_KcEEENSt3__112basic_stringIcNS4_11char_traitsIcEENS4_9allocatorIcEEEEDpOT_, symObjAddr: 0x81368, symBinAddr: 0xE08E8, symSize: 0x150 }
  - { offset: 0x36C2C1, size: 0x8, addend: 0x0, symName: __ZN11spirv_cross4joinIJRNSt3__112basic_stringIcNS1_11char_traitsIcEENS1_9allocatorIcEEEEEEES7_DpOT_, symObjAddr: 0x814B8, symBinAddr: 0xE0A38, symSize: 0x158 }
  - { offset: 0x36C632, size: 0x8, addend: 0x0, symName: __ZN11spirv_cross4joinIJRA22_KcEEENSt3__112basic_stringIcNS4_11char_traitsIcEENS4_9allocatorIcEEEEDpOT_, symObjAddr: 0x818B0, symBinAddr: 0xE0E30, symSize: 0x150 }
  - { offset: 0x36C957, size: 0x8, addend: 0x0, symName: __ZN11spirv_cross4joinIJRA23_KcEEENSt3__112basic_stringIcNS4_11char_traitsIcEENS4_9allocatorIcEEEEDpOT_, symObjAddr: 0x81A00, symBinAddr: 0xE0F80, symSize: 0x150 }
  - { offset: 0x36CC7C, size: 0x8, addend: 0x0, symName: __ZN11spirv_cross4joinIJRA20_KcEEENSt3__112basic_stringIcNS4_11char_traitsIcEENS4_9allocatorIcEEEEDpOT_, symObjAddr: 0x81B50, symBinAddr: 0xE10D0, symSize: 0x150 }
  - { offset: 0x36CFA1, size: 0x8, addend: 0x0, symName: __ZN11spirv_cross4joinIJRA21_KcEEENSt3__112basic_stringIcNS4_11char_traitsIcEENS4_9allocatorIcEEEEDpOT_, symObjAddr: 0x81CA0, symBinAddr: 0xE1220, symSize: 0x150 }
  - { offset: 0x36D2C6, size: 0x8, addend: 0x0, symName: __ZN11spirv_cross4joinIJRA46_KcEEENSt3__112basic_stringIcNS4_11char_traitsIcEENS4_9allocatorIcEEEEDpOT_, symObjAddr: 0x81DF0, symBinAddr: 0xE1370, symSize: 0x150 }
  - { offset: 0x36D5EB, size: 0x8, addend: 0x0, symName: __ZN11spirv_cross4joinIJRA36_KcEEENSt3__112basic_stringIcNS4_11char_traitsIcEENS4_9allocatorIcEEEEDpOT_, symObjAddr: 0x81F40, symBinAddr: 0xE14C0, symSize: 0x150 }
  - { offset: 0x36D910, size: 0x8, addend: 0x0, symName: __ZN11spirv_cross4joinIJRA61_KcEEENSt3__112basic_stringIcNS4_11char_traitsIcEENS4_9allocatorIcEEEEDpOT_, symObjAddr: 0x82090, symBinAddr: 0xE1610, symSize: 0x150 }
  - { offset: 0x36DC35, size: 0x8, addend: 0x0, symName: __ZN11spirv_cross4joinIJRA43_KcEEENSt3__112basic_stringIcNS4_11char_traitsIcEENS4_9allocatorIcEEEEDpOT_, symObjAddr: 0x821E0, symBinAddr: 0xE1760, symSize: 0x150 }
  - { offset: 0x36DF5A, size: 0x8, addend: 0x0, symName: __ZN11spirv_cross4joinIJRA8_KcNSt3__112basic_stringIcNS4_11char_traitsIcEENS4_9allocatorIcEEEERA6_S1_EEESA_DpOT_, symObjAddr: 0x82330, symBinAddr: 0xE18B0, symSize: 0x198 }
  - { offset: 0x36E3F7, size: 0x8, addend: 0x0, symName: __ZN11spirv_cross4joinIJRA8_KcNSt3__112basic_stringIcNS4_11char_traitsIcEENS4_9allocatorIcEEEERA7_S1_EEESA_DpOT_, symObjAddr: 0x824C8, symBinAddr: 0xE1A48, symSize: 0x198 }
  - { offset: 0x36E894, size: 0x8, addend: 0x0, symName: __ZN11spirv_cross4joinIJPKcRNSt3__112basic_stringIcNS3_11char_traitsIcEENS3_9allocatorIcEEEEEEES9_DpOT_, symObjAddr: 0x82660, symBinAddr: 0xE1BE0, symSize: 0x178 }
  - { offset: 0x36EC9B, size: 0x8, addend: 0x0, symName: __ZN11spirv_cross4joinIJRA14_KcRjEEENSt3__112basic_stringIcNS5_11char_traitsIcEENS5_9allocatorIcEEEEDpOT_, symObjAddr: 0x10A10, symBinAddr: 0x753B8, symSize: 0x148 }
  - { offset: 0x36EF70, size: 0x8, addend: 0x0, symName: __ZN11spirv_cross4joinIJRA10_KcRjEEENSt3__112basic_stringIcNS5_11char_traitsIcEENS5_9allocatorIcEEEEDpOT_, symObjAddr: 0x108C8, symBinAddr: 0x75270, symSize: 0x148 }
  - { offset: 0x36F245, size: 0x8, addend: 0x0, symName: __ZN11spirv_cross4joinIJRA26_KcjEEENSt3__112basic_stringIcNS4_11char_traitsIcEENS4_9allocatorIcEEEEDpOT_, symObjAddr: 0x13020, symBinAddr: 0x779C8, symSize: 0x148 }
  - { offset: 0x36F51A, size: 0x8, addend: 0x0, symName: __ZN11spirv_cross4joinIJRA12_KcjEEENSt3__112basic_stringIcNS4_11char_traitsIcEENS4_9allocatorIcEEEEDpOT_, symObjAddr: 0x13168, symBinAddr: 0x77B10, symSize: 0x148 }
  - { offset: 0x36F7EF, size: 0x8, addend: 0x0, symName: __ZN11spirv_cross4joinIJRA14_KcjEEENSt3__112basic_stringIcNS4_11char_traitsIcEENS4_9allocatorIcEEEEDpOT_, symObjAddr: 0x133F8, symBinAddr: 0x77DA0, symSize: 0x148 }
  - { offset: 0x36FAC4, size: 0x8, addend: 0x0, symName: __ZN11spirv_cross4joinIJRA10_KcjEEENSt3__112basic_stringIcNS4_11char_traitsIcEENS4_9allocatorIcEEEEDpOT_, symObjAddr: 0x132B0, symBinAddr: 0x77C58, symSize: 0x148 }
  - { offset: 0x36FD99, size: 0x8, addend: 0x0, symName: __ZN11spirv_cross4joinIJRA13_KcjEEENSt3__112basic_stringIcNS4_11char_traitsIcEENS4_9allocatorIcEEEEDpOT_, symObjAddr: 0x13540, symBinAddr: 0x77EE8, symSize: 0x148 }
  - { offset: 0x37006E, size: 0x8, addend: 0x0, symName: __ZN11spirv_cross4joinIJRA9_KcjEEENSt3__112basic_stringIcNS4_11char_traitsIcEENS4_9allocatorIcEEEEDpOT_, symObjAddr: 0x13688, symBinAddr: 0x78030, symSize: 0x148 }
  - { offset: 0x370343, size: 0x8, addend: 0x0, symName: __ZN11spirv_cross4joinIJRA7_KcjEEENSt3__112basic_stringIcNS4_11char_traitsIcEENS4_9allocatorIcEEEEDpOT_, symObjAddr: 0x137D0, symBinAddr: 0x78178, symSize: 0x148 }
  - { offset: 0x370618, size: 0x8, addend: 0x0, symName: __ZN11spirv_cross4joinIJRA11_KcjEEENSt3__112basic_stringIcNS4_11char_traitsIcEENS4_9allocatorIcEEEEDpOT_, symObjAddr: 0x13918, symBinAddr: 0x782C0, symSize: 0x148 }
  - { offset: 0x3708ED, size: 0x8, addend: 0x0, symName: __ZN11spirv_cross4joinIJRA2_KcRNS_7TypedIDILNS_5TypesE0EEES3_RKS6_EEENSt3__112basic_stringIcNSA_11char_traitsIcEENSA_9allocatorIcEEEEDpOT_, symObjAddr: 0x169FC, symBinAddr: 0x7B1AC, symSize: 0x178 }
  - { offset: 0x370E23, size: 0x8, addend: 0x0, symName: __ZN11spirv_cross4joinIJRA26_KcRjEEENSt3__112basic_stringIcNS5_11char_traitsIcEENS5_9allocatorIcEEEEDpOT_, symObjAddr: 0x1610C, symBinAddr: 0x7A8C0, symSize: 0x148 }
  - { offset: 0x3710F8, size: 0x8, addend: 0x0, symName: __ZN11spirv_cross4joinIJRA8_KcNSt3__112basic_stringIcNS4_11char_traitsIcEENS4_9allocatorIcEEEERA2_S1_RSA_RA9_S1_SD_EEESA_DpOT_, symObjAddr: 0x8360C, symBinAddr: 0xE2490, symSize: 0x158 }
  - { offset: 0x371421, size: 0x8, addend: 0x0, symName: __ZN11spirv_cross4joinIJRA8_KcRNSt3__112basic_stringIcNS4_11char_traitsIcEENS4_9allocatorIcEEEERA44_S1_RjRA10_S1_SB_EEESA_DpOT_, symObjAddr: 0x83990, symBinAddr: 0xE2814, symSize: 0x1C0 }
  - { offset: 0x371958, size: 0x8, addend: 0x0, symName: __ZN11spirv_cross4joinIJRA8_KcRNSt3__112basic_stringIcNS4_11char_traitsIcEENS4_9allocatorIcEEEERA26_S1_SB_EEESA_DpOT_, symObjAddr: 0x83D04, symBinAddr: 0xE2B88, symSize: 0x1BC }
  - { offset: 0x371EDD, size: 0x8, addend: 0x0, symName: __ZN11spirv_cross4joinIJNSt3__112basic_stringIcNS1_11char_traitsIcEENS1_9allocatorIcEEEERA7_KcS7_RA2_S8_EEES7_DpOT_, symObjAddr: 0x83EC0, symBinAddr: 0xE2D44, symSize: 0x1BC }
  - { offset: 0x37246E, size: 0x8, addend: 0x0, symName: __ZN11spirv_cross4joinIJRA33_KcRNSt3__112basic_stringIcNS4_11char_traitsIcEENS4_9allocatorIcEEEERA2_S1_EEESA_DpOT_, symObjAddr: 0x8407C, symBinAddr: 0xE2F00, symSize: 0x198 }
  - { offset: 0x37290B, size: 0x8, addend: 0x0, symName: __ZN11spirv_cross4joinIJNSt3__112basic_stringIcNS1_11char_traitsIcEENS1_9allocatorIcEEEEPKcS9_S9_S9_S9_RS7_EEES7_DpOT_, symObjAddr: 0x847C8, symBinAddr: 0xE3514, symSize: 0x1B8 }
  - { offset: 0x372DE0, size: 0x8, addend: 0x0, symName: __ZN11spirv_cross4joinIJRA9_KcNSt3__112basic_stringIcNS4_11char_traitsIcEENS4_9allocatorIcEEEESA_RA2_S1_RSA_SC_RmRA3_S1_EEESA_DpOT_, symObjAddr: 0x84B84, symBinAddr: 0xE38D0, symSize: 0x1A4 }
  - { offset: 0x3731FE, size: 0x8, addend: 0x0, symName: __ZN11spirv_cross4joinIJRA3_KcRjEEENSt3__112basic_stringIcNS5_11char_traitsIcEENS5_9allocatorIcEEEEDpOT_, symObjAddr: 0x6826C, symBinAddr: 0xCBF0C, symSize: 0x148 }
  - { offset: 0x3734D3, size: 0x8, addend: 0x0, symName: __ZN11spirv_cross4joinIJNSt3__112basic_stringIcNS1_11char_traitsIcEENS1_9allocatorIcEEEES7_EEES7_DpOT_, symObjAddr: 0x19030, symBinAddr: 0x7D7E0, symSize: 0x17C }
  - { offset: 0x37391C, size: 0x8, addend: 0x0, symName: __ZN11spirv_cross4joinIJNSt3__112basic_stringIcNS1_11char_traitsIcEENS1_9allocatorIcEEEERPKcSA_RS7_EEES7_DpOT_, symObjAddr: 0x85384, symBinAddr: 0xE3F98, symSize: 0x1C4 }
  - { offset: 0x373EB3, size: 0x8, addend: 0x0, symName: __ZN11spirv_cross4joinIJNSt3__112basic_stringIcNS1_11char_traitsIcEENS1_9allocatorIcEEEES7_S7_RA2_KcEEES7_DpOT_, symObjAddr: 0x85548, symBinAddr: 0xE415C, symSize: 0x1C4 }
  - { offset: 0x374484, size: 0x8, addend: 0x0, symName: __ZN11spirv_cross4joinIJNSt3__112basic_stringIcNS1_11char_traitsIcEENS1_9allocatorIcEEEES7_RA2_KcEEES7_DpOT_, symObjAddr: 0x7301C, symBinAddr: 0xD6C74, symSize: 0x198 }
  - { offset: 0x37496D, size: 0x8, addend: 0x0, symName: __ZN11spirv_cross4joinIJRA7_KcNSt3__112basic_stringIcNS4_11char_traitsIcEENS4_9allocatorIcEEEERA4_S1_SA_RA2_S1_EEESA_DpOT_, symObjAddr: 0x857B4, symBinAddr: 0xE43C8, symSize: 0x1E0 }
  - { offset: 0x374FA2, size: 0x8, addend: 0x0, symName: __ZN11spirv_cross4joinIJRA22_KcjRA9_S1_NSt3__112basic_stringIcNS6_11char_traitsIcEENS6_9allocatorIcEEEERA4_S1_SC_RA2_S1_EEESC_DpOT_, symObjAddr: 0x85994, symBinAddr: 0xE45A8, symSize: 0x194 }
  - { offset: 0x3753D3, size: 0x8, addend: 0x0, symName: __ZN11spirv_cross4joinIJNSt3__112basic_stringIcNS1_11char_traitsIcEENS1_9allocatorIcEEEERA2_KcRS7_SA_EEES7_DpOT_, symObjAddr: 0x2CD74, symBinAddr: 0x90B54, symSize: 0x1BC }
  - { offset: 0x375964, size: 0x8, addend: 0x0, symName: __ZN11spirv_cross4joinIJNSt3__112basic_stringIcNS1_11char_traitsIcEENS1_9allocatorIcEEEERA6_KcEEES7_DpOT_, symObjAddr: 0x33694, symBinAddr: 0x973C8, symSize: 0x174 }
  - { offset: 0x375D6D, size: 0x8, addend: 0x0, symName: __ZN11spirv_cross4joinIJNSt3__112basic_stringIcNS1_11char_traitsIcEENS1_9allocatorIcEEEERA4_KcEEES7_DpOT_, symObjAddr: 0x33808, symBinAddr: 0x9753C, symSize: 0x174 }
  - { offset: 0x376176, size: 0x8, addend: 0x0, symName: __ZN11spirv_cross4joinIJRA9_KcRKNSt3__112basic_stringIcNS4_11char_traitsIcEENS4_9allocatorIcEEEEEEESA_DpOT_, symObjAddr: 0x85DD8, symBinAddr: 0xE49EC, symSize: 0x174 }
  - { offset: 0x376573, size: 0x8, addend: 0x0, symName: __ZN11spirv_cross4joinIJRA9_KcRKNSt3__112basic_stringIcNS4_11char_traitsIcEENS4_9allocatorIcEEEERA2_S1_SA_EEESA_DpOT_, symObjAddr: 0x85F4C, symBinAddr: 0xE4B60, symSize: 0x1BC }
  - { offset: 0x376AF8, size: 0x8, addend: 0x0, symName: __ZN11spirv_cross4joinIJRA7_KcNSt3__112basic_stringIcNS4_11char_traitsIcEENS4_9allocatorIcEEEERA4_S1_RKSA_RA2_S1_EEESA_DpOT_, symObjAddr: 0x86108, symBinAddr: 0xE4D1C, symSize: 0x1E0 }
  - { offset: 0x37712D, size: 0x8, addend: 0x0, symName: __ZN11spirv_cross4joinIJRA2_KcRNSt3__112basic_stringIcNS4_11char_traitsIcEENS4_9allocatorIcEEEEEEESA_DpOT_, symObjAddr: 0x862E8, symBinAddr: 0xE4EFC, symSize: 0x174 }
  - { offset: 0x37752A, size: 0x8, addend: 0x0, symName: __ZN11spirv_cross4joinIJRA13_KcRjRA2_S1_EEENSt3__112basic_stringIcNS7_11char_traitsIcEENS7_9allocatorIcEEEEDpOT_, symObjAddr: 0x1DB50, symBinAddr: 0x82298, symSize: 0x170 }
  - { offset: 0x37789D, size: 0x8, addend: 0x0, symName: __ZN11spirv_cross4joinIJNSt3__112basic_stringIcNS1_11char_traitsIcEENS1_9allocatorIcEEEERA2_KcRKS7_SA_EEES7_DpOT_, symObjAddr: 0x1DFAC, symBinAddr: 0x826F4, symSize: 0x1BC }
  - { offset: 0x377E2E, size: 0x8, addend: 0x0, symName: __ZN11spirv_cross4joinIJcRKNSt3__112basic_stringIcNS1_11char_traitsIcEENS1_9allocatorIcEEEEcEEES7_DpOT_, symObjAddr: 0x2AA5C, symBinAddr: 0x8EC8C, symSize: 0x194 }
  - { offset: 0x3782B7, size: 0x8, addend: 0x0, symName: __ZN11spirv_cross4joinIJNSt3__112basic_stringIcNS1_11char_traitsIcEENS1_9allocatorIcEEEERA2_KcEEES7_DpOT_, symObjAddr: 0x86654, symBinAddr: 0xE5114, symSize: 0x174 }
  - { offset: 0x3786C0, size: 0x8, addend: 0x0, symName: __ZN11spirv_cross4joinIJPKcRNSt3__112basic_stringIcNS3_11char_traitsIcEENS3_9allocatorIcEEEES9_RA2_S1_SA_EEES9_DpOT_, symObjAddr: 0x6ACA4, symBinAddr: 0xCE944, symSize: 0x1EC }
  - { offset: 0x378D3F, size: 0x8, addend: 0x0, symName: __ZN11spirv_cross4joinIJRA29_KcEEENSt3__112basic_stringIcNS4_11char_traitsIcEENS4_9allocatorIcEEEEDpOT_, symObjAddr: 0x867C8, symBinAddr: 0xE5288, symSize: 0x150 }
  - { offset: 0x379064, size: 0x8, addend: 0x0, symName: __ZN11spirv_cross4joinIJRA14_KcRjRA16_S1_S4_EEENSt3__112basic_stringIcNS7_11char_traitsIcEENS7_9allocatorIcEEEEDpOT_, symObjAddr: 0x20F94, symBinAddr: 0x856DC, symSize: 0x178 }
  - { offset: 0x3793F3, size: 0x8, addend: 0x0, symName: __ZN11spirv_cross4joinIJRPKcRA2_S1_RjS5_EEENSt3__112basic_stringIcNS7_11char_traitsIcEENS7_9allocatorIcEEEEDpOT_, symObjAddr: 0x21AD8, symBinAddr: 0x86220, symSize: 0x190 }
  - { offset: 0x379818, size: 0x8, addend: 0x0, symName: __ZN11spirv_cross4joinIJRPKcRA3_S1_EEENSt3__112basic_stringIcNS6_11char_traitsIcEENS6_9allocatorIcEEEEDpOT_, symObjAddr: 0x21C68, symBinAddr: 0x863B0, symSize: 0x170 }
  - { offset: 0x379BDF, size: 0x8, addend: 0x0, symName: __ZN11spirv_cross4joinIJRA24_KcEEENSt3__112basic_stringIcNS4_11char_traitsIcEENS4_9allocatorIcEEEEDpOT_, symObjAddr: 0x86DA0, symBinAddr: 0xE5478, symSize: 0x150 }
  - { offset: 0x379F04, size: 0x8, addend: 0x0, symName: __ZN11spirv_cross4joinIJRA8_KcNSt3__112basic_stringIcNS4_11char_traitsIcEENS4_9allocatorIcEEEERA19_S1_EEESA_DpOT_, symObjAddr: 0x86EF0, symBinAddr: 0xE55C8, symSize: 0x198 }
  - { offset: 0x37A3A1, size: 0x8, addend: 0x0, symName: __ZN11spirv_cross4joinIJRA17_KcEEENSt3__112basic_stringIcNS4_11char_traitsIcEENS4_9allocatorIcEEEEDpOT_, symObjAddr: 0x87088, symBinAddr: 0xE5760, symSize: 0x150 }
  - { offset: 0x37A6C6, size: 0x8, addend: 0x0, symName: __ZN11spirv_cross4joinIJRA16_KcEEENSt3__112basic_stringIcNS4_11char_traitsIcEENS4_9allocatorIcEEEEDpOT_, symObjAddr: 0x871D8, symBinAddr: 0xE58B0, symSize: 0x150 }
  - { offset: 0x37A9EB, size: 0x8, addend: 0x0, symName: __ZN11spirv_cross4joinIJRA21_KcRjRA20_S1_EEENSt3__112basic_stringIcNS7_11char_traitsIcEENS7_9allocatorIcEEEEDpOT_, symObjAddr: 0x87328, symBinAddr: 0xE5A00, symSize: 0x170 }
  - { offset: 0x37AD5E, size: 0x8, addend: 0x0, symName: __ZN11spirv_cross4joinIJRA18_KcEEENSt3__112basic_stringIcNS4_11char_traitsIcEENS4_9allocatorIcEEEEDpOT_, symObjAddr: 0x87624, symBinAddr: 0xE5CFC, symSize: 0x150 }
  - { offset: 0x37B083, size: 0x8, addend: 0x0, symName: __ZN11spirv_cross4joinIJRA21_KcRjRA22_S1_EEENSt3__112basic_stringIcNS7_11char_traitsIcEENS7_9allocatorIcEEEEDpOT_, symObjAddr: 0x87774, symBinAddr: 0xE5E4C, symSize: 0x170 }
  - { offset: 0x37B3F6, size: 0x8, addend: 0x0, symName: __ZN11spirv_cross4joinIJRA21_KcRjRA25_S1_S4_RA3_S1_EEENSt3__112basic_stringIcNS9_11char_traitsIcEENS9_9allocatorIcEEEEDpOT_, symObjAddr: 0x87A70, symBinAddr: 0xE6148, symSize: 0x188 }
  - { offset: 0x37B7A1, size: 0x8, addend: 0x0, symName: __ZN11spirv_cross4joinIJRA23_KcRjRA3_S1_EEENSt3__112basic_stringIcNS7_11char_traitsIcEENS7_9allocatorIcEEEEDpOT_, symObjAddr: 0x87F30, symBinAddr: 0xE6608, symSize: 0x170 }
  - { offset: 0x37BB14, size: 0x8, addend: 0x0, symName: __ZN11spirv_cross4joinIJRPKcRA24_S1_RjRA3_S1_EEENSt3__112basic_stringIcNS9_11char_traitsIcEENS9_9allocatorIcEEEEDpOT_, symObjAddr: 0x88210, symBinAddr: 0xE6860, symSize: 0x190 }
  - { offset: 0x37BF39, size: 0x8, addend: 0x0, symName: __ZN11spirv_cross4joinIJRA9_KcNSt3__112basic_stringIcNS4_11char_traitsIcEENS4_9allocatorIcEEEERA2_S1_EEESA_DpOT_, symObjAddr: 0x88488, symBinAddr: 0xE6AD8, symSize: 0x198 }
  - { offset: 0x37C3FD, size: 0x8, addend: 0x0, symName: __ZN11spirv_cross4joinIJNSt3__112basic_stringIcNS1_11char_traitsIcEENS1_9allocatorIcEEEERS7_RA2_KcEEES7_DpOT_, symObjAddr: 0x88620, symBinAddr: 0xE6C70, symSize: 0x198 }
  - { offset: 0x37C8E6, size: 0x8, addend: 0x0, symName: __ZN11spirv_cross4joinIJRA2_KcRKNS_7TypedIDILNS_5TypesE0EEERA6_S1_EEENSt3__112basic_stringIcNSB_11char_traitsIcEENSB_9allocatorIcEEEEDpOT_, symObjAddr: 0x246E4, symBinAddr: 0x88AA8, symSize: 0x170 }
  - { offset: 0x37CC59, size: 0x8, addend: 0x0, symName: __ZN11spirv_cross4joinIJRA2_KcRKNS_7TypedIDILNS_5TypesE0EEES3_RjRA6_S1_EEENSt3__112basic_stringIcNSC_11char_traitsIcEENSC_9allocatorIcEEEEDpOT_, symObjAddr: 0x23670, symBinAddr: 0x87B50, symSize: 0x188 }
  - { offset: 0x37D02B, size: 0x8, addend: 0x0, symName: __ZN11spirv_cross4joinIJNSt3__112basic_stringIcNS1_11char_traitsIcEENS1_9allocatorIcEEEEPKcEEES7_DpOT_, symObjAddr: 0x2DCCC, symBinAddr: 0x91A00, symSize: 0x178 }
  - { offset: 0x37D436, size: 0x8, addend: 0x0, symName: __ZN11spirv_cross4joinIJRA7_KcNSt3__112basic_stringIcNS4_11char_traitsIcEENS4_9allocatorIcEEEERA2_S1_RSA_SA_RA4_S1_SA_SC_SA_RA3_S1_EEESA_DpOT_, symObjAddr: 0x88A70, symBinAddr: 0xE70C0, symSize: 0x1EC }
  - { offset: 0x37DB1B, size: 0x8, addend: 0x0, symName: __ZN11spirv_cross4joinIJRA7_KcNSt3__112basic_stringIcNS4_11char_traitsIcEENS4_9allocatorIcEEEERA2_S1_RSA_SA_RA4_S1_SA_SC_EEESA_DpOT_, symObjAddr: 0x8ADA0, symBinAddr: 0xE86CC, symSize: 0x1C0 }
  - { offset: 0x37E006, size: 0x8, addend: 0x0, symName: __ZN11spirv_cross4joinIJRKNSt3__112basic_stringIcNS1_11char_traitsIcEENS1_9allocatorIcEEEERA2_KcS9_SC_S9_RA4_SA_EEES7_DpOT_, symObjAddr: 0x8C5C8, symBinAddr: 0xE9EE0, symSize: 0x158 }
  - { offset: 0x37E32F, size: 0x8, addend: 0x0, symName: __ZN11spirv_cross4joinIJRKNSt3__112basic_stringIcNS1_11char_traitsIcEENS1_9allocatorIcEEEERA2_KcRS7_RA4_SA_S9_SC_EEES7_DpOT_, symObjAddr: 0x8C930, symBinAddr: 0xEA038, symSize: 0x158 }
  - { offset: 0x37E658, size: 0x8, addend: 0x0, symName: __ZN11spirv_cross4joinIJRA35_KcEEENSt3__112basic_stringIcNS4_11char_traitsIcEENS4_9allocatorIcEEEEDpOT_, symObjAddr: 0x8CC98, symBinAddr: 0xEA190, symSize: 0x150 }
  - { offset: 0x37E97D, size: 0x8, addend: 0x0, symName: __ZN11spirv_cross4joinIJRNSt3__112basic_stringIcNS1_11char_traitsIcEENS1_9allocatorIcEEEERA6_KcEEES7_DpOT_, symObjAddr: 0x8CDE8, symBinAddr: 0xEA2E0, symSize: 0x174 }
  - { offset: 0x37ED86, size: 0x8, addend: 0x0, symName: __ZN11spirv_cross4joinIJRKNSt3__112basic_stringIcNS1_11char_traitsIcEENS1_9allocatorIcEEEERA19_KcRS7_RA30_SA_EEES7_DpOT_, symObjAddr: 0x8CF5C, symBinAddr: 0xEA454, symSize: 0x1BC }
  - { offset: 0x37F317, size: 0x8, addend: 0x0, symName: __ZN11spirv_cross4joinIJRKNSt3__112basic_stringIcNS1_11char_traitsIcEENS1_9allocatorIcEEEERA18_KcRS7_RA30_SA_EEES7_DpOT_, symObjAddr: 0x8D118, symBinAddr: 0xEA610, symSize: 0x1BC }
  - { offset: 0x37F8A8, size: 0x8, addend: 0x0, symName: __ZN11spirv_cross4joinIJRNSt3__112basic_stringIcNS1_11char_traitsIcEENS1_9allocatorIcEEEERA2_KcS8_RA14_S9_RKS7_SB_EEES7_DpOT_, symObjAddr: 0x8D2D4, symBinAddr: 0xEA7CC, symSize: 0x158 }
  - { offset: 0x37FBD1, size: 0x8, addend: 0x0, symName: __ZN11spirv_cross4joinIJRNSt3__112basic_stringIcNS1_11char_traitsIcEENS1_9allocatorIcEEEERA16_KcS8_RA24_S9_EEES7_DpOT_, symObjAddr: 0x8D63C, symBinAddr: 0xEA924, symSize: 0x1BC }
  - { offset: 0x380162, size: 0x8, addend: 0x0, symName: __ZN11spirv_cross4joinIJRNSt3__112basic_stringIcNS1_11char_traitsIcEENS1_9allocatorIcEEEERA4_KcRKS7_RA2_S9_EEES7_DpOT_, symObjAddr: 0x8D7F8, symBinAddr: 0xEAAE0, symSize: 0x1BC }
  - { offset: 0x3806F3, size: 0x8, addend: 0x0, symName: __ZN11spirv_cross4joinIJRA5_KcEEENSt3__112basic_stringIcNS4_11char_traitsIcEENS4_9allocatorIcEEEEDpOT_, symObjAddr: 0x8D9B4, symBinAddr: 0xEAC9C, symSize: 0x150 }
  - { offset: 0x380A18, size: 0x8, addend: 0x0, symName: __ZN11spirv_cross4joinIJRA56_KcEEENSt3__112basic_stringIcNS4_11char_traitsIcEENS4_9allocatorIcEEEEDpOT_, symObjAddr: 0x8DB04, symBinAddr: 0xEADEC, symSize: 0x150 }
  - { offset: 0x380D3D, size: 0x8, addend: 0x0, symName: __ZN11spirv_cross4joinIJRKNSt3__112basic_stringIcNS1_11char_traitsIcEENS1_9allocatorIcEEEERA39_KcEEES7_DpOT_, symObjAddr: 0x8DC54, symBinAddr: 0xEAF3C, symSize: 0x174 }
  - { offset: 0x381146, size: 0x8, addend: 0x0, symName: __ZN11spirv_cross4joinIJRA30_KcEEENSt3__112basic_stringIcNS4_11char_traitsIcEENS4_9allocatorIcEEEEDpOT_, symObjAddr: 0x8DDC8, symBinAddr: 0xEB0B0, symSize: 0x150 }
  - { offset: 0x38146B, size: 0x8, addend: 0x0, symName: __ZN11spirv_cross4joinIJRA8_KcRNSt3__112basic_stringIcNS4_11char_traitsIcEENS4_9allocatorIcEEEERA2_S1_EEESA_DpOT_, symObjAddr: 0x75110, symBinAddr: 0xD8CF8, symSize: 0x198 }
  - { offset: 0x381908, size: 0x8, addend: 0x0, symName: __ZN11spirv_cross4joinIJPKcRA10_S1_RS2_RA2_S1_EEENSt3__112basic_stringIcNS8_11char_traitsIcEENS8_9allocatorIcEEEEDpOT_, symObjAddr: 0x8DF18, symBinAddr: 0xEB200, symSize: 0x1B4 }
  - { offset: 0x381E1B, size: 0x8, addend: 0x0, symName: __ZN11spirv_cross4joinIJRA57_KcEEENSt3__112basic_stringIcNS4_11char_traitsIcEENS4_9allocatorIcEEEEDpOT_, symObjAddr: 0x8E0CC, symBinAddr: 0xEB3B4, symSize: 0x150 }
  - { offset: 0x382140, size: 0x8, addend: 0x0, symName: __ZN11spirv_cross4joinIJRA34_KcEEENSt3__112basic_stringIcNS4_11char_traitsIcEENS4_9allocatorIcEEEEDpOT_, symObjAddr: 0x8E21C, symBinAddr: 0xEB504, symSize: 0x150 }
  - { offset: 0x382465, size: 0x8, addend: 0x0, symName: __ZN11spirv_cross4joinIJRPKcRA25_S1_S3_RA83_S1_EEENSt3__112basic_stringIcNS8_11char_traitsIcEENS8_9allocatorIcEEEEDpOT_, symObjAddr: 0x8E36C, symBinAddr: 0xEB654, symSize: 0x1B4 }
  - { offset: 0x382978, size: 0x8, addend: 0x0, symName: __ZN11spirv_cross4joinIJRPKcRA20_S1_S3_RA65_S1_EEENSt3__112basic_stringIcNS8_11char_traitsIcEENS8_9allocatorIcEEEEDpOT_, symObjAddr: 0x8E520, symBinAddr: 0xEB808, symSize: 0x1B4 }
  - { offset: 0x382E8B, size: 0x8, addend: 0x0, symName: __ZN11spirv_cross4joinIJRPKcRA25_S1_S3_RA50_S1_EEENSt3__112basic_stringIcNS8_11char_traitsIcEENS8_9allocatorIcEEEEDpOT_, symObjAddr: 0x8E6D4, symBinAddr: 0xEB9BC, symSize: 0x1B4 }
  - { offset: 0x38339E, size: 0x8, addend: 0x0, symName: __ZN11spirv_cross4joinIJRPKcRA20_S1_S3_RA58_S1_EEENSt3__112basic_stringIcNS8_11char_traitsIcEENS8_9allocatorIcEEEEDpOT_, symObjAddr: 0x8E888, symBinAddr: 0xEBB70, symSize: 0x1B4 }
  - { offset: 0x3838B1, size: 0x8, addend: 0x0, symName: __ZN11spirv_cross4joinIJRA68_KcEEENSt3__112basic_stringIcNS4_11char_traitsIcEENS4_9allocatorIcEEEEDpOT_, symObjAddr: 0x8EA3C, symBinAddr: 0xEBD24, symSize: 0x150 }
  - { offset: 0x383BD6, size: 0x8, addend: 0x0, symName: __ZN11spirv_cross4joinIJRA60_KcEEENSt3__112basic_stringIcNS4_11char_traitsIcEENS4_9allocatorIcEEEEDpOT_, symObjAddr: 0x8EB8C, symBinAddr: 0xEBE74, symSize: 0x150 }
  - { offset: 0x383EFB, size: 0x8, addend: 0x0, symName: __ZN11spirv_cross4joinIJRA71_KcEEENSt3__112basic_stringIcNS4_11char_traitsIcEENS4_9allocatorIcEEEEDpOT_, symObjAddr: 0x8ECDC, symBinAddr: 0xEBFC4, symSize: 0x150 }
  - { offset: 0x384220, size: 0x8, addend: 0x0, symName: __ZN11spirv_cross4joinIJRA111_KcEEENSt3__112basic_stringIcNS4_11char_traitsIcEENS4_9allocatorIcEEEEDpOT_, symObjAddr: 0x8EE2C, symBinAddr: 0xEC114, symSize: 0x150 }
  - { offset: 0x384545, size: 0x8, addend: 0x0, symName: __ZN11spirv_cross4joinIJRA160_KcEEENSt3__112basic_stringIcNS4_11char_traitsIcEENS4_9allocatorIcEEEEDpOT_, symObjAddr: 0x8EF7C, symBinAddr: 0xEC264, symSize: 0x150 }
  - { offset: 0x38486A, size: 0x8, addend: 0x0, symName: __ZN11spirv_cross4joinIJRA44_KcRPS1_RA2_S1_EEENSt3__112basic_stringIcNS8_11char_traitsIcEENS8_9allocatorIcEEEEDpOT_, symObjAddr: 0x8F0CC, symBinAddr: 0xEC3B4, symSize: 0x194 }
  - { offset: 0x384CC9, size: 0x8, addend: 0x0, symName: __ZN11spirv_cross4joinIJRA85_KcEEENSt3__112basic_stringIcNS4_11char_traitsIcEENS4_9allocatorIcEEEEDpOT_, symObjAddr: 0x8F260, symBinAddr: 0xEC548, symSize: 0x150 }
  - { offset: 0x384FEE, size: 0x8, addend: 0x0, symName: __ZN11spirv_cross4joinIJRA55_KcEEENSt3__112basic_stringIcNS4_11char_traitsIcEENS4_9allocatorIcEEEEDpOT_, symObjAddr: 0x887B8, symBinAddr: 0xE6E08, symSize: 0x150 }
  - { offset: 0x385313, size: 0x8, addend: 0x0, symName: __ZN11spirv_cross4joinIJRA62_KcEEENSt3__112basic_stringIcNS4_11char_traitsIcEENS4_9allocatorIcEEEEDpOT_, symObjAddr: 0x8F3B0, symBinAddr: 0xEC698, symSize: 0x150 }
  - { offset: 0x385638, size: 0x8, addend: 0x0, symName: __ZN11spirv_cross4joinIJRA7_KcNSt3__112basic_stringIcNS4_11char_traitsIcEENS4_9allocatorIcEEEERA30_S1_SA_RA24_S1_EEESA_DpOT_, symObjAddr: 0x8F500, symBinAddr: 0xEC7E8, symSize: 0x1E0 }
  - { offset: 0x385C6D, size: 0x8, addend: 0x0, symName: __ZN11spirv_cross4joinIJRA9_KcNSt3__112basic_stringIcNS4_11char_traitsIcEENS4_9allocatorIcEEEERA34_S1_SA_RA24_S1_EEESA_DpOT_, symObjAddr: 0x8F6E0, symBinAddr: 0xEC9C8, symSize: 0x1E0 }
  - { offset: 0x3862A2, size: 0x8, addend: 0x0, symName: __ZN11spirv_cross4joinIJNSt3__112basic_stringIcNS1_11char_traitsIcEENS1_9allocatorIcEEEERA24_KcS7_SA_EEES7_DpOT_, symObjAddr: 0x8F8C0, symBinAddr: 0xECBA8, symSize: 0x1BC }
  - { offset: 0x386833, size: 0x8, addend: 0x0, symName: __ZN11spirv_cross4joinIJRPKcRA18_S1_S3_RA2_S1_S3_RA8_S1_EEENSt3__112basic_stringIcNSA_11char_traitsIcEENSA_9allocatorIcEEEEDpOT_, symObjAddr: 0x8FA7C, symBinAddr: 0xECD64, symSize: 0x194 }
  - { offset: 0x386C04, size: 0x8, addend: 0x0, symName: __ZN11spirv_cross4joinIJRA94_KcEEENSt3__112basic_stringIcNS4_11char_traitsIcEENS4_9allocatorIcEEEEDpOT_, symObjAddr: 0x8FDF8, symBinAddr: 0xED0E0, symSize: 0x150 }
  - { offset: 0x386F29, size: 0x8, addend: 0x0, symName: __ZN11spirv_cross4joinIJRA157_KcEEENSt3__112basic_stringIcNS4_11char_traitsIcEENS4_9allocatorIcEEEEDpOT_, symObjAddr: 0x8FF48, symBinAddr: 0xED230, symSize: 0x150 }
  - { offset: 0x38724E, size: 0x8, addend: 0x0, symName: __ZN11spirv_cross4joinIJRPKcRA21_S1_S3_RA2_S1_S3_RA8_S1_EEENSt3__112basic_stringIcNSA_11char_traitsIcEENSA_9allocatorIcEEEEDpOT_, symObjAddr: 0x90098, symBinAddr: 0xED380, symSize: 0x194 }
  - { offset: 0x38761F, size: 0x8, addend: 0x0, symName: __ZN11spirv_cross4joinIJRA141_KcEEENSt3__112basic_stringIcNS4_11char_traitsIcEENS4_9allocatorIcEEEEDpOT_, symObjAddr: 0x90414, symBinAddr: 0xED514, symSize: 0x150 }
  - { offset: 0x387944, size: 0x8, addend: 0x0, symName: __ZN11spirv_cross4joinIJRA740_KcEEENSt3__112basic_stringIcNS4_11char_traitsIcEENS4_9allocatorIcEEEEDpOT_, symObjAddr: 0x90564, symBinAddr: 0xED664, symSize: 0x150 }
  - { offset: 0x387C69, size: 0x8, addend: 0x0, symName: __ZN11spirv_cross4joinIJRPKcRA16_S1_S3_RA2_S1_S3_RA8_S1_EEENSt3__112basic_stringIcNSA_11char_traitsIcEENSA_9allocatorIcEEEEDpOT_, symObjAddr: 0x906B4, symBinAddr: 0xED7B4, symSize: 0x194 }
  - { offset: 0x38803A, size: 0x8, addend: 0x0, symName: __ZN11spirv_cross4joinIJRA101_KcEEENSt3__112basic_stringIcNS4_11char_traitsIcEENS4_9allocatorIcEEEEDpOT_, symObjAddr: 0x90A30, symBinAddr: 0xED948, symSize: 0x150 }
  - { offset: 0x38835F, size: 0x8, addend: 0x0, symName: __ZN11spirv_cross4joinIJRPKcRA132_S1_EEENSt3__112basic_stringIcNS6_11char_traitsIcEENS6_9allocatorIcEEEEDpOT_, symObjAddr: 0x90B80, symBinAddr: 0xEDA98, symSize: 0x170 }
  - { offset: 0x388726, size: 0x8, addend: 0x0, symName: __ZN11spirv_cross4joinIJRA288_KcEEENSt3__112basic_stringIcNS4_11char_traitsIcEENS4_9allocatorIcEEEEDpOT_, symObjAddr: 0x90CF0, symBinAddr: 0xEDC08, symSize: 0x150 }
  - { offset: 0x388A4B, size: 0x8, addend: 0x0, symName: __ZN11spirv_cross4joinIJRPKcRA731_S1_EEENSt3__112basic_stringIcNS6_11char_traitsIcEENS6_9allocatorIcEEEEDpOT_, symObjAddr: 0x90E40, symBinAddr: 0xEDD58, symSize: 0x170 }
  - { offset: 0x388E12, size: 0x8, addend: 0x0, symName: __ZN11spirv_cross4joinIJRA2208_KcEEENSt3__112basic_stringIcNS4_11char_traitsIcEENS4_9allocatorIcEEEEDpOT_, symObjAddr: 0x90FB0, symBinAddr: 0xEDEC8, symSize: 0x150 }
  - { offset: 0x389137, size: 0x8, addend: 0x0, symName: __ZN11spirv_cross4joinIJRPKcNSt3__112basic_stringIcNS4_11char_traitsIcEENS4_9allocatorIcEEEEEEESA_DpOT_, symObjAddr: 0x2A394, symBinAddr: 0x8E5C4, symSize: 0x178 }
  - { offset: 0x389616, size: 0x8, addend: 0x0, symName: __ZN11spirv_cross4joinIJcRKNSt3__112basic_stringIcNS1_11char_traitsIcEENS1_9allocatorIcEEEEEEES7_DpOT_, symObjAddr: 0x2AD98, symBinAddr: 0x8EFC8, symSize: 0x170 }
  - { offset: 0x389A0E, size: 0x8, addend: 0x0, symName: __ZN11spirv_cross4joinIJNSt3__112basic_stringIcNS1_11char_traitsIcEENS1_9allocatorIcEEEERA7_KcEEES7_DpOT_, symObjAddr: 0x2AF08, symBinAddr: 0x8F138, symSize: 0x174 }
  - { offset: 0x389E17, size: 0x8, addend: 0x0, symName: __ZN11spirv_cross4joinIJcNSt3__112basic_stringIcNS1_11char_traitsIcEENS1_9allocatorIcEEEEEEES7_DpOT_, symObjAddr: 0x2B2A4, symBinAddr: 0x8F4D4, symSize: 0x170 }
  - { offset: 0x38A20F, size: 0x8, addend: 0x0, symName: __ZN11spirv_cross4joinIJRNSt3__112basic_stringIcNS1_11char_traitsIcEENS1_9allocatorIcEEEERA2_KcRjSB_EEES7_DpOT_, symObjAddr: 0x2BD5C, symBinAddr: 0x8FF8C, symSize: 0x194 }
  - { offset: 0x38A676, size: 0x8, addend: 0x0, symName: __ZN11spirv_cross4joinIJRNSt3__112basic_stringIcNS1_11char_traitsIcEENS1_9allocatorIcEEEERA2_KcPS9_EEES7_DpOT_, symObjAddr: 0x2BEF0, symBinAddr: 0x90120, symSize: 0x194 }
  - { offset: 0x38AB4E, size: 0x8, addend: 0x0, symName: __ZN11spirv_cross4joinIJRKNSt3__112basic_stringIcNS1_11char_traitsIcEENS1_9allocatorIcEEEERA2_KcS7_SC_EEES7_DpOT_, symObjAddr: 0x2CBB8, symBinAddr: 0x90998, symSize: 0x1BC }
  - { offset: 0x38B0DF, size: 0x8, addend: 0x0, symName: __ZN11spirv_cross4joinIJNSt3__112basic_stringIcNS1_11char_traitsIcEENS1_9allocatorIcEEEERPKcRA2_S8_S7_SC_S7_EEES7_DpOT_, symObjAddr: 0x765CC, symBinAddr: 0xDA1B4, symSize: 0x158 }
  - { offset: 0x38B4FD, size: 0x8, addend: 0x0, symName: __ZN11spirv_cross4joinIJNSt3__112basic_stringIcNS1_11char_traitsIcEENS1_9allocatorIcEEEERA4_KcS7_SA_RA2_S8_S7_SA_S7_SC_EEES7_DpOT_, symObjAddr: 0x3017C, symBinAddr: 0x93EB0, symSize: 0x1D8 }
  - { offset: 0x38BB0A, size: 0x8, addend: 0x0, symName: __ZN11spirv_cross4joinIJRNSt3__112basic_stringIcNS1_11char_traitsIcEENS1_9allocatorIcEEEERA2_KcS8_SB_S8_EEES7_DpOT_, symObjAddr: 0x32E5C, symBinAddr: 0x96B90, symSize: 0x1E0 }
  - { offset: 0x38C18B, size: 0x8, addend: 0x0, symName: __ZN11spirv_cross4joinIJRA2_KcRNSt3__112basic_stringIcNS4_11char_traitsIcEENS4_9allocatorIcEEEESA_S3_EEESA_DpOT_, symObjAddr: 0x331D0, symBinAddr: 0x96F04, symSize: 0x1BC }
  - { offset: 0x38C710, size: 0x8, addend: 0x0, symName: __ZN11spirv_cross4joinIJRNSt3__112basic_stringIcNS1_11char_traitsIcEENS1_9allocatorIcEEEERA2_KcS7_SB_EEES7_DpOT_, symObjAddr: 0x334D8, symBinAddr: 0x9720C, symSize: 0x1BC }
  - { offset: 0x38CCA1, size: 0x8, addend: 0x0, symName: __ZN11spirv_cross4joinIJRA2_KcRNSt3__112basic_stringIcNS4_11char_traitsIcEENS4_9allocatorIcEEEES3_SB_S3_SB_S3_EEESA_DpOT_, symObjAddr: 0x3303C, symBinAddr: 0x96D70, symSize: 0x194 }
  - { offset: 0x38D084, size: 0x8, addend: 0x0, symName: __ZN11spirv_cross4joinIJNSt3__112basic_stringIcNS1_11char_traitsIcEENS1_9allocatorIcEEEERA4_KcS7_SA_S7_EEES7_DpOT_, symObjAddr: 0x40044, symBinAddr: 0xA3D78, symSize: 0x1E0 }
  - { offset: 0x38D705, size: 0x8, addend: 0x0, symName: __ZN11spirv_cross4joinIJRA2_KcNSt3__112basic_stringIcNS4_11char_traitsIcEENS4_9allocatorIcEEEES3_EEESA_DpOT_, symObjAddr: 0x4D4F4, symBinAddr: 0xB1228, symSize: 0x198 }
  - { offset: 0x38DBA2, size: 0x8, addend: 0x0, symName: __ZN11spirv_cross4joinIJRA22_KcNSt3__112basic_stringIcNS4_11char_traitsIcEENS4_9allocatorIcEEEERA3_S1_RSA_EEESA_DpOT_, symObjAddr: 0x4DDAC, symBinAddr: 0xB1AE0, symSize: 0x1BC }
  - { offset: 0x38E127, size: 0x8, addend: 0x0, symName: __ZN11spirv_cross4joinIJRA2_KcRNSt3__112basic_stringIcNS4_11char_traitsIcEENS4_9allocatorIcEEEES3_EEESA_DpOT_, symObjAddr: 0x4D6E0, symBinAddr: 0xB1414, symSize: 0x198 }
  - { offset: 0x38E5C4, size: 0x8, addend: 0x0, symName: __ZN11spirv_cross4joinIJRA20_KcNSt3__112basic_stringIcNS4_11char_traitsIcEENS4_9allocatorIcEEEERA3_S1_RSA_EEESA_DpOT_, symObjAddr: 0x4D878, symBinAddr: 0xB15AC, symSize: 0x1BC }
  - { offset: 0x38EB49, size: 0x8, addend: 0x0, symName: __ZN11spirv_cross4joinIJRA2_KcNSt3__112basic_stringIcNS4_11char_traitsIcEENS4_9allocatorIcEEEEEEESA_DpOT_, symObjAddr: 0x4E008, symBinAddr: 0xB1D3C, symSize: 0x174 }
  - { offset: 0x38EF46, size: 0x8, addend: 0x0, symName: __ZN11spirv_cross4joinIJRA7_KcNSt3__112basic_stringIcNS4_11char_traitsIcEENS4_9allocatorIcEEEERA3_S1_RSA_EEESA_DpOT_, symObjAddr: 0x4DA34, symBinAddr: 0xB1768, symSize: 0x1BC }
  - { offset: 0x38F4CB, size: 0x8, addend: 0x0, symName: __ZN11spirv_cross4joinIJRA8_KcNSt3__112basic_stringIcNS4_11char_traitsIcEENS4_9allocatorIcEEEERA3_S1_RSA_EEESA_DpOT_, symObjAddr: 0x4DBF0, symBinAddr: 0xB1924, symSize: 0x1BC }
  - { offset: 0x38FA50, size: 0x8, addend: 0x0, symName: __ZN11spirv_cross4joinIJRA2_KcjS3_EEENSt3__112basic_stringIcNS4_11char_traitsIcEENS4_9allocatorIcEEEEDpOT_, symObjAddr: 0x4E3C0, symBinAddr: 0xB20F4, symSize: 0x170 }
  - { offset: 0x38FDC3, size: 0x8, addend: 0x0, symName: __ZN11spirv_crossL24opcode_is_sign_invariantEN3spv2OpE, symObjAddr: 0x32A9C, symBinAddr: 0x967D0, symSize: 0x40 }
  - { offset: 0x38FDE2, size: 0x8, addend: 0x0, symName: __ZN11spirv_crossL18to_signed_basetypeEj, symObjAddr: 0x32ADC, symBinAddr: 0x96810, symSize: 0x74 }
  - { offset: 0x38FE25, size: 0x8, addend: 0x0, symName: __ZN11spirv_crossL20to_unsigned_basetypeEj, symObjAddr: 0x32B50, symBinAddr: 0x96884, symSize: 0x74 }
  - { offset: 0x38FE68, size: 0x8, addend: 0x0, symName: __ZN11spirv_cross4joinIJNSt3__112basic_stringIcNS1_11char_traitsIcEENS1_9allocatorIcEEEERA12_KcEEES7_DpOT_, symObjAddr: 0x33F6C, symBinAddr: 0x97CA0, symSize: 0x174 }
  - { offset: 0x390271, size: 0x8, addend: 0x0, symName: __ZN11spirv_cross4joinIJNSt3__112basic_stringIcNS1_11char_traitsIcEENS1_9allocatorIcEEEERA13_KcEEES7_DpOT_, symObjAddr: 0x340E0, symBinAddr: 0x97E14, symSize: 0x174 }
  - { offset: 0x39067A, size: 0x8, addend: 0x0, symName: __ZN11spirv_cross17convert_to_stringEfc, symObjAddr: 0x77F4C, symBinAddr: 0xDBB34, symSize: 0x15C }
  - { offset: 0x390A3A, size: 0x8, addend: 0x0, symName: __ZN11spirv_cross4joinIJNSt3__112basic_stringIcNS1_11char_traitsIcEENS1_9allocatorIcEEEERA2_KcS7_SA_EEES7_DpOT_, symObjAddr: 0x34254, symBinAddr: 0x97F88, symSize: 0x1BC }
  - { offset: 0x390FCB, size: 0x8, addend: 0x0, symName: __ZN11spirv_cross4joinIJNSt3__112basic_stringIcNS1_11char_traitsIcEENS1_9allocatorIcEEEERA2_KcRA32_cRA5_S8_RPS8_SE_EEES7_DpOT_, symObjAddr: 0x349C0, symBinAddr: 0x986F4, symSize: 0x198 }
  - { offset: 0x3913DE, size: 0x8, addend: 0x0, symName: __ZN11spirv_cross4joinIJNSt3__112basic_stringIcNS1_11char_traitsIcEENS1_9allocatorIcEEEERA2_KcRA64_cRA5_S8_RPS8_SE_EEES7_DpOT_, symObjAddr: 0x35220, symBinAddr: 0x98F54, symSize: 0x198 }
  - { offset: 0x3917F1, size: 0x8, addend: 0x0, symName: __ZN11spirv_cross17convert_to_stringEdc, symObjAddr: 0x780A8, symBinAddr: 0xDBC90, symSize: 0x158 }
  - { offset: 0x391CD8, size: 0x8, addend: 0x0, symName: __ZN11spirv_cross4joinIJRKNSt3__112basic_stringIcNS1_11char_traitsIcEENS1_9allocatorIcEEEERA21_KcPSA_RA2_SA_EEES7_DpOT_, symObjAddr: 0x7B248, symBinAddr: 0xDBE00, symSize: 0x1B8 }
  - { offset: 0x39222D, size: 0x8, addend: 0x0, symName: __ZN11spirv_cross4joinIJNSt3__112basic_stringIcNS1_11char_traitsIcEENS1_9allocatorIcEEEES7_RS7_RA2_KcEEES7_DpOT_, symObjAddr: 0x93298, symBinAddr: 0xEE498, symSize: 0x1C4 }
  - { offset: 0x3927FE, size: 0x8, addend: 0x0, symName: __ZN11spirv_cross4joinIJNSt3__112basic_stringIcNS1_11char_traitsIcEENS1_9allocatorIcEEEES7_RA4_KcEEES7_DpOT_, symObjAddr: 0x3843C, symBinAddr: 0x9C170, symSize: 0x198 }
  - { offset: 0x392CE7, size: 0x8, addend: 0x0, symName: __ZN11spirv_cross4joinIJNSt3__112basic_stringIcNS1_11char_traitsIcEENS1_9allocatorIcEEEERKS7_RA2_KcEEES7_DpOT_, symObjAddr: 0x93670, symBinAddr: 0xEE7E8, symSize: 0x198 }
  - { offset: 0x3931F7, size: 0x8, addend: 0x0, symName: __ZN11spirv_cross4joinIJNSt3__112basic_stringIcNS1_11char_traitsIcEENS1_9allocatorIcEEEERA2_KcRPS8_S7_SA_EEES7_DpOT_, symObjAddr: 0x38C60, symBinAddr: 0x9C994, symSize: 0x1DC }
  - { offset: 0x39383C, size: 0x8, addend: 0x0, symName: __ZN11spirv_cross4joinIJRA18_KcNSt3__112basic_stringIcNS4_11char_traitsIcEENS4_9allocatorIcEEEERA3_S1_SA_SC_SA_SC_EEESA_DpOT_, symObjAddr: 0x93808, symBinAddr: 0xEE980, symSize: 0x194 }
  - { offset: 0x393C1F, size: 0x8, addend: 0x0, symName: __ZN11spirv_cross4joinIJNSt3__112basic_stringIcNS1_11char_traitsIcEENS1_9allocatorIcEEEERA2_KcRPS8_SA_S7_EEES7_DpOT_, symObjAddr: 0x39320, symBinAddr: 0x9D054, symSize: 0x1DC }
  - { offset: 0x394264, size: 0x8, addend: 0x0, symName: __ZN11spirv_cross4joinIJRA33_KcNSt3__112basic_stringIcNS4_11char_traitsIcEENS4_9allocatorIcEEEERA3_S1_EEESA_DpOT_, symObjAddr: 0x39E54, symBinAddr: 0x9DB88, symSize: 0x198 }
  - { offset: 0x394701, size: 0x8, addend: 0x0, symName: __ZN11spirv_cross4joinIJRA31_KcNSt3__112basic_stringIcNS4_11char_traitsIcEENS4_9allocatorIcEEEERA3_S1_EEESA_DpOT_, symObjAddr: 0x39FEC, symBinAddr: 0x9DD20, symSize: 0x198 }
  - { offset: 0x394B9E, size: 0x8, addend: 0x0, symName: __ZN11spirv_cross4joinIJRNSt3__112basic_stringIcNS1_11char_traitsIcEENS1_9allocatorIcEEEERA2_KcRPS9_SB_S8_EEES7_DpOT_, symObjAddr: 0x3A5A0, symBinAddr: 0x9E2D4, symSize: 0x1DC }
  - { offset: 0x3951E3, size: 0x8, addend: 0x0, symName: __ZN11spirv_cross4joinIJNSt3__112basic_stringIcNS1_11char_traitsIcEENS1_9allocatorIcEEEEcRS7_cEEES7_DpOT_, symObjAddr: 0x3A77C, symBinAddr: 0x9E4B0, symSize: 0x1B8 }
  - { offset: 0x395756, size: 0x8, addend: 0x0, symName: __ZN11spirv_cross4joinIJRPKcRA2_S1_NSt3__112basic_stringIcNS6_11char_traitsIcEENS6_9allocatorIcEEEES5_EEESC_DpOT_, symObjAddr: 0x3AA5C, symBinAddr: 0x9E790, symSize: 0x1B8 }
  - { offset: 0x395CA5, size: 0x8, addend: 0x0, symName: __ZN11spirv_cross4joinIJRPKcRA2_S1_NSt3__112basic_stringIcNS6_11char_traitsIcEENS6_9allocatorIcEEEERA3_S1_SC_S5_EEESC_DpOT_, symObjAddr: 0x3ADEC, symBinAddr: 0x9EB20, symSize: 0x158 }
  - { offset: 0x395FCE, size: 0x8, addend: 0x0, symName: __ZN11spirv_cross4joinIJRPKcRA2_S1_NSt3__112basic_stringIcNS6_11char_traitsIcEENS6_9allocatorIcEEEERA3_S1_SC_SE_SC_S5_EEESC_DpOT_, symObjAddr: 0x3B3EC, symBinAddr: 0x9F120, symSize: 0x1BC }
  - { offset: 0x396483, size: 0x8, addend: 0x0, symName: __ZN11spirv_cross4joinIJRPKcRA2_S1_RNSt3__112basic_stringIcNS6_11char_traitsIcEENS6_9allocatorIcEEEES5_EEESC_DpOT_, symObjAddr: 0x3BA80, symBinAddr: 0x9F7B4, symSize: 0x1B8 }
  - { offset: 0x3969D2, size: 0x8, addend: 0x0, symName: __ZN11spirv_cross4joinIJRPKcRA2_S1_RNSt3__112basic_stringIcNS6_11char_traitsIcEENS6_9allocatorIcEEEERA3_S1_SD_SF_SD_S5_EEESC_DpOT_, symObjAddr: 0x3C2DC, symBinAddr: 0xA0010, symSize: 0x1BC }
  - { offset: 0x396E87, size: 0x8, addend: 0x0, symName: __ZN11spirv_cross4joinIJRPKcRA2_S1_RNSt3__112basic_stringIcNS6_11char_traitsIcEENS6_9allocatorIcEEEERA3_S1_SC_S5_EEESC_DpOT_, symObjAddr: 0x3CDF8, symBinAddr: 0xA0B2C, symSize: 0x158 }
  - { offset: 0x3971B0, size: 0x8, addend: 0x0, symName: __ZN11spirv_cross4joinIJRPKcRA2_S1_RNSt3__112basic_stringIcNS6_11char_traitsIcEENS6_9allocatorIcEEEERA3_S1_SD_S5_EEESC_DpOT_, symObjAddr: 0x3D328, symBinAddr: 0xA105C, symSize: 0x158 }
  - { offset: 0x3974D9, size: 0x8, addend: 0x0, symName: __ZN11spirv_cross4joinIJRPKcRA2_S1_NSt3__112basic_stringIcNS6_11char_traitsIcEENS6_9allocatorIcEEEERA3_S1_SC_SE_SC_SE_SC_S5_EEESC_DpOT_, symObjAddr: 0x3D984, symBinAddr: 0xA16B8, symSize: 0x1E8 }
  - { offset: 0x397B88, size: 0x8, addend: 0x0, symName: __ZN11spirv_cross4joinIJRPKcRA2_S1_RNSt3__112basic_stringIcNS6_11char_traitsIcEENS6_9allocatorIcEEEERA3_S1_SD_SF_SD_SF_SD_S5_EEESC_DpOT_, symObjAddr: 0x3E0D8, symBinAddr: 0xA1E0C, symSize: 0x1E8 }
  - { offset: 0x398237, size: 0x8, addend: 0x0, symName: __ZN11spirv_cross4joinIJRNSt3__112basic_stringIcNS1_11char_traitsIcEENS1_9allocatorIcEEEERPKcRA10_S9_EEES7_DpOT_, symObjAddr: 0x3F8C8, symBinAddr: 0xA35FC, symSize: 0x194 }
  - { offset: 0x3986E2, size: 0x8, addend: 0x0, symName: __ZN11spirv_cross4joinIJRNSt3__112basic_stringIcNS1_11char_traitsIcEENS1_9allocatorIcEEEERPKcSA_EEES7_DpOT_, symObjAddr: 0x3F730, symBinAddr: 0xA3464, symSize: 0x198 }
  - { offset: 0x398B91, size: 0x8, addend: 0x0, symName: __ZN11spirv_cross4joinIJRNSt3__112basic_stringIcNS1_11char_traitsIcEENS1_9allocatorIcEEEERPKcRA14_S9_EEES7_DpOT_, symObjAddr: 0x3FA5C, symBinAddr: 0xA3790, symSize: 0x194 }
  - { offset: 0x39903C, size: 0x8, addend: 0x0, symName: __ZN11spirv_cross4joinIJRNSt3__112basic_stringIcNS1_11char_traitsIcEENS1_9allocatorIcEEEERPKcRA4_S9_EEES7_DpOT_, symObjAddr: 0x3F424, symBinAddr: 0xA3158, symSize: 0x194 }
  - { offset: 0x3994E7, size: 0x8, addend: 0x0, symName: __ZN11spirv_cross4joinIJRA12_KcRPS1_EEENSt3__112basic_stringIcNS6_11char_traitsIcEENS6_9allocatorIcEEEEDpOT_, symObjAddr: 0x3FBF0, symBinAddr: 0xA3924, symSize: 0x170 }
  - { offset: 0x3998A6, size: 0x8, addend: 0x0, symName: __ZN11spirv_cross4joinIJRNSt3__112basic_stringIcNS1_11char_traitsIcEENS1_9allocatorIcEEEERPKcEEES7_DpOT_, symObjAddr: 0x3F5B8, symBinAddr: 0xA32EC, symSize: 0x178 }
  - { offset: 0x399CB1, size: 0x8, addend: 0x0, symName: __ZN11spirv_cross4joinIJRA11_KcRPS1_EEENSt3__112basic_stringIcNS6_11char_traitsIcEENS6_9allocatorIcEEEEDpOT_, symObjAddr: 0x3FD60, symBinAddr: 0xA3A94, symSize: 0x170 }
  - { offset: 0x39A070, size: 0x8, addend: 0x0, symName: __ZN11spirv_cross4joinIJRKNSt3__112basic_stringIcNS1_11char_traitsIcEENS1_9allocatorIcEEEERA44_KcEEES7_DpOT_, symObjAddr: 0x3F2B0, symBinAddr: 0xA2FE4, symSize: 0x174 }
  - { offset: 0x39A479, size: 0x8, addend: 0x0, symName: __ZN11spirv_cross4joinIJRKNSt3__112basic_stringIcNS1_11char_traitsIcEENS1_9allocatorIcEEEERA26_KcEEES7_DpOT_, symObjAddr: 0x3F13C, symBinAddr: 0xA2E70, symSize: 0x174 }
  - { offset: 0x39A882, size: 0x8, addend: 0x0, symName: __ZN11spirv_cross4joinIJRA32_KcRKNSt3__112basic_stringIcNS4_11char_traitsIcEENS4_9allocatorIcEEEEEEESA_DpOT_, symObjAddr: 0x3FED0, symBinAddr: 0xA3C04, symSize: 0x174 }
  - { offset: 0x39AC7F, size: 0x8, addend: 0x0, symName: __ZN11spirv_cross4joinIJNSt3__112basic_stringIcNS1_11char_traitsIcEENS1_9allocatorIcEEEERA2_KcS7_RA3_S8_S7_SA_EEES7_DpOT_, symObjAddr: 0x414C0, symBinAddr: 0xA51F4, symSize: 0x158 }
  - { offset: 0x39AFA8, size: 0x8, addend: 0x0, symName: __ZN11spirv_cross4joinIJNSt3__112basic_stringIcNS1_11char_traitsIcEENS1_9allocatorIcEEEERA4_KcRS7_RA2_S8_EEES7_DpOT_, symObjAddr: 0x94024, symBinAddr: 0xEEBFC, symSize: 0x1BC }
  - { offset: 0x39B560, size: 0x8, addend: 0x0, symName: __ZN11spirv_cross4joinIJRA6_KcRNSt3__112basic_stringIcNS4_11char_traitsIcEENS4_9allocatorIcEEEERA7_S1_EEESA_DpOT_, symObjAddr: 0x445F0, symBinAddr: 0xA8324, symSize: 0x198 }
  - { offset: 0x39B9FD, size: 0x8, addend: 0x0, symName: __ZN11spirv_cross4joinIJRA7_KcNSt3__112basic_stringIcNS4_11char_traitsIcEENS4_9allocatorIcEEEERA8_S1_SA_RA4_S1_EEESA_DpOT_, symObjAddr: 0x44788, symBinAddr: 0xA84BC, symSize: 0x1E0 }
  - { offset: 0x39C032, size: 0x8, addend: 0x0, symName: __ZN11spirv_cross4joinIJRA6_KcNSt3__112basic_stringIcNS4_11char_traitsIcEENS4_9allocatorIcEEEERA10_S1_SA_RA4_S1_EEESA_DpOT_, symObjAddr: 0x44410, symBinAddr: 0xA8144, symSize: 0x1E0 }
  - { offset: 0x39C667, size: 0x8, addend: 0x0, symName: __ZN11spirv_cross4joinIJRA7_KcRNSt3__112basic_stringIcNS4_11char_traitsIcEENS4_9allocatorIcEEEERA5_S1_EEESA_DpOT_, symObjAddr: 0x44968, symBinAddr: 0xA869C, symSize: 0x198 }
  - { offset: 0x39CB04, size: 0x8, addend: 0x0, symName: __ZN11spirv_cross4joinIJRA7_KcRNSt3__112basic_stringIcNS4_11char_traitsIcEENS4_9allocatorIcEEEERA4_S1_SA_S3_EEESA_DpOT_, symObjAddr: 0x475A0, symBinAddr: 0xAB2D4, symSize: 0x1E0 }
  - { offset: 0x39D139, size: 0x8, addend: 0x0, symName: __ZN11spirv_cross4joinIJNSt3__112basic_stringIcNS1_11char_traitsIcEENS1_9allocatorIcEEEERA2_KcS7_SA_RS7_RA3_S8_EEES7_DpOT_, symObjAddr: 0x47780, symBinAddr: 0xAB4B4, symSize: 0x158 }
  - { offset: 0x39D462, size: 0x8, addend: 0x0, symName: __ZN11spirv_cross4joinIJRA6_KcNSt3__112basic_stringIcNS4_11char_traitsIcEENS4_9allocatorIcEEEERA10_S1_SA_RA9_S1_EEESA_DpOT_, symObjAddr: 0x480E8, symBinAddr: 0xABE1C, symSize: 0x1E0 }
  - { offset: 0x39DA97, size: 0x8, addend: 0x0, symName: __ZN11spirv_cross4joinIJRA5_KcNSt3__112basic_stringIcNS4_11char_traitsIcEENS4_9allocatorIcEEEERA2_S1_EEESA_DpOT_, symObjAddr: 0x482C8, symBinAddr: 0xABFFC, symSize: 0x198 }
  - { offset: 0x39DF34, size: 0x8, addend: 0x0, symName: __ZN11spirv_cross4joinIJRA6_KcNSt3__112basic_stringIcNS4_11char_traitsIcEENS4_9allocatorIcEEEERA2_S1_EEESA_DpOT_, symObjAddr: 0x48460, symBinAddr: 0xAC194, symSize: 0x198 }
  - { offset: 0x39E3D1, size: 0x8, addend: 0x0, symName: __ZN11spirv_cross4joinIJRA2_KcNSt3__112basic_stringIcNS4_11char_traitsIcEENS4_9allocatorIcEEEERA4_S1_SA_RA6_S1_SA_SC_SA_S3_EEESA_DpOT_, symObjAddr: 0x485F8, symBinAddr: 0xAC32C, symSize: 0x1D0 }
  - { offset: 0x39E994, size: 0x8, addend: 0x0, symName: __ZN11spirv_cross4joinIJRA7_KcRNSt3__112basic_stringIcNS4_11char_traitsIcEENS4_9allocatorIcEEEERA3_S1_SB_RA2_S1_EEESA_DpOT_, symObjAddr: 0x48F8C, symBinAddr: 0xACCC0, symSize: 0x1E0 }
  - { offset: 0x39EFC9, size: 0x8, addend: 0x0, symName: __ZN11spirv_cross4joinIJNSt3__112basic_stringIcNS1_11char_traitsIcEENS1_9allocatorIcEEEERA4_KcS7_RA2_S8_S7_SC_S7_SA_EEES7_DpOT_, symObjAddr: 0x94428, symBinAddr: 0xEEE40, symSize: 0x1B8 }
  - { offset: 0x39F4C0, size: 0x8, addend: 0x0, symName: __ZN11spirv_cross4joinIJNSt3__112basic_stringIcNS1_11char_traitsIcEENS1_9allocatorIcEEEERA2_KcS7_RA4_S8_RA6_S8_S7_RA3_S8_S7_SA_S7_SG_EEES7_DpOT_, symObjAddr: 0x947F0, symBinAddr: 0xEEFF8, symSize: 0x174 }
  - { offset: 0x39F84F, size: 0x8, addend: 0x0, symName: __ZN11spirv_cross4joinIJNSt3__112basic_stringIcNS1_11char_traitsIcEENS1_9allocatorIcEEEERA2_KcS7_RA4_S8_S7_SA_S7_SA_S7_SC_EEES7_DpOT_, symObjAddr: 0x94C78, symBinAddr: 0xEF270, symSize: 0x1EC }
  - { offset: 0x39FF3E, size: 0x8, addend: 0x0, symName: __ZN11spirv_cross4joinIJNSt3__112basic_stringIcNS1_11char_traitsIcEENS1_9allocatorIcEEEERA2_KcS7_RA4_S8_S7_SC_S7_SA_S7_SA_EEES7_DpOT_, symObjAddr: 0x94E64, symBinAddr: 0xEF45C, symSize: 0x1EC }
  - { offset: 0x3A062D, size: 0x8, addend: 0x0, symName: __ZN11spirv_cross4joinIJRA6_KcRPS1_RA4_S1_NSt3__112basic_stringIcNS8_11char_traitsIcEENS8_9allocatorIcEEEES3_S5_S7_SE_RA9_S1_S4_EEESE_DpOT_, symObjAddr: 0x49914, symBinAddr: 0xAD648, symSize: 0x16C }
  - { offset: 0x3A09A8, size: 0x8, addend: 0x0, symName: __ZN11spirv_cross4joinIJRA5_KcNSt3__112basic_stringIcNS4_11char_traitsIcEENS4_9allocatorIcEEEERA9_S1_SA_RA4_S1_SA_SE_RPS1_RA3_S1_EEESA_DpOT_, symObjAddr: 0x49728, symBinAddr: 0xAD45C, symSize: 0x1EC }
  - { offset: 0x3A1051, size: 0x8, addend: 0x0, symName: __ZN11spirv_cross4joinIJNSt3__112basic_stringIcNS1_11char_traitsIcEENS1_9allocatorIcEEEERA2_KcS7_RA4_S8_RA7_S8_S7_RA3_S8_S7_SA_S7_SG_EEES7_DpOT_, symObjAddr: 0x95340, symBinAddr: 0xEF648, symSize: 0x174 }
  - { offset: 0x3A142A, size: 0x8, addend: 0x0, symName: __ZN11spirv_cross4joinIJRA43_KcRjEEENSt3__112basic_stringIcNS5_11char_traitsIcEENS5_9allocatorIcEEEEDpOT_, symObjAddr: 0x9583C, symBinAddr: 0xEFA40, symSize: 0x148 }
  - { offset: 0x3A16FF, size: 0x8, addend: 0x0, symName: __ZN11spirv_cross4joinIJRA62_KcRjEEENSt3__112basic_stringIcNS5_11char_traitsIcEENS5_9allocatorIcEEEEDpOT_, symObjAddr: 0x95A2C, symBinAddr: 0xEFC30, symSize: 0x148 }
  - { offset: 0x3A19D4, size: 0x8, addend: 0x0, symName: __ZN11spirv_cross4joinIJRA51_KcRjEEENSt3__112basic_stringIcNS5_11char_traitsIcEENS5_9allocatorIcEEEEDpOT_, symObjAddr: 0x95C1C, symBinAddr: 0xEFE20, symSize: 0x148 }
  - { offset: 0x3A1CA9, size: 0x8, addend: 0x0, symName: __ZN11spirv_cross4joinIJRA40_KcRjEEENSt3__112basic_stringIcNS5_11char_traitsIcEENS5_9allocatorIcEEEEDpOT_, symObjAddr: 0x95E0C, symBinAddr: 0xF0010, symSize: 0x148 }
  - { offset: 0x3A1FC8, size: 0x8, addend: 0x0, symName: __ZN11spirv_cross4joinIJRA12_KcNSt3__112basic_stringIcNS4_11char_traitsIcEENS4_9allocatorIcEEEEEEESA_DpOT_, symObjAddr: 0x4CE40, symBinAddr: 0xB0B74, symSize: 0x174 }
  - { offset: 0x3A23C5, size: 0x8, addend: 0x0, symName: __ZN11spirv_cross4joinIJRKNSt3__112basic_stringIcNS1_11char_traitsIcEENS1_9allocatorIcEEEERA2_KcS7_EEES7_DpOT_, symObjAddr: 0x4E5D4, symBinAddr: 0xB2308, symSize: 0x198 }
  - { offset: 0x3A28AE, size: 0x8, addend: 0x0, symName: __ZN11spirv_cross4joinIJRNSt3__112basic_stringIcNS1_11char_traitsIcEENS1_9allocatorIcEEEERA2_KcS8_EEES7_DpOT_, symObjAddr: 0x4F7F4, symBinAddr: 0xB3528, symSize: 0x198 }
  - { offset: 0x3A2D97, size: 0x8, addend: 0x0, symName: __ZN11spirv_cross4joinIJRNSt3__112basic_stringIcNS1_11char_traitsIcEENS1_9allocatorIcEEEERA4_KcS8_RA2_S9_EEES7_DpOT_, symObjAddr: 0x96354, symBinAddr: 0xF0558, symSize: 0x1BC }
  - { offset: 0x3A3328, size: 0x8, addend: 0x0, symName: __ZN11spirv_cross4joinIJRKNSt3__112basic_stringIcNS1_11char_traitsIcEENS1_9allocatorIcEEEERcSA_RA2_KcEEES7_DpOT_, symObjAddr: 0x96598, symBinAddr: 0xF0714, symSize: 0x1B0 }
  - { offset: 0x3A385B, size: 0x8, addend: 0x0, symName: __ZN11spirv_cross4joinIJRKNSt3__112basic_stringIcNS1_11char_traitsIcEENS1_9allocatorIcEEEERA2_KcRcRA3_SA_RS7_SC_EEES7_DpOT_, symObjAddr: 0x96748, symBinAddr: 0xF08C4, symSize: 0x158 }
  - { offset: 0x3A3BF1, size: 0x8, addend: 0x0, symName: __ZN11spirv_cross4joinIJRA23_KcNSt3__112basic_stringIcNS4_11char_traitsIcEENS4_9allocatorIcEEEERA2_S1_EEESA_DpOT_, symObjAddr: 0x6679C, symBinAddr: 0xCA43C, symSize: 0x198 }
  - { offset: 0x3A408E, size: 0x8, addend: 0x0, symName: __ZN11spirv_cross4joinIJRA5_KcRPS1_RA2_S1_NSt3__112basic_stringIcNS8_11char_traitsIcEENS8_9allocatorIcEEEERA3_S1_SE_SG_EEESE_DpOT_, symObjAddr: 0x654FC, symBinAddr: 0xC919C, symSize: 0x194 }
  - { offset: 0x3A4471, size: 0x8, addend: 0x0, symName: __ZN11spirv_cross4joinIJRA3_KcNSt3__112basic_stringIcNS4_11char_traitsIcEENS4_9allocatorIcEEEERPS1_SA_RA2_S1_EEESA_DpOT_, symObjAddr: 0x65690, symBinAddr: 0xC9330, symSize: 0x1E4 }
  - { offset: 0x3A4AAA, size: 0x8, addend: 0x0, symName: __ZN11spirv_cross4joinIJNSt3__112basic_stringIcNS1_11char_traitsIcEENS1_9allocatorIcEEEERA4_KcS7_EEES7_DpOT_, symObjAddr: 0x613A4, symBinAddr: 0xC5044, symSize: 0x198 }
  - { offset: 0x3A4F93, size: 0x8, addend: 0x0, symName: __ZN11spirv_cross4joinIJRA43_KcNSt3__112basic_stringIcNS4_11char_traitsIcEENS4_9allocatorIcEEEERA3_S1_RA6_S1_SA_SC_EEESA_DpOT_, symObjAddr: 0x67D04, symBinAddr: 0xCB9A4, symSize: 0x158 }
  - { offset: 0x3A52BC, size: 0x8, addend: 0x0, symName: __ZN11spirv_cross4joinIJRA40_KcNSt3__112basic_stringIcNS4_11char_traitsIcEENS4_9allocatorIcEEEERA3_S1_RA6_S1_SA_SC_EEESA_DpOT_, symObjAddr: 0x678FC, symBinAddr: 0xCB59C, symSize: 0x158 }
  - { offset: 0x3A55E5, size: 0x8, addend: 0x0, symName: __ZN11spirv_cross4joinIJRA42_KcNSt3__112basic_stringIcNS4_11char_traitsIcEENS4_9allocatorIcEEEERA3_S1_RA6_S1_SA_SC_EEESA_DpOT_, symObjAddr: 0x677A4, symBinAddr: 0xCB444, symSize: 0x158 }
  - { offset: 0x3A590E, size: 0x8, addend: 0x0, symName: __ZN11spirv_cross4joinIJRA46_KcNSt3__112basic_stringIcNS4_11char_traitsIcEENS4_9allocatorIcEEEERA3_S1_RA6_S1_SA_SC_EEESA_DpOT_, symObjAddr: 0x67BAC, symBinAddr: 0xCB84C, symSize: 0x158 }
  - { offset: 0x3A5C37, size: 0x8, addend: 0x0, symName: __ZN11spirv_cross4joinIJRA66_KcNSt3__112basic_stringIcNS4_11char_traitsIcEENS4_9allocatorIcEEEERA3_S1_RA6_S1_SA_SC_EEESA_DpOT_, symObjAddr: 0x674F4, symBinAddr: 0xCB194, symSize: 0x158 }
  - { offset: 0x3A5F60, size: 0x8, addend: 0x0, symName: __ZN11spirv_cross4joinIJRA41_KcNSt3__112basic_stringIcNS4_11char_traitsIcEENS4_9allocatorIcEEEERA3_S1_RA6_S1_SA_SC_EEESA_DpOT_, symObjAddr: 0x6764C, symBinAddr: 0xCB2EC, symSize: 0x158 }
  - { offset: 0x3A6289, size: 0x8, addend: 0x0, symName: __ZN11spirv_cross4joinIJRA24_KcNSt3__112basic_stringIcNS4_11char_traitsIcEENS4_9allocatorIcEEEERA2_S1_EEESA_DpOT_, symObjAddr: 0x66934, symBinAddr: 0xCA5D4, symSize: 0x198 }
  - { offset: 0x3A6726, size: 0x8, addend: 0x0, symName: __ZN11spirv_cross4joinIJRA38_KcNSt3__112basic_stringIcNS4_11char_traitsIcEENS4_9allocatorIcEEEERA3_S1_RA6_S1_SA_SC_EEESA_DpOT_, symObjAddr: 0x6739C, symBinAddr: 0xCB03C, symSize: 0x158 }
  - { offset: 0x3A6A4F, size: 0x8, addend: 0x0, symName: __ZN11spirv_cross4joinIJRA30_KcNSt3__112basic_stringIcNS4_11char_traitsIcEENS4_9allocatorIcEEEERA2_S1_EEESA_DpOT_, symObjAddr: 0x66ACC, symBinAddr: 0xCA76C, symSize: 0x198 }
  - { offset: 0x3A6EEC, size: 0x8, addend: 0x0, symName: __ZN11spirv_cross4joinIJRA47_KcNSt3__112basic_stringIcNS4_11char_traitsIcEENS4_9allocatorIcEEEERA2_S1_EEESA_DpOT_, symObjAddr: 0x66DFC, symBinAddr: 0xCAA9C, symSize: 0x198 }
  - { offset: 0x3A7389, size: 0x8, addend: 0x0, symName: __ZN11spirv_cross4joinIJRA47_KcNSt3__112basic_stringIcNS4_11char_traitsIcEENS4_9allocatorIcEEEERA3_S1_RA6_S1_SA_SC_EEESA_DpOT_, symObjAddr: 0x67244, symBinAddr: 0xCAEE4, symSize: 0x158 }
  - { offset: 0x3A76B2, size: 0x8, addend: 0x0, symName: __ZN11spirv_cross4joinIJRA29_KcNSt3__112basic_stringIcNS4_11char_traitsIcEENS4_9allocatorIcEEEERA3_S1_RA6_S1_SA_SC_EEESA_DpOT_, symObjAddr: 0x670EC, symBinAddr: 0xCAD8C, symSize: 0x158 }
  - { offset: 0x3A79DB, size: 0x8, addend: 0x0, symName: __ZN11spirv_cross4joinIJRA37_KcNSt3__112basic_stringIcNS4_11char_traitsIcEENS4_9allocatorIcEEEERA3_S1_RA6_S1_SA_SC_EEESA_DpOT_, symObjAddr: 0x67A54, symBinAddr: 0xCB6F4, symSize: 0x158 }
  - { offset: 0x3A7D04, size: 0x8, addend: 0x0, symName: __ZN11spirv_cross4joinIJRA33_KcNSt3__112basic_stringIcNS4_11char_traitsIcEENS4_9allocatorIcEEEERA2_S1_EEESA_DpOT_, symObjAddr: 0x66C64, symBinAddr: 0xCA904, symSize: 0x198 }
  - { offset: 0x3A81A1, size: 0x8, addend: 0x0, symName: __ZN11spirv_cross4joinIJRA5_KcRNSt3__112basic_stringIcNS4_11char_traitsIcEENS4_9allocatorIcEEEERA2_S1_EEESA_DpOT_, symObjAddr: 0x62B14, symBinAddr: 0xC67B4, symSize: 0x198 }
  - { offset: 0x3A863E, size: 0x8, addend: 0x0, symName: __ZN11spirv_cross4joinIJRA14_KcNSt3__112basic_stringIcNS4_11char_traitsIcEENS4_9allocatorIcEEEERA2_S1_EEESA_DpOT_, symObjAddr: 0x6311C, symBinAddr: 0xC6DBC, symSize: 0x198 }
  - { offset: 0x3A8ADB, size: 0x8, addend: 0x0, symName: __ZN11spirv_cross4joinIJRPKcRA2_S1_NSt3__112basic_stringIcNS6_11char_traitsIcEENS6_9allocatorIcEEEERA3_S1_S3_S5_EEESC_DpOT_, symObjAddr: 0x625E4, symBinAddr: 0xC6284, symSize: 0x194 }
  - { offset: 0x3A8EAC, size: 0x8, addend: 0x0, symName: __ZN11spirv_cross4joinIJNSt3__112basic_stringIcNS1_11char_traitsIcEENS1_9allocatorIcEEEERA2_KcRS7_RA11_S8_EEES7_DpOT_, symObjAddr: 0x6005C, symBinAddr: 0xC3CFC, symSize: 0x1BC }
  - { offset: 0x3A943D, size: 0x8, addend: 0x0, symName: __ZN11spirv_cross4joinIJNSt3__112basic_stringIcNS1_11char_traitsIcEENS1_9allocatorIcEEEERA3_KcRS7_EEES7_DpOT_, symObjAddr: 0x64514, symBinAddr: 0xC81B4, symSize: 0x198 }
  - { offset: 0x3A9926, size: 0x8, addend: 0x0, symName: __ZN11spirv_cross4joinIJRA20_KcNSt3__112basic_stringIcNS4_11char_traitsIcEENS4_9allocatorIcEEEERA2_S1_EEESA_DpOT_, symObjAddr: 0x62F84, symBinAddr: 0xC6C24, symSize: 0x198 }
  - { offset: 0x3A9DC3, size: 0x8, addend: 0x0, symName: __ZN11spirv_cross4joinIJRA29_KcNSt3__112basic_stringIcNS4_11char_traitsIcEENS4_9allocatorIcEEEERA3_S1_EEESA_DpOT_, symObjAddr: 0x61E14, symBinAddr: 0xC5AB4, symSize: 0x198 }
  - { offset: 0x3AA260, size: 0x8, addend: 0x0, symName: __ZN11spirv_cross4joinIJRPKcRA2_S1_NSt3__112basic_stringIcNS6_11char_traitsIcEENS6_9allocatorIcEEEERA4_S1_SC_S5_EEESC_DpOT_, symObjAddr: 0x628B8, symBinAddr: 0xC6558, symSize: 0x158 }
  - { offset: 0x3AA589, size: 0x8, addend: 0x0, symName: __ZN11spirv_cross4joinIJRNSt3__112basic_stringIcNS1_11char_traitsIcEENS1_9allocatorIcEEEERA18_KcS8_RA5_S9_S8_EEES7_DpOT_, symObjAddr: 0x611C4, symBinAddr: 0xC4E64, symSize: 0x1E0 }
  - { offset: 0x3AAC0A, size: 0x8, addend: 0x0, symName: __ZN11spirv_cross4joinIJRA32_KcNSt3__112basic_stringIcNS4_11char_traitsIcEENS4_9allocatorIcEEEERA3_S1_RA6_S1_SA_SC_EEESA_DpOT_, symObjAddr: 0x66F94, symBinAddr: 0xCAC34, symSize: 0x158 }
  - { offset: 0x3AAF33, size: 0x8, addend: 0x0, symName: __ZN11spirv_cross4joinIJNSt3__112basic_stringIcNS1_11char_traitsIcEENS1_9allocatorIcEEEEEEES7_DpOT_, symObjAddr: 0x653A4, symBinAddr: 0xC9044, symSize: 0x158 }
  - { offset: 0x3AB2A4, size: 0x8, addend: 0x0, symName: __ZN11spirv_cross4joinIJRA26_KcNSt3__112basic_stringIcNS4_11char_traitsIcEENS4_9allocatorIcEEEERA2_S1_EEESA_DpOT_, symObjAddr: 0x67E5C, symBinAddr: 0xCBAFC, symSize: 0x198 }
  - { offset: 0x3AB741, size: 0x8, addend: 0x0, symName: __ZN11spirv_cross4joinIJRA13_KcNSt3__112basic_stringIcNS4_11char_traitsIcEENS4_9allocatorIcEEEERA3_S1_SA_RA2_S1_EEESA_DpOT_, symObjAddr: 0x63718, symBinAddr: 0xC73B8, symSize: 0x1E0 }
  - { offset: 0x3ABD76, size: 0x8, addend: 0x0, symName: __ZN11spirv_cross4joinIJNSt3__112basic_stringIcNS1_11char_traitsIcEENS1_9allocatorIcEEEERA4_KcS7_SA_S7_RA2_S8_S7_SC_S7_SA_S7_RA3_S8_EEES7_DpOT_, symObjAddr: 0x61AC8, symBinAddr: 0xC5768, symSize: 0x1B4 }
  - { offset: 0x3AC239, size: 0x8, addend: 0x0, symName: __ZN11spirv_cross4joinIJNSt3__112basic_stringIcNS1_11char_traitsIcEENS1_9allocatorIcEEEERA4_KcS7_SA_RA7_S8_S7_SA_S7_RA2_S8_EEES7_DpOT_, symObjAddr: 0x618F0, symBinAddr: 0xC5590, symSize: 0x1D8 }
  - { offset: 0x3AC846, size: 0x8, addend: 0x0, symName: __ZN11spirv_cross4joinIJRNSt3__112basic_stringIcNS1_11char_traitsIcEENS1_9allocatorIcEEEERA2_KcS7_RA3_S9_S7_SB_EEES7_DpOT_, symObjAddr: 0x6344C, symBinAddr: 0xC70EC, symSize: 0x158 }
  - { offset: 0x3ACB6F, size: 0x8, addend: 0x0, symName: __ZN11spirv_cross4joinIJRA29_KcNSt3__112basic_stringIcNS4_11char_traitsIcEENS4_9allocatorIcEEEERA6_S1_EEESA_DpOT_, symObjAddr: 0x61FAC, symBinAddr: 0xC5C4C, symSize: 0x198 }
  - { offset: 0x3AD00C, size: 0x8, addend: 0x0, symName: __ZN11spirv_cross4joinIJRA6_KcRNSt3__112basic_stringIcNS4_11char_traitsIcEENS4_9allocatorIcEEEERA3_S1_SB_RA2_S1_EEESA_DpOT_, symObjAddr: 0x622DC, symBinAddr: 0xC5F7C, symSize: 0x1E0 }
  - { offset: 0x3AD641, size: 0x8, addend: 0x0, symName: __ZN11spirv_cross4joinIJRA16_KcNSt3__112basic_stringIcNS4_11char_traitsIcEENS4_9allocatorIcEEEERA2_S1_EEESA_DpOT_, symObjAddr: 0x632B4, symBinAddr: 0xC6F54, symSize: 0x198 }
  - { offset: 0x3ADADE, size: 0x8, addend: 0x0, symName: __ZN11spirv_cross4joinIJRA17_KcRNSt3__112basic_stringIcNS4_11char_traitsIcEENS4_9allocatorIcEEEERA2_S1_EEESA_DpOT_, symObjAddr: 0x64F50, symBinAddr: 0xC8BF0, symSize: 0x198 }
  - { offset: 0x3ADF7B, size: 0x8, addend: 0x0, symName: __ZN11spirv_cross4joinIJRNSt3__112basic_stringIcNS1_11char_traitsIcEENS1_9allocatorIcEEEERA3_KcEEES7_DpOT_, symObjAddr: 0x635A4, symBinAddr: 0xC7244, symSize: 0x174 }
  - { offset: 0x3AE384, size: 0x8, addend: 0x0, symName: __ZN11spirv_cross4joinIJRA11_KcNSt3__112basic_stringIcNS4_11char_traitsIcEENS4_9allocatorIcEEEERA3_S1_RSA_SC_SA_RA2_S1_EEESA_DpOT_, symObjAddr: 0x641A0, symBinAddr: 0xC7E40, symSize: 0x194 }
  - { offset: 0x3AE767, size: 0x8, addend: 0x0, symName: __ZN11spirv_cross4joinIJRA12_KcNSt3__112basic_stringIcNS4_11char_traitsIcEENS4_9allocatorIcEEEERA27_S1_SA_RA2_S1_EEESA_DpOT_, symObjAddr: 0x63A90, symBinAddr: 0xC7730, symSize: 0x1E0 }
  - { offset: 0x3AED9C, size: 0x8, addend: 0x0, symName: __ZN11spirv_cross4joinIJRA11_KcNSt3__112basic_stringIcNS4_11char_traitsIcEENS4_9allocatorIcEEEERA2_S1_EEESA_DpOT_, symObjAddr: 0x64A70, symBinAddr: 0xC8710, symSize: 0x198 }
  - { offset: 0x3AF239, size: 0x8, addend: 0x0, symName: __ZN11spirv_cross4joinIJRA34_KcNSt3__112basic_stringIcNS4_11char_traitsIcEENS4_9allocatorIcEEEERA6_S1_EEESA_DpOT_, symObjAddr: 0x61C7C, symBinAddr: 0xC591C, symSize: 0x198 }
  - { offset: 0x3AF6D6, size: 0x8, addend: 0x0, symName: __ZN11spirv_cross4joinIJRA29_KcNSt3__112basic_stringIcNS4_11char_traitsIcEENS4_9allocatorIcEEEERA8_S1_EEESA_DpOT_, symObjAddr: 0x62144, symBinAddr: 0xC5DE4, symSize: 0x198 }
  - { offset: 0x3AFB73, size: 0x8, addend: 0x0, symName: __ZN11spirv_cross4joinIJRA11_KcNSt3__112basic_stringIcNS4_11char_traitsIcEENS4_9allocatorIcEEEERA3_S1_RSA_RA2_S1_EEESA_DpOT_, symObjAddr: 0x64334, symBinAddr: 0xC7FD4, symSize: 0x1E0 }
  - { offset: 0x3B01A8, size: 0x8, addend: 0x0, symName: __ZN11spirv_cross4joinIJRA13_KcNSt3__112basic_stringIcNS4_11char_traitsIcEENS4_9allocatorIcEEEERA2_S1_EEESA_DpOT_, symObjAddr: 0x638F8, symBinAddr: 0xC7598, symSize: 0x198 }
  - { offset: 0x3B0645, size: 0x8, addend: 0x0, symName: __ZN11spirv_cross4joinIJRA12_KcNSt3__112basic_stringIcNS4_11char_traitsIcEENS4_9allocatorIcEEEERA29_S1_EEESA_DpOT_, symObjAddr: 0x63C70, symBinAddr: 0xC7910, symSize: 0x198 }
  - { offset: 0x3B0AE2, size: 0x8, addend: 0x0, symName: __ZN11spirv_cross4joinIJRA2_KcRjRA10_S1_EEENSt3__112basic_stringIcNS7_11char_traitsIcEENS7_9allocatorIcEEEEDpOT_, symObjAddr: 0x75958, symBinAddr: 0xD9540, symSize: 0x170 }
  - { offset: 0x3B0E55, size: 0x8, addend: 0x0, symName: __ZN11spirv_cross4joinIJRNSt3__112basic_stringIcNS1_11char_traitsIcEENS1_9allocatorIcEEEERA4_KcEEES7_DpOT_, symObjAddr: 0x75E18, symBinAddr: 0xD9A00, symSize: 0x174 }
  - { offset: 0x3B125E, size: 0x8, addend: 0x0, symName: __ZN11spirv_cross4joinIJRA22_KcPS1_RA2_S1_RNSt3__112basic_stringIcNS7_11char_traitsIcEENS7_9allocatorIcEEEES6_EEESD_DpOT_, symObjAddr: 0x77550, symBinAddr: 0xDB138, symSize: 0x154 }
  - { offset: 0x3B15DE, size: 0x8, addend: 0x0, symName: __ZN11spirv_cross4joinIJNSt3__112basic_stringIcNS1_11char_traitsIcEENS1_9allocatorIcEEEERA2_KcS7_S7_SA_EEES7_DpOT_, symObjAddr: 0x96D04, symBinAddr: 0xF0B00, symSize: 0x1E0 }
  - { offset: 0x3B1C5F, size: 0x8, addend: 0x0, symName: __ZN11spirv_cross4joinIJRNSt3__112basic_stringIcNS1_11char_traitsIcEENS1_9allocatorIcEEEERA2_KcEEES7_DpOT_, symObjAddr: 0x96EE4, symBinAddr: 0xF0CE0, symSize: 0x174 }
  - { offset: 0x3B2068, size: 0x8, addend: 0x0, symName: __ZN11spirv_cross4joinIJRNSt3__112basic_stringIcNS1_11char_traitsIcEENS1_9allocatorIcEEEERA4_KcS7_RA2_S9_EEES7_DpOT_, symObjAddr: 0x89700, symBinAddr: 0xE7668, symSize: 0x1BC }
  - { offset: 0x3B268D, size: 0x8, addend: 0x0, symName: __ZN11spirv_cross4joinIJNSt3__112basic_stringIcNS1_11char_traitsIcEENS1_9allocatorIcEEEERA2_KcS7_RA4_S8_RPS8_SA_S7_RA3_S8_S7_SG_S7_SA_S7_SG_EEES7_DpOT_, symObjAddr: 0x978B8, symBinAddr: 0xF130C, symSize: 0x1E8 }
  - { offset: 0x3B2D94, size: 0x8, addend: 0x0, symName: __ZN11spirv_cross4joinIJRPKcRA2_S1_NSt3__112basic_stringIcNS6_11char_traitsIcEENS6_9allocatorIcEEEERA3_S1_SC_SE_SC_S5_SC_SE_SC_S5_SC_SE_EEESC_DpOT_, symObjAddr: 0x97D10, symBinAddr: 0xF1764, symSize: 0x1E4 }
  - { offset: 0x3B3476, size: 0x8, addend: 0x0, symName: __ZN11spirv_cross4joinIJRPKcRA2_S1_NSt3__112basic_stringIcNS6_11char_traitsIcEENS6_9allocatorIcEEEERA3_S1_SC_SE_EEESC_DpOT_, symObjAddr: 0x984F8, symBinAddr: 0xF1BC0, symSize: 0x158 }
  - { offset: 0x3B379F, size: 0x8, addend: 0x0, symName: __ZN11spirv_cross4joinIJRA14_KcEEENSt3__112basic_stringIcNS4_11char_traitsIcEENS4_9allocatorIcEEEEDpOT_, symObjAddr: 0x98954, symBinAddr: 0xF1E4C, symSize: 0x150 }
  - { offset: 0x3B3AC4, size: 0x8, addend: 0x0, symName: __ZN11spirv_cross4joinIJRA18_KcRNSt3__112basic_stringIcNS4_11char_traitsIcEENS4_9allocatorIcEEEERA3_S1_EEESA_DpOT_, symObjAddr: 0x98AA4, symBinAddr: 0xF1F9C, symSize: 0x198 }
  - { offset: 0x3B3F61, size: 0x8, addend: 0x0, symName: __ZN11spirv_cross4joinIJRA20_KcRNSt3__112basic_stringIcNS4_11char_traitsIcEENS4_9allocatorIcEEEERA3_S1_EEESA_DpOT_, symObjAddr: 0x98C3C, symBinAddr: 0xF2134, symSize: 0x198 }
  - { offset: 0x3B43FE, size: 0x8, addend: 0x0, symName: __ZN11spirv_cross4joinIJNSt3__112basic_stringIcNS1_11char_traitsIcEENS1_9allocatorIcEEEERA23_KcS7_RA3_S8_RS7_SC_S7_SC_S7_SC_EEES7_DpOT_, symObjAddr: 0x98EB4, symBinAddr: 0xF22CC, symSize: 0x1EC }
  - { offset: 0x3B4AED, size: 0x8, addend: 0x0, symName: __ZN11spirv_cross4joinIJNSt3__112basic_stringIcNS1_11char_traitsIcEENS1_9allocatorIcEEEERA23_KcS7_RA3_S8_RS7_SC_S7_SC_EEES7_DpOT_, symObjAddr: 0x992B0, symBinAddr: 0xF24B8, symSize: 0x1B8 }
  - { offset: 0x3B5050, size: 0x8, addend: 0x0, symName: __ZN11spirv_cross4joinIJRA12_KcNSt3__112basic_stringIcNS4_11char_traitsIcEENS4_9allocatorIcEEEERA3_S1_RSA_SC_SA_SC_SA_SC_EEESA_DpOT_, symObjAddr: 0x998E4, symBinAddr: 0xF2670, symSize: 0x1D0 }
  - { offset: 0x3B5613, size: 0x8, addend: 0x0, symName: __ZN11spirv_cross4joinIJRA12_KcNSt3__112basic_stringIcNS4_11char_traitsIcEENS4_9allocatorIcEEEERA3_S1_RSA_SC_SA_SC_EEESA_DpOT_, symObjAddr: 0x99AB4, symBinAddr: 0xF2840, symSize: 0x194 }
  - { offset: 0x3B59F6, size: 0x8, addend: 0x0, symName: __ZN11spirv_cross4joinIJRA11_KcEEENSt3__112basic_stringIcNS4_11char_traitsIcEENS4_9allocatorIcEEEEDpOT_, symObjAddr: 0x99C48, symBinAddr: 0xF29D4, symSize: 0x150 }
  - { offset: 0x3B5D1B, size: 0x8, addend: 0x0, symName: __ZN11spirv_cross4joinIJRA31_KcEEENSt3__112basic_stringIcNS4_11char_traitsIcEENS4_9allocatorIcEEEEDpOT_, symObjAddr: 0x99D98, symBinAddr: 0xF2B24, symSize: 0x150 }
  - { offset: 0x3B6040, size: 0x8, addend: 0x0, symName: __ZN11spirv_cross4joinIJRA19_KcEEENSt3__112basic_stringIcNS4_11char_traitsIcEENS4_9allocatorIcEEEEDpOT_, symObjAddr: 0x99EE8, symBinAddr: 0xF2C74, symSize: 0x150 }
  - { offset: 0x3B6365, size: 0x8, addend: 0x0, symName: __ZN11spirv_cross4joinIJRA25_KcRKtEEENSt3__112basic_stringIcNS6_11char_traitsIcEENS6_9allocatorIcEEEEDpOT_, symObjAddr: 0x9A0C0, symBinAddr: 0xF2E4C, symSize: 0x148 }
  - { offset: 0x3B663A, size: 0x8, addend: 0x0, symName: __ZN11spirv_cross4joinIJRA9_KcNSt3__112basic_stringIcNS4_11char_traitsIcEENS4_9allocatorIcEEEERA3_S1_SA_SC_SA_SC_SA_SC_SA_SC_SA_SC_SA_SC_SA_SC_SA_SC_SA_SC_SA_SC_EEESA_DpOT_, symObjAddr: 0x9A2B0, symBinAddr: 0xF303C, symSize: 0x1F4 }
  - { offset: 0x3B6DA1, size: 0x8, addend: 0x0, symName: __ZN11spirv_cross4joinIJRA13_KcNSt3__112basic_stringIcNS4_11char_traitsIcEENS4_9allocatorIcEEEERA3_S1_SA_SC_SA_SC_SA_SC_SA_SC_SA_SC_SA_SC_SA_SC_SA_SC_SA_SC_jSC_EEESA_DpOT_, symObjAddr: 0x9AB80, symBinAddr: 0xF3694, symSize: 0x1DC }
  - { offset: 0x3B7383, size: 0x8, addend: 0x0, symName: __ZN11spirv_cross4joinIJRA19_KcNSt3__112basic_stringIcNS4_11char_traitsIcEENS4_9allocatorIcEEEERA3_S1_SA_SC_EEESA_DpOT_, symObjAddr: 0x9B888, symBinAddr: 0xF439C, symSize: 0x1E0 }
  - { offset: 0x3B79B8, size: 0x8, addend: 0x0, symName: __ZN11spirv_cross4joinIJRA20_KcNSt3__112basic_stringIcNS4_11char_traitsIcEENS4_9allocatorIcEEEERA3_S1_jSC_EEESA_DpOT_, symObjAddr: 0x9BA68, symBinAddr: 0xF457C, symSize: 0x1B8 }
  - { offset: 0x3B7EC3, size: 0x8, addend: 0x0, symName: __ZN11spirv_cross4joinIJRA23_KcNSt3__112basic_stringIcNS4_11char_traitsIcEENS4_9allocatorIcEEEERA3_S1_SA_SC_SA_SC_SA_SC_SA_SC_SA_SC_SA_SC_SA_SC_EEESA_DpOT_, symObjAddr: 0x9BC20, symBinAddr: 0xF4734, symSize: 0x1CC }
  - { offset: 0x3B83E8, size: 0x8, addend: 0x0, symName: __ZN11spirv_cross4joinIJRA22_KcNSt3__112basic_stringIcNS4_11char_traitsIcEENS4_9allocatorIcEEEERA3_S1_EEESA_DpOT_, symObjAddr: 0x9BDEC, symBinAddr: 0xF4900, symSize: 0x198 }
  - { offset: 0x3B8885, size: 0x8, addend: 0x0, symName: __ZN11spirv_cross4joinIJRA33_KcNSt3__112basic_stringIcNS4_11char_traitsIcEENS4_9allocatorIcEEEERA3_S1_SA_SC_EEESA_DpOT_, symObjAddr: 0x9BF84, symBinAddr: 0xF4A98, symSize: 0x1E0 }
  - { offset: 0x3B8EBA, size: 0x8, addend: 0x0, symName: __ZN11spirv_cross4joinIJRA32_KcNSt3__112basic_stringIcNS4_11char_traitsIcEENS4_9allocatorIcEEEERA3_S1_EEESA_DpOT_, symObjAddr: 0x9C164, symBinAddr: 0xF4C78, symSize: 0x198 }
  - { offset: 0x3B9357, size: 0x8, addend: 0x0, symName: __ZN11spirv_cross4joinIJRA21_KcRKtEEENSt3__112basic_stringIcNS6_11char_traitsIcEENS6_9allocatorIcEEEEDpOT_, symObjAddr: 0x9CCF4, symBinAddr: 0xF4EF8, symSize: 0x148 }
  - { offset: 0x3B962C, size: 0x8, addend: 0x0, symName: __ZN11spirv_cross4joinIJRA11_KcRNSt3__112basic_stringIcNS4_11char_traitsIcEENS4_9allocatorIcEEEERA2_S1_EEESA_DpOT_, symObjAddr: 0x690E0, symBinAddr: 0xCCD80, symSize: 0x198 }
  - { offset: 0x3B9AC9, size: 0x8, addend: 0x0, symName: __ZN11spirv_cross4joinIJRA13_KcPS1_RA2_S1_RNSt3__112basic_stringIcNS7_11char_traitsIcEENS7_9allocatorIcEEEES6_EEESD_DpOT_, symObjAddr: 0x68F8C, symBinAddr: 0xCCC2C, symSize: 0x154 }
  - { offset: 0x3B9DDD, size: 0x8, addend: 0x0, symName: __ZN11spirv_cross4joinIJRNSt3__112basic_stringIcNS1_11char_traitsIcEENS1_9allocatorIcEEEEcRjcS8_EEES7_DpOT_, symObjAddr: 0x68DEC, symBinAddr: 0xCCA8C, symSize: 0x1A0 }
  - { offset: 0x3BA259, size: 0x8, addend: 0x0, symName: __ZN11spirv_cross4joinIJRNSt3__112basic_stringIcNS1_11char_traitsIcEENS1_9allocatorIcEEEERA2_KcRKS7_S7_EEES7_DpOT_, symObjAddr: 0x69394, symBinAddr: 0xCD034, symSize: 0x1C4 }
  - { offset: 0x3BA82A, size: 0x8, addend: 0x0, symName: __ZN11spirv_cross4joinIJRA6_KcNSt3__112basic_stringIcNS4_11char_traitsIcEENS4_9allocatorIcEEEERA5_S1_RjRA2_S1_SD_RA3_S1_EEESA_DpOT_, symObjAddr: 0x9D114, symBinAddr: 0xF5318, symSize: 0x1C4 }
  - { offset: 0x3BAD8D, size: 0x8, addend: 0x0, symName: __ZN11spirv_cross4joinIJRA7_KcNSt3__112basic_stringIcNS4_11char_traitsIcEENS4_9allocatorIcEEEERA5_S1_RjRA2_S1_SD_RA6_S1_EEESA_DpOT_, symObjAddr: 0x9D56C, symBinAddr: 0xF5770, symSize: 0x1C4 }
  - { offset: 0x3BB2F0, size: 0x8, addend: 0x0, symName: __ZN11spirv_cross4joinIJNSt3__112basic_stringIcNS1_11char_traitsIcEENS1_9allocatorIcEEEERS7_RKS7_S7_S7_RA2_KcEEES7_DpOT_, symObjAddr: 0x9D9C4, symBinAddr: 0xF5BC8, symSize: 0x158 }
  - { offset: 0x3BB619, size: 0x8, addend: 0x0, symName: __ZN11spirv_cross4joinIJRPKcNSt3__112basic_stringIcNS4_11char_traitsIcEENS4_9allocatorIcEEEESA_EEESA_DpOT_, symObjAddr: 0x6A5E0, symBinAddr: 0xCE280, symSize: 0x1A4 }
  - { offset: 0x3BBB00, size: 0x8, addend: 0x0, symName: __ZN11spirv_cross4joinIJRA8_KcNSt3__112basic_stringIcNS4_11char_traitsIcEENS4_9allocatorIcEEEEEEESA_DpOT_, symObjAddr: 0x6C80C, symBinAddr: 0xD04AC, symSize: 0x174 }
  - { offset: 0x3BBEFD, size: 0x8, addend: 0x0, symName: __ZN11spirv_cross4joinIJRKjRA2_KcEEENSt3__112basic_stringIcNS6_11char_traitsIcEENS6_9allocatorIcEEEEDpOT_, symObjAddr: 0x6C554, symBinAddr: 0xD01F4, symSize: 0x148 }
  - { offset: 0x3BC1D2, size: 0x8, addend: 0x0, symName: __ZN11spirv_cross4joinIJRA3_KcRKjRA2_S1_EEENSt3__112basic_stringIcNS8_11char_traitsIcEENS8_9allocatorIcEEEEDpOT_, symObjAddr: 0x6C69C, symBinAddr: 0xD033C, symSize: 0x170 }
  - { offset: 0x3BC545, size: 0x8, addend: 0x0, symName: __ZN11spirv_cross4joinIJRA6_KcRKjEEENSt3__112basic_stringIcNS6_11char_traitsIcEENS6_9allocatorIcEEEEDpOT_, symObjAddr: 0x6CAC8, symBinAddr: 0xD0768, symSize: 0x148 }
  - { offset: 0x3BC81A, size: 0x8, addend: 0x0, symName: __ZN11spirv_cross4joinIJRA7_KcRKjEEENSt3__112basic_stringIcNS6_11char_traitsIcEENS6_9allocatorIcEEEEDpOT_, symObjAddr: 0x6CC10, symBinAddr: 0xD08B0, symSize: 0x148 }
  - { offset: 0x3BCAEF, size: 0x8, addend: 0x0, symName: __ZN11spirv_cross4joinIJRA7_KcRKjRA2_S1_S5_EEENSt3__112basic_stringIcNS8_11char_traitsIcEENS8_9allocatorIcEEEEDpOT_, symObjAddr: 0x6D018, symBinAddr: 0xD0CB8, symSize: 0x178 }
  - { offset: 0x3BCE7E, size: 0x8, addend: 0x0, symName: __ZN11spirv_cross4joinIJRA5_KcRKjEEENSt3__112basic_stringIcNS6_11char_traitsIcEENS6_9allocatorIcEEEEDpOT_, symObjAddr: 0x6C980, symBinAddr: 0xD0620, symSize: 0x148 }
  - { offset: 0x3BD153, size: 0x8, addend: 0x0, symName: __ZN11spirv_cross4joinIJRA5_KcRKjRA2_S1_S5_EEENSt3__112basic_stringIcNS8_11char_traitsIcEENS8_9allocatorIcEEEEDpOT_, symObjAddr: 0x6CEA0, symBinAddr: 0xD0B40, symSize: 0x178 }
  - { offset: 0x3BD4E2, size: 0x8, addend: 0x0, symName: __ZN11spirv_cross4joinIJRA4_KcRKjEEENSt3__112basic_stringIcNS6_11char_traitsIcEENS6_9allocatorIcEEEEDpOT_, symObjAddr: 0x6CD58, symBinAddr: 0xD09F8, symSize: 0x148 }
  - { offset: 0x3BD7B7, size: 0x8, addend: 0x0, symName: __ZN11spirv_cross4joinIJRA4_KcRKjRA2_S1_S5_EEENSt3__112basic_stringIcNS8_11char_traitsIcEENS8_9allocatorIcEEEEDpOT_, symObjAddr: 0x6D190, symBinAddr: 0xD0E30, symSize: 0x178 }
  - { offset: 0x3BDB8D, size: 0x8, addend: 0x0, symName: __ZN11spirv_cross4joinIJNSt3__112basic_stringIcNS1_11char_traitsIcEENS1_9allocatorIcEEEERA4_KcS7_RA2_S8_EEES7_DpOT_, symObjAddr: 0x9F994, symBinAddr: 0xF6B14, symSize: 0x1BC }
  - { offset: 0x3BE3D1, size: 0x8, addend: 0x0, symName: __ZN11spirv_cross4joinIJNSt3__112basic_stringIcNS1_11char_traitsIcEENS1_9allocatorIcEEEERA5_KcS7_EEES7_DpOT_, symObjAddr: 0x746F8, symBinAddr: 0xD8350, symSize: 0x198 }
  - { offset: 0x3BE8BA, size: 0x8, addend: 0x0, symName: __ZN11spirv_cross4joinIJPKcNSt3__112basic_stringIcNS3_11char_traitsIcEENS3_9allocatorIcEEEERA5_S1_RKyRS2_S2_EEES9_DpOT_, symObjAddr: 0x7B44C, symBinAddr: 0xDBFB8, symSize: 0x1C4 }
  - { offset: 0x3BEDFB, size: 0x8, addend: 0x0, symName: __ZN11spirv_cross4joinIJRA20_KcRPS1_RA34_S1_EEENSt3__112basic_stringIcNS8_11char_traitsIcEENS8_9allocatorIcEEEEDpOT_, symObjAddr: 0xA0A28, symBinAddr: 0xF6CD0, symSize: 0x194 }
  - { offset: 0x3BF25A, size: 0x8, addend: 0x0, symName: __ZN11spirv_cross4joinIJRA32_KcEEENSt3__112basic_stringIcNS4_11char_traitsIcEENS4_9allocatorIcEEEEDpOT_, symObjAddr: 0xA0BBC, symBinAddr: 0xF6E64, symSize: 0x150 }
  - { offset: 0x3BF57F, size: 0x8, addend: 0x0, symName: __ZN11spirv_cross4joinIJRA2_KcRNS_7TypedIDILNS_5TypesE0EEERA6_S1_EEENSt3__112basic_stringIcNSA_11char_traitsIcEENSA_9allocatorIcEEEEDpOT_, symObjAddr: 0x718C0, symBinAddr: 0xD5560, symSize: 0x170 }
  - { offset: 0x3BF8F2, size: 0x8, addend: 0x0, symName: __ZN11spirv_cross4joinIJRA2_KcRNS_7TypedIDILNS_5TypesE2EEERA6_S1_RA4_S1_NSt3__112basic_stringIcNSC_11char_traitsIcEENSC_9allocatorIcEEEES3_EEESI_DpOT_, symObjAddr: 0xA0D0C, symBinAddr: 0xF6FB4, symSize: 0x190 }
  - { offset: 0x3BFCB9, size: 0x8, addend: 0x0, symName: __ZN11spirv_cross4joinIJRA10_KcEEENSt3__112basic_stringIcNS4_11char_traitsIcEENS4_9allocatorIcEEEEDpOT_, symObjAddr: 0xA155C, symBinAddr: 0xF7434, symSize: 0x150 }
  - { offset: 0x3BFFDE, size: 0x8, addend: 0x0, symName: __ZN11spirv_cross4joinIJRA2_KcRNS_7TypedIDILNS_5TypesE0EEERA22_S1_EEENSt3__112basic_stringIcNSA_11char_traitsIcEENSA_9allocatorIcEEEEDpOT_, symObjAddr: 0xA16AC, symBinAddr: 0xF7584, symSize: 0x170 }
  - { offset: 0x3C0351, size: 0x8, addend: 0x0, symName: __ZN11spirv_cross4joinIJRA6_KcRNSt3__112basic_stringIcNS4_11char_traitsIcEENS4_9allocatorIcEEEERA3_S1_SB_SD_SB_RA2_S1_EEESA_DpOT_, symObjAddr: 0xA19A8, symBinAddr: 0xF7880, symSize: 0x194 }
  - { offset: 0x3C0734, size: 0x8, addend: 0x0, symName: __ZN11spirv_cross4joinIJRA6_KcRNSt3__112basic_stringIcNS4_11char_traitsIcEENS4_9allocatorIcEEEERA3_S1_SB_RA4_S1_EEESA_DpOT_, symObjAddr: 0xA1C6C, symBinAddr: 0xF7A14, symSize: 0x1E0 }
  - { offset: 0x3C0DD5, size: 0x8, addend: 0x0, symName: __ZN11spirv_cross4joinIJRA3_KcEEENSt3__112basic_stringIcNS4_11char_traitsIcEENS4_9allocatorIcEEEEDpOT_, symObjAddr: 0xA2F5C, symBinAddr: 0xF8B58, symSize: 0x150 }
  - { offset: 0x3C10FA, size: 0x8, addend: 0x0, symName: __ZN11spirv_cross4joinIJRA9_KcEEENSt3__112basic_stringIcNS4_11char_traitsIcEENS4_9allocatorIcEEEEDpOT_, symObjAddr: 0xA30AC, symBinAddr: 0xF8CA8, symSize: 0x150 }
  - { offset: 0x3C141F, size: 0x8, addend: 0x0, symName: __ZN11spirv_cross4joinIJRA7_KcRNS_7TypedIDILNS_5TypesE0EEERA23_S1_EEENSt3__112basic_stringIcNSA_11char_traitsIcEENSA_9allocatorIcEEEEDpOT_, symObjAddr: 0xA3300, symBinAddr: 0xF8EFC, symSize: 0x170 }
  - { offset: 0x3C1792, size: 0x8, addend: 0x0, symName: __ZN11spirv_cross4joinIJRA18_KcRjRA15_S1_S4_S6_S4_RA4_S1_EEENSt3__112basic_stringIcNS9_11char_traitsIcEENS9_9allocatorIcEEEEDpOT_, symObjAddr: 0xA44F4, symBinAddr: 0xF97B8, symSize: 0x194 }
  - { offset: 0x3C1B75, size: 0x8, addend: 0x0, symName: __ZN11spirv_cross4joinIJPKcRA5_S1_NSt3__112basic_stringIcNS5_11char_traitsIcEENS5_9allocatorIcEEEERA2_S1_EEESB_DpOT_, symObjAddr: 0xA4B9C, symBinAddr: 0xF9E60, symSize: 0x1B8 }
  - { offset: 0x3C20C4, size: 0x8, addend: 0x0, symName: __ZN11spirv_cross4joinIJRA6_KcNSt3__112basic_stringIcNS4_11char_traitsIcEENS4_9allocatorIcEEEERPS1_RA2_S1_EEESA_DpOT_, symObjAddr: 0xA4D54, symBinAddr: 0xFA018, symSize: 0x1B8 }
  - { offset: 0x3C260D, size: 0x8, addend: 0x0, symName: __ZN11spirv_cross4joinIJRA6_KcRNS_7TypedIDILNS_5TypesE0EEERA15_S1_EEENSt3__112basic_stringIcNSA_11char_traitsIcEENSA_9allocatorIcEEEEDpOT_, symObjAddr: 0xA4F0C, symBinAddr: 0xFA1D0, symSize: 0x170 }
  - { offset: 0x3C2980, size: 0x8, addend: 0x0, symName: __ZN11spirv_cross4joinIJRA8_KcEEENSt3__112basic_stringIcNS4_11char_traitsIcEENS4_9allocatorIcEEEEDpOT_, symObjAddr: 0xA5208, symBinAddr: 0xFA4CC, symSize: 0x150 }
  - { offset: 0x3C2CA5, size: 0x8, addend: 0x0, symName: __ZN11spirv_cross4joinIJRA8_KcNSt3__112basic_stringIcNS4_11char_traitsIcEENS4_9allocatorIcEEEERA2_S1_EEESA_DpOT_, symObjAddr: 0xA5358, symBinAddr: 0xFA61C, symSize: 0x198 }
  - { offset: 0x3C3142, size: 0x8, addend: 0x0, symName: __ZN11spirv_cross4joinIJRA2_KcEEENSt3__112basic_stringIcNS4_11char_traitsIcEENS4_9allocatorIcEEEEDpOT_, symObjAddr: 0xA54F0, symBinAddr: 0xFA7B4, symSize: 0x150 }
  - { offset: 0x3C3467, size: 0x8, addend: 0x0, symName: __ZN11spirv_cross4joinIJRA2_KcRKNSt3__112basic_stringIcNS4_11char_traitsIcEENS4_9allocatorIcEEEEEEESA_DpOT_, symObjAddr: 0xA5640, symBinAddr: 0xFA904, symSize: 0x174 }
  - { offset: 0x3C3864, size: 0x8, addend: 0x0, symName: __ZN11spirv_cross4joinIJRA3_KcRKNSt3__112basic_stringIcNS4_11char_traitsIcEENS4_9allocatorIcEEEERA2_S1_EEESA_DpOT_, symObjAddr: 0xA57B4, symBinAddr: 0xFAA78, symSize: 0x198 }
  - { offset: 0x3C3D01, size: 0x8, addend: 0x0, symName: __ZN11spirv_cross4joinIJRA25_KcRNSt3__112basic_stringIcNS4_11char_traitsIcEENS4_9allocatorIcEEEERA8_S1_EEESA_DpOT_, symObjAddr: 0xA594C, symBinAddr: 0xFAC10, symSize: 0x198 }
  - { offset: 0x3C419E, size: 0x8, addend: 0x0, symName: __ZN11spirv_cross4joinIJRNSt3__112basic_stringIcNS1_11char_traitsIcEENS1_9allocatorIcEEEERA16_KcS8_RA2_S9_EEES7_DpOT_, symObjAddr: 0xA5B88, symBinAddr: 0xFAE4C, symSize: 0x1BC }
  - { offset: 0x3C472F, size: 0x8, addend: 0x0, symName: __ZN11spirv_cross4joinIJRNSt3__112basic_stringIcNS1_11char_traitsIcEENS1_9allocatorIcEEEERA7_KcS7_RA2_S9_EEES7_DpOT_, symObjAddr: 0xA5D44, symBinAddr: 0xFB008, symSize: 0x1BC }
  - { offset: 0x3C4CC0, size: 0x8, addend: 0x0, symName: __ZN11spirv_cross4joinIJRNSt3__112basic_stringIcNS1_11char_traitsIcEENS1_9allocatorIcEEEERA7_KcS8_RA5_S9_EEES7_DpOT_, symObjAddr: 0xA5F00, symBinAddr: 0xFB1C4, symSize: 0x1BC }
  - { offset: 0x3C5251, size: 0x8, addend: 0x0, symName: __ZN11spirv_cross4joinIJRA6_KcRKNSt3__112basic_stringIcNS4_11char_traitsIcEENS4_9allocatorIcEEEEEEESA_DpOT_, symObjAddr: 0x76B5C, symBinAddr: 0xDA744, symSize: 0x174 }
  - { offset: 0x3C5728, size: 0x8, addend: 0x0, symName: __ZN11spirv_cross4joinIJRNSt3__112basic_stringIcNS1_11char_traitsIcEENS1_9allocatorIcEEEERA4_KcRKS7_RA2_S9_RKjRA3_S9_EEES7_DpOT_, symObjAddr: 0x8A62C, symBinAddr: 0xE8168, symSize: 0x1DC }
  - { offset: 0x3C5D37, size: 0x8, addend: 0x0, symName: __ZN11spirv_cross4joinIJRNSt3__112basic_stringIcNS1_11char_traitsIcEENS1_9allocatorIcEEEERA4_KcRKS7_RA2_S9_S7_RA3_S9_EEES7_DpOT_, symObjAddr: 0x8A994, symBinAddr: 0xE84D0, symSize: 0x158 }
  - { offset: 0x3C6060, size: 0x8, addend: 0x0, symName: __ZN11spirv_cross4joinIJNSt3__112basic_stringIcNS1_11char_traitsIcEENS1_9allocatorIcEEEERA21_KcRKS7_RA19_S8_EEES7_DpOT_, symObjAddr: 0x8B5AC, symBinAddr: 0xE8ED8, symSize: 0x1BC }
  - { offset: 0x3C65F1, size: 0x8, addend: 0x0, symName: __ZN11spirv_cross4joinIJNSt3__112basic_stringIcNS1_11char_traitsIcEENS1_9allocatorIcEEEERA2_KcRjRA5_S8_S7_SA_EEES7_DpOT_, symObjAddr: 0x8BB78, symBinAddr: 0xE94A4, symSize: 0x1AC }
  - { offset: 0x3C6AA0, size: 0x8, addend: 0x0, symName: __ZN11spirv_cross4joinIJNSt3__112basic_stringIcNS1_11char_traitsIcEENS1_9allocatorIcEEEERA4_KcRKS7_RA2_S8_EEES7_DpOT_, symObjAddr: 0x8C3F8, symBinAddr: 0xE9D24, symSize: 0x1BC }
  - { offset: 0x3C7031, size: 0x8, addend: 0x0, symName: __ZN11spirv_cross4joinIJRA7_KcRjRA3_S1_RNSt3__112basic_stringIcNS7_11char_traitsIcEENS7_9allocatorIcEEEERA2_S1_EEESD_DpOT_, symObjAddr: 0xA6660, symBinAddr: 0xFB924, symSize: 0x188 }
  - { offset: 0x3C73DC, size: 0x8, addend: 0x0, symName: __ZN11spirv_cross4joinIJNSt3__112basic_stringIcNS1_11char_traitsIcEENS1_9allocatorIcEEEERA4_KcRA17_S8_jRA3_S8_EEES7_DpOT_, symObjAddr: 0xA7060, symBinAddr: 0xFC29C, symSize: 0x1B0 }
  - { offset: 0x3C78F3, size: 0x8, addend: 0x0, symName: __ZN11spirv_cross4joinIJNSt3__112basic_stringIcNS1_11char_traitsIcEENS1_9allocatorIcEEEEPKcRA4_S8_S7_RA2_S8_EEES7_DpOT_, symObjAddr: 0xA72F8, symBinAddr: 0xFC534, symSize: 0x1DC }
  - { offset: 0x3E90DD, size: 0x8, addend: 0x0, symName: __ZNSt3__1L19piecewise_constructE, symObjAddr: 0xB7A5A, symBinAddr: 0x1E341A, symSize: 0x0 }
  - { offset: 0x3EF329, size: 0x8, addend: 0x0, symName: '__ZNSt3__111__introsortINS_17_ClassicAlgPolicyERZN11spirv_cross12CompilerGLSL24emit_hoisted_temporariesERNS2_11SmallVectorINS_4pairINS2_7TypedIDILNS2_5TypesE1EEENS6_ILS7_0EEEEELm8EEEE3$_0PSA_Lb0EEEvT1_SG_T0_NS_15iterator_traitsISG_E15difference_typeEb', symObjAddr: 0xA1E4C, symBinAddr: 0xF7BF4, symSize: 0xB04 }
  - { offset: 0x3F2E00, size: 0x8, addend: 0x0, symName: '__ZNSt3__127__insertion_sort_incompleteB9nqe210106INS_17_ClassicAlgPolicyERZN11spirv_cross12CompilerGLSL24emit_hoisted_temporariesERNS2_11SmallVectorINS_4pairINS2_7TypedIDILNS2_5TypesE1EEENS6_ILS7_0EEEEELm8EEEE3$_0PSA_EEbT1_SG_T0_', symObjAddr: 0xA2AC4, symBinAddr: 0xF886C, symSize: 0x2EC }
  - { offset: 0x3F5F67, size: 0x8, addend: 0x0, symName: '__ZNSt3__111__introsortINS_17_ClassicAlgPolicyERZN11spirv_cross12CompilerGLSL27ShaderSubgroupSupportHelper26get_candidates_for_featureENS4_7FeatureERKNS4_6ResultEE3$_0PNS4_9CandidateELb0EEEvT1_SD_T0_NS_15iterator_traitsISD_E15difference_typeEb', symObjAddr: 0xA78E4, symBinAddr: 0xFC960, symSize: 0xD10 }
  - { offset: 0x3F8062, size: 0x8, addend: 0x0, symName: '__ZNSt3__127__insertion_sort_incompleteB9nqe210106INS_17_ClassicAlgPolicyERZN11spirv_cross12CompilerGLSL27ShaderSubgroupSupportHelper26get_candidates_for_featureENS4_7FeatureERKNS4_6ResultEE3$_0PNS4_9CandidateEEEbT1_SD_T0_', symObjAddr: 0xA8780, symBinAddr: 0xFD7FC, symSize: 0x3AC }
  - { offset: 0x3FA35D, size: 0x8, addend: 0x0, symName: __ZNSt3__1plB9nqe210106IcNS_11char_traitsIcEENS_9allocatorIcEEEENS_12basic_stringIT_T0_T1_EERKS9_PKS6_, symObjAddr: 0x309D4, symBinAddr: 0x94708, symSize: 0xE8 }
  - { offset: 0x3FA739, size: 0x8, addend: 0x0, symName: __ZN11spirv_cross12CompilerGLSL21access_chain_internalEjPKjjjPNS_15AccessChainMetaE, symObjAddr: 0x30ABC, symBinAddr: 0x947F0, symSize: 0x1FE0 }
  - { offset: 0x3FF466, size: 0x8, addend: 0x0, symName: '__ZNSt3__17__sort4B9nqe210106INS_17_ClassicAlgPolicyERZN11spirv_cross12CompilerGLSL24emit_hoisted_temporariesERNS2_11SmallVectorINS_4pairINS2_7TypedIDILNS2_5TypesE1EEENS6_ILS7_0EEEEELm8EEEE3$_0PSA_Li0EEEvT1_SG_SG_SG_T0_', symObjAddr: 0xA2950, symBinAddr: 0xF86F8, symSize: 0x174 }
  - { offset: 0x3FF4F1, size: 0x8, addend: 0x0, symName: '__ZNSt3__17__sort4B9nqe210106INS_17_ClassicAlgPolicyERZN11spirv_cross12CompilerGLSL24emit_hoisted_temporariesERNS2_11SmallVectorINS_4pairINS2_7TypedIDILNS2_5TypesE1EEENS6_ILS7_0EEEEELm8EEEE3$_0PSA_Li0EEEvT1_SG_SG_SG_T0_', symObjAddr: 0xA2950, symBinAddr: 0xF86F8, symSize: 0x174 }
  - { offset: 0x3FF516, size: 0x8, addend: 0x0, symName: '__ZNSt3__17__sort4B9nqe210106INS_17_ClassicAlgPolicyERZN11spirv_cross12CompilerGLSL24emit_hoisted_temporariesERNS2_11SmallVectorINS_4pairINS2_7TypedIDILNS2_5TypesE1EEENS6_ILS7_0EEEEELm8EEEE3$_0PSA_Li0EEEvT1_SG_SG_SG_T0_', symObjAddr: 0xA2950, symBinAddr: 0xF86F8, symSize: 0x174 }
  - { offset: 0x400AF0, size: 0x8, addend: 0x0, symName: '__ZNSt3__17__sort4B9nqe210106INS_17_ClassicAlgPolicyERZN11spirv_cross12CompilerGLSL27ShaderSubgroupSupportHelper26get_candidates_for_featureENS4_7FeatureERKNS4_6ResultEE3$_0PNS4_9CandidateELi0EEEvT1_SD_SD_SD_T0_', symObjAddr: 0xA85F4, symBinAddr: 0xFD670, symSize: 0x18C }
  - { offset: 0x404BA8, size: 0x8, addend: 0x0, symName: __ZN11spirv_cross12CompilerGLSL14vector_swizzleEii, symObjAddr: 0x78, symBinAddr: 0x64F28, symSize: 0x1C }
  - { offset: 0x404BC9, size: 0x8, addend: 0x0, symName: __ZZN11spirv_cross12CompilerGLSL14vector_swizzleEiiE7swizzle, symObjAddr: 0xB8080, symBinAddr: 0x22D948, symSize: 0x0 }
  - { offset: 0x404C0E, size: 0x8, addend: 0x0, symName: __ZN11spirv_cross12CompilerGLSL21replace_illegal_namesEv, symObjAddr: 0x1B3F8, symBinAddr: 0x7FBA8, symSize: 0x24B4 }
  - { offset: 0x404C36, size: 0x8, addend: 0x0, symName: __ZZN11spirv_cross12CompilerGLSL21replace_illegal_namesEvE8keywords, symObjAddr: 0x86DF68, symBinAddr: 0x235610, symSize: 0x0 }
  - { offset: 0x406965, size: 0x8, addend: 0x0, symName: __ZN11spirv_cross12CompilerGLSL26emit_extension_workaroundsEN3spv14ExecutionModelE, symObjAddr: 0x4174, symBinAddr: 0x68DF4, symSize: 0x20EC }
  - { offset: 0x40698D, size: 0x8, addend: 0x0, symName: __ZZN11spirv_cross12CompilerGLSL26emit_extension_workaroundsEN3spv14ExecutionModelEE16workaround_types, symObjAddr: 0xB8118, symBinAddr: 0x22D9C8, symSize: 0x0 }
  - { offset: 0x40CA37, size: 0x8, addend: 0x0, symName: __ZN11spirv_cross12CompilerGLSL24remove_duplicate_swizzleERNSt3__112basic_stringIcNS1_11char_traitsIcEENS1_9allocatorIcEEEE, symObjAddr: 0x1E2B0, symBinAddr: 0x829F8, symSize: 0x3CC }
  - { offset: 0x40D3FF, size: 0x8, addend: 0x0, symName: __ZN11spirv_cross12CompilerGLSL20remove_unity_swizzleEjRNSt3__112basic_stringIcNS1_11char_traitsIcEENS1_9allocatorIcEEEE, symObjAddr: 0x51690, symBinAddr: 0xB53C4, symSize: 0x2C8 }
  - { offset: 0x40DCBB, size: 0x8, addend: 0x0, symName: __ZN11spirv_cross12CompilerGLSL27ShaderSubgroupSupportHelper18get_extension_nameENS1_9CandidateE, symObjAddr: 0x8510, symBinAddr: 0x6CF3C, symSize: 0x10 }
  - { offset: 0x40DCDC, size: 0x8, addend: 0x0, symName: __ZZN11spirv_cross12CompilerGLSL27ShaderSubgroupSupportHelper18get_extension_nameENS1_9CandidateEE6retval, symObjAddr: 0xB8198, symBinAddr: 0x22DA48, symSize: 0x0 }
  - { offset: 0x40DCFF, size: 0x8, addend: 0x0, symName: __ZN11spirv_cross12CompilerGLSL27ShaderSubgroupSupportHelper45can_feature_be_implemented_without_extensionsENS1_7FeatureE, symObjAddr: 0xE010, symBinAddr: 0x729B8, symSize: 0x10 }
  - { offset: 0x40DD20, size: 0x8, addend: 0x0, symName: __ZZN11spirv_cross12CompilerGLSL27ShaderSubgroupSupportHelper45can_feature_be_implemented_without_extensionsENS1_7FeatureEE6retval, symObjAddr: 0xB7944, symBinAddr: 0x1E3334, symSize: 0x0 }
  - { offset: 0x40DD43, size: 0x8, addend: 0x0, symName: __ZN11spirv_cross12CompilerGLSL27ShaderSubgroupSupportHelper29get_KHR_extension_for_featureENS1_7FeatureE, symObjAddr: 0x8500, symBinAddr: 0x6CF2C, symSize: 0x10 }
  - { offset: 0x40DD64, size: 0x8, addend: 0x0, symName: __ZZN11spirv_cross12CompilerGLSL27ShaderSubgroupSupportHelper29get_KHR_extension_for_featureENS1_7FeatureEE10extensions, symObjAddr: 0xB7960, symBinAddr: 0x1E3350, symSize: 0x0 }
  - { offset: 0x40DD8E, size: 0x8, addend: 0x0, symName: __ZTVN11spirv_cross12CompilerGLSLE, symObjAddr: 0xB81E8, symBinAddr: 0x22DA98, symSize: 0x0 }
  - { offset: 0x40DDAD, size: 0x8, addend: 0x0, symName: '__ZTVNSt3__110__function6__funcIZN11spirv_cross12CompilerGLSL32emit_output_variable_initializerERKNS2_12SPIRVariableEE3$_0FvvEEE', symObjAddr: 0xB8550, symBinAddr: 0x22DCC8, symSize: 0x0 }
  - { offset: 0x40DDBB, size: 0x8, addend: 0x0, symName: __ZN11spirv_cross12CompilerGLSL32emit_output_variable_initializerERKNS_12SPIRVariableE, symObjAddr: 0x22758, symBinAddr: 0x86C38, symSize: 0xF18 }
  - { offset: 0x4115A7, size: 0x8, addend: 0x0, symName: '__ZTVNSt3__110__function6__funcIZN11spirv_cross12CompilerGLSL32emit_output_variable_initializerERKNS2_12SPIRVariableEE3$_1FvvEEE', symObjAddr: 0xB85E0, symBinAddr: 0x22DD58, symSize: 0x0 }
  - { offset: 0x4115E1, size: 0x8, addend: 0x0, symName: '__ZTVNSt3__110__function6__funcIZN11spirv_cross12CompilerGLSL32emit_output_variable_initializerERKNS2_12SPIRVariableEE3$_2FvvEEE', symObjAddr: 0xB8660, symBinAddr: 0x22DDD8, symSize: 0x0 }
  - { offset: 0x41161B, size: 0x8, addend: 0x0, symName: '__ZTVNSt3__110__function6__funcIZN11spirv_cross12CompilerGLSL32emit_output_variable_initializerERKNS2_12SPIRVariableEE3$_3FvvEEE', symObjAddr: 0xB86E0, symBinAddr: 0x22DE58, symSize: 0x0 }
  - { offset: 0x411655, size: 0x8, addend: 0x0, symName: __ZTVN11spirv_cross15SPIRAccessChainE, symObjAddr: 0xB8760, symBinAddr: 0x22DED8, symSize: 0x0 }
  - { offset: 0x41166A, size: 0x8, addend: 0x0, symName: __ZTVN11spirv_cross24SPIRCombinedImageSamplerE, symObjAddr: 0xB87A0, symBinAddr: 0x22DF18, symSize: 0x0 }
  - { offset: 0x411684, size: 0x8, addend: 0x0, symName: '__ZTVNSt3__110__function6__funcIZN11spirv_cross12CompilerGLSL50emit_inout_fragment_outputs_copy_to_subpass_inputsEvE3$_0FvvEEE', symObjAddr: 0xB87E0, symBinAddr: 0x22DF58, symSize: 0x0 }
  - { offset: 0x411692, size: 0x8, addend: 0x0, symName: __ZN11spirv_cross12CompilerGLSL50emit_inout_fragment_outputs_copy_to_subpass_inputsEv, symObjAddr: 0x2C80, symBinAddr: 0x67900, symSize: 0x164 }
  - { offset: 0x411AE1, size: 0x8, addend: 0x0, symName: __ZN11spirv_cross12CompilerGLSL29emit_spv_amd_shader_ballot_opEjjjPKjj, symObjAddr: 0x49A80, symBinAddr: 0xAD7B4, symSize: 0x144 }
  - { offset: 0x411D7D, size: 0x8, addend: 0x0, symName: __ZN11spirv_cross12CompilerGLSL48emit_spv_amd_shader_explicit_vertex_parameter_opEjjjPKjj, symObjAddr: 0x49D40, symBinAddr: 0xADA74, symSize: 0xF4 }
  - { offset: 0x4121B6, size: 0x8, addend: 0x0, symName: __ZN11spirv_cross12CompilerGLSL37emit_spv_amd_shader_trinary_minmax_opEjjjPKjj, symObjAddr: 0x49FB0, symBinAddr: 0xADCE4, symSize: 0x148 }
  - { offset: 0x412608, size: 0x8, addend: 0x0, symName: __ZN11spirv_cross12CompilerGLSL26emit_spv_amd_gcn_shader_opEjjjPKjj, symObjAddr: 0x4A274, symBinAddr: 0xADFA8, symSize: 0x150 }
  - { offset: 0x412D98, size: 0x8, addend: 0x0, symName: __ZN11spirv_cross12CompilerGLSL35emit_subgroup_arithmetic_workaroundERKNSt3__112basic_stringIcNS1_11char_traitsIcEENS1_9allocatorIcEEEEN3spv2OpENSA_14GroupOperationE, symObjAddr: 0x249F4, symBinAddr: 0x88DB8, symSize: 0x1554 }
  - { offset: 0x41C8F4, size: 0x8, addend: 0x0, symName: __ZN11spirv_cross12CompilerGLSL4initEv, symObjAddr: 0x0, symBinAddr: 0x64EB0, symSize: 0x54 }
  - { offset: 0x41C96B, size: 0x8, addend: 0x0, symName: __ZN11spirv_cross12CompilerGLSL24pls_format_to_componentsENS_9PlsFormatE, symObjAddr: 0x54, symBinAddr: 0x64F04, symSize: 0x24 }
  - { offset: 0x41CC1F, size: 0x8, addend: 0x0, symName: __ZN11spirv_cross12CompilerGLSL5resetEj, symObjAddr: 0x94, symBinAddr: 0x64F44, symSize: 0x2F4 }
  - { offset: 0x41DCD1, size: 0x8, addend: 0x0, symName: __ZN11spirv_cross12CompilerGLSL17reset_name_cachesEv, symObjAddr: 0x3B0, symBinAddr: 0x65238, symSize: 0x2D0 }
  - { offset: 0x41F6F0, size: 0x8, addend: 0x0, symName: __ZNSt3__112__hash_tableINS_17__hash_value_typeINS_12basic_stringIcNS_11char_traitsIcEENS_9allocatorIcEEEENS_13unordered_setIyNS_4hashIyEENS_8equal_toIyEENS5_IyEEEEEENS_22__unordered_map_hasherIS7_NS_4pairIKS7_SE_EENS9_IS7_EENSB_IS7_EELb1EEENS_21__unordered_map_equalIS7_SJ_SL_SK_Lb1EEENS5_ISJ_EEE5clearEv, symObjAddr: 0xA6474, symBinAddr: 0xFB738, symSize: 0xA0 }
  - { offset: 0x41FD9A, size: 0x8, addend: 0x0, symName: __ZN11spirv_cross12CompilerGLSL19remap_pls_variablesEv, symObjAddr: 0x680, symBinAddr: 0x65508, symSize: 0x25C }
  - { offset: 0x4205C3, size: 0x8, addend: 0x0, symName: __ZN11spirv_cross12CompilerGLSL27remap_ext_framebuffer_fetchEjjb, symObjAddr: 0x8DC, symBinAddr: 0x65764, symSize: 0x60 }
  - { offset: 0x4206C9, size: 0x8, addend: 0x0, symName: __ZNSt3__16vectorINS_4pairIjjEENS_9allocatorIS2_EEE9push_backB9nqe210106EOS2_, symObjAddr: 0x93C, symBinAddr: 0x657C4, symSize: 0xE0 }
  - { offset: 0x420D4D, size: 0x8, addend: 0x0, symName: __ZNK11spirv_cross12CompilerGLSL29location_is_framebuffer_fetchEj, symObjAddr: 0xAFC, symBinAddr: 0x658A4, symSize: 0x38 }
  - { offset: 0x421440, size: 0x8, addend: 0x0, symName: __ZNK11spirv_cross12CompilerGLSL29location_is_framebuffer_fetchEj, symObjAddr: 0xAFC, symBinAddr: 0x658A4, symSize: 0x38 }
  - { offset: 0x42149C, size: 0x8, addend: 0x0, symName: __ZNK11spirv_cross12CompilerGLSL29location_is_framebuffer_fetchEj, symObjAddr: 0xAFC, symBinAddr: 0x658A4, symSize: 0x38 }
  - { offset: 0x4214BE, size: 0x8, addend: 0x0, symName: __ZNK11spirv_cross12CompilerGLSL29location_is_framebuffer_fetchEj, symObjAddr: 0xAFC, symBinAddr: 0x658A4, symSize: 0x38 }
  - { offset: 0x4215FF, size: 0x8, addend: 0x0, symName: __ZNK11spirv_cross12CompilerGLSL42location_is_non_coherent_framebuffer_fetchEj, symObjAddr: 0xB34, symBinAddr: 0x658DC, symSize: 0x48 }
  - { offset: 0x42165B, size: 0x8, addend: 0x0, symName: __ZNK11spirv_cross12CompilerGLSL42location_is_non_coherent_framebuffer_fetchEj, symObjAddr: 0xB34, symBinAddr: 0x658DC, symSize: 0x48 }
  - { offset: 0x42167D, size: 0x8, addend: 0x0, symName: __ZNK11spirv_cross12CompilerGLSL42location_is_non_coherent_framebuffer_fetchEj, symObjAddr: 0xB34, symBinAddr: 0x658DC, symSize: 0x48 }
  - { offset: 0x42179D, size: 0x8, addend: 0x0, symName: __ZN11spirv_cross12CompilerGLSL22find_static_extensionsEv, symObjAddr: 0xB7C, symBinAddr: 0x65924, symSize: 0x11CC }
  - { offset: 0x4266D1, size: 0x8, addend: 0x0, symName: __ZN11spirv_cross12CompilerGLSL26require_extension_internalERKNSt3__112basic_stringIcNS1_11char_traitsIcEENS1_9allocatorIcEEEE, symObjAddr: 0x1D48, symBinAddr: 0x66AF0, symSize: 0x154 }
  - { offset: 0x426999, size: 0x8, addend: 0x0, symName: __ZN11spirv_cross12CompilerGLSL31ray_tracing_khr_fixup_locationsEv, symObjAddr: 0x2014, symBinAddr: 0x66D14, symSize: 0x10C }
  - { offset: 0x426CE6, size: 0x8, addend: 0x0, symName: __ZNK11spirv_cross6Bitset3getEj, symObjAddr: 0x1F44, symBinAddr: 0x66C44, symSize: 0xD0 }
  - { offset: 0x4272B0, size: 0x8, addend: 0x0, symName: __ZNK11spirv_cross6Bitset3getEj, symObjAddr: 0x1F44, symBinAddr: 0x66C44, symSize: 0xD0 }
  - { offset: 0x42754D, size: 0x8, addend: 0x0, symName: __ZN11spirv_cross12CompilerGLSL16require_polyfillENS0_8PolyfillEb, symObjAddr: 0x21A0, symBinAddr: 0x66E20, symSize: 0x38 }
  - { offset: 0x42793E, size: 0x8, addend: 0x0, symName: __ZN11spirv_cross12CompilerGLSL7compileEv, symObjAddr: 0x21D8, symBinAddr: 0x66E58, symSize: 0x3A0 }
  - { offset: 0x428177, size: 0x8, addend: 0x0, symName: __ZN11spirv_cross12CompilerGLSL28fixup_anonymous_struct_namesEv, symObjAddr: 0x2578, symBinAddr: 0x671F8, symSize: 0x130 }
  - { offset: 0x4286A3, size: 0x8, addend: 0x0, symName: __ZN11spirv_cross12CompilerGLSL16fixup_type_aliasEv, symObjAddr: 0x26A8, symBinAddr: 0x67328, symSize: 0x198 }
  - { offset: 0x428A90, size: 0x8, addend: 0x0, symName: __ZN11spirv_cross12CompilerGLSL18reorder_type_aliasEv, symObjAddr: 0x2840, symBinAddr: 0x674C0, symSize: 0x31C }
  - { offset: 0x428F45, size: 0x8, addend: 0x0, symName: __ZN11spirv_cross12CompilerGLSL29fixup_image_load_store_accessEv, symObjAddr: 0x2B5C, symBinAddr: 0x677DC, symSize: 0x124 }
  - { offset: 0x4290F8, size: 0x8, addend: 0x0, symName: __ZN11spirv_cross12CompilerGLSL14emit_resourcesEv, symObjAddr: 0x2DE4, symBinAddr: 0x67A64, symSize: 0x1390 }
  - { offset: 0x42C857, size: 0x8, addend: 0x0, symName: __ZN11spirv_cross12CompilerGLSL14emit_polyfillsEjb, symObjAddr: 0x6260, symBinAddr: 0x6AEE0, symSize: 0x6DC }
  - { offset: 0x42D0EA, size: 0x8, addend: 0x0, symName: __ZN11spirv_cross12CompilerGLSL13emit_functionERNS_12SPIRFunctionERKNS_6BitsetE, symObjAddr: 0x693C, symBinAddr: 0x6B5BC, symSize: 0x7BC }
  - { offset: 0x42EB16, size: 0x8, addend: 0x0, symName: __ZN11spirv_cross12CompilerGLSL9statementIJRA12_KcEEEvDpOT_, symObjAddr: 0x7140, symBinAddr: 0x6BD78, symSize: 0x104 }
  - { offset: 0x42ED39, size: 0x8, addend: 0x0, symName: __ZN11spirv_cross12CompilerGLSL9statementIJRA2_KcEEEvDpOT_, symObjAddr: 0x752A8, symBinAddr: 0xD8E90, symSize: 0x104 }
  - { offset: 0x42EF5C, size: 0x8, addend: 0x0, symName: __ZN11spirv_cross12CompilerGLSL9statementIJRA78_KcEEEvDpOT_, symObjAddr: 0x7278, symBinAddr: 0x6BEB0, symSize: 0x104 }
  - { offset: 0x42F171, size: 0x8, addend: 0x0, symName: __ZN11spirv_cross12CompilerGLSL9statementIJRA40_KcEEEvDpOT_, symObjAddr: 0x737C, symBinAddr: 0x6BFB4, symSize: 0x104 }
  - { offset: 0x42F394, size: 0x8, addend: 0x0, symName: __ZN11spirv_cross12CompilerGLSL9statementIJRA26_KcEEEvDpOT_, symObjAddr: 0x7480, symBinAddr: 0x6C0B8, symSize: 0x104 }
  - { offset: 0x42F5B7, size: 0x8, addend: 0x0, symName: __ZN11spirv_cross12CompilerGLSL9statementIJRA38_KcEEEvDpOT_, symObjAddr: 0x7584, symBinAddr: 0x6C1BC, symSize: 0x104 }
  - { offset: 0x42FC1C, size: 0x8, addend: 0x0, symName: __ZN11spirv_cross12CompilerGLSL28fixup_anonymous_struct_namesERNSt3__113unordered_setIjNS1_4hashIjEENS1_8equal_toIjEENS1_9allocatorIjEEEERKNS_8SPIRTypeE, symObjAddr: 0x7694C, symBinAddr: 0xDA534, symSize: 0x210 }
  - { offset: 0x4309E4, size: 0x8, addend: 0x0, symName: __ZNK11spirv_cross12CompilerGLSL38find_subpass_input_by_attachment_indexEj, symObjAddr: 0x76CD0, symBinAddr: 0xDA8B8, symSize: 0xE8 }
  - { offset: 0x430BC3, size: 0x8, addend: 0x0, symName: __ZNK11spirv_cross12CompilerGLSL29find_color_output_by_locationEj, symObjAddr: 0x76DB8, symBinAddr: 0xDA9A0, symSize: 0xE0 }
  - { offset: 0x4317C3, size: 0x8, addend: 0x0, symName: __ZN11spirv_cross12CompilerGLSL24replace_fragment_outputsEv, symObjAddr: 0x1DCC0, symBinAddr: 0x82408, symSize: 0xF0 }
  - { offset: 0x431A23, size: 0x8, addend: 0x0, symName: __ZN11spirv_cross12CompilerGLSL8emit_plsEv, symObjAddr: 0x1E67C, symBinAddr: 0x82DC4, symSize: 0x3B8 }
  - { offset: 0x4323E4, size: 0x8, addend: 0x0, symName: __ZN11spirv_cross12CompilerGLSL34fixup_implicit_builtin_block_namesEN3spv14ExecutionModelE, symObjAddr: 0x1F69C, symBinAddr: 0x83DE4, symSize: 0x540 }
  - { offset: 0x433B14, size: 0x8, addend: 0x0, symName: __ZN11spirv_cross12CompilerGLSL31should_force_emit_builtin_blockEN3spv12StorageClassE, symObjAddr: 0x1F454, symBinAddr: 0x83B9C, symSize: 0x248 }
  - { offset: 0x433FC7, size: 0x8, addend: 0x0, symName: __ZN11spirv_cross12CompilerGLSL27emit_declared_builtin_blockEN3spv12StorageClassENS1_14ExecutionModelE, symObjAddr: 0x1FBDC, symBinAddr: 0x84324, symSize: 0x13B8 }
  - { offset: 0x43769E, size: 0x8, addend: 0x0, symName: __ZN11spirv_cross12CompilerGLSL9statementIJRPKcRA24_S2_RjRA3_S2_EEEvDpOT_, symObjAddr: 0x21E90, symBinAddr: 0x86590, symSize: 0x144 }
  - { offset: 0x43795D, size: 0x8, addend: 0x0, symName: __ZN11spirv_cross12CompilerGLSL9statementIJRA1_KcEEEvDpOT_, symObjAddr: 0xD998, symBinAddr: 0x723C4, symSize: 0x104 }
  - { offset: 0x437B80, size: 0x8, addend: 0x0, symName: __ZN11spirv_cross12CompilerGLSL9statementIJRA23_KcEEEvDpOT_, symObjAddr: 0xE854, symBinAddr: 0x731FC, symSize: 0x104 }
  - { offset: 0x437DA3, size: 0x8, addend: 0x0, symName: __ZN11spirv_cross12CompilerGLSL9statementIJRA9_KcNSt3__112basic_stringIcNS5_11char_traitsIcEENS5_9allocatorIcEEEERA2_S2_EEEvDpOT_, symObjAddr: 0x21FD4, symBinAddr: 0x866D4, symSize: 0x16C }
  - { offset: 0x438113, size: 0x8, addend: 0x0, symName: __ZN11spirv_cross12CompilerGLSL13emit_constantERKNS_12SPIRConstantE, symObjAddr: 0x19BFC, symBinAddr: 0x7E3AC, symSize: 0x39C }
  - { offset: 0x438AD5, size: 0x8, addend: 0x0, symName: __ZNK11spirv_cross12CompilerGLSL24type_can_zero_initializeERKNS_8SPIRTypeE, symObjAddr: 0x22360, symBinAddr: 0x86840, symSize: 0x110 }
  - { offset: 0x438CBF, size: 0x8, addend: 0x0, symName: __ZN11spirv_cross12CompilerGLSL9statementIJNSt3__112basic_stringIcNS2_11char_traitsIcEENS2_9allocatorIcEEEERS8_RA2_KcEEEvDpOT_, symObjAddr: 0x225E4, symBinAddr: 0x86AC4, symSize: 0x174 }
  - { offset: 0x4390D7, size: 0x8, addend: 0x0, symName: __ZN11spirv_cross12CompilerGLSL31emit_specialization_constant_opERKNS_14SPIRConstantOpE, symObjAddr: 0x1981C, symBinAddr: 0x7DFCC, symSize: 0x198 }
  - { offset: 0x439828, size: 0x8, addend: 0x0, symName: __ZN11spirv_cross12CompilerGLSL11emit_structERNS_8SPIRTypeE, symObjAddr: 0xF42C, symBinAddr: 0x73DD4, symSize: 0x434 }
  - { offset: 0x43A579, size: 0x8, addend: 0x0, symName: __ZN11spirv_cross12CompilerGLSL20build_workgroup_sizeERNS_11SmallVectorINSt3__112basic_stringIcNS2_11char_traitsIcEENS2_9allocatorIcEEEELm8EEERKNS_22SpecializationConstantESD_SD_, symObjAddr: 0x78A4, symBinAddr: 0x6C32C, symSize: 0x3F4 }
  - { offset: 0x43AE38, size: 0x8, addend: 0x0, symName: __ZN11spirv_cross12CompilerGLSL9statementIJRA8_KcNSt3__112basic_stringIcNS5_11char_traitsIcEENS5_9allocatorIcEEEERA6_S2_EEEvDpOT_, symObjAddr: 0xEF70, symBinAddr: 0x73918, symSize: 0x16C }
  - { offset: 0x43B1A8, size: 0x8, addend: 0x0, symName: __ZN11spirv_cross12CompilerGLSL27emit_buffer_reference_blockEjb, symObjAddr: 0x150EC, symBinAddr: 0x799E8, symSize: 0xE38 }
  - { offset: 0x43F1E8, size: 0x8, addend: 0x0, symName: __ZN11spirv_cross12CompilerGLSL9statementIJRA37_KcEEEvDpOT_, symObjAddr: 0xB250, symBinAddr: 0x6FC7C, symSize: 0x104 }
  - { offset: 0x43F40B, size: 0x8, addend: 0x0, symName: __ZN11spirv_cross12CompilerGLSL9statementIJRA48_KcEEEvDpOT_, symObjAddr: 0xC088, symBinAddr: 0x70AB4, symSize: 0x104 }
  - { offset: 0x43F615, size: 0x8, addend: 0x0, symName: __ZN11spirv_cross12CompilerGLSL9statementIJRA6_KcEEEvDpOT_, symObjAddr: 0xB55C, symBinAddr: 0x6FF88, symSize: 0x104 }
  - { offset: 0x43F838, size: 0x8, addend: 0x0, symName: __ZN11spirv_cross12CompilerGLSL9statementIJRA36_KcEEEvDpOT_, symObjAddr: 0xEC64, symBinAddr: 0x7360C, symSize: 0x104 }
  - { offset: 0x43FA42, size: 0x8, addend: 0x0, symName: __ZN11spirv_cross12CompilerGLSL20emit_interface_blockERKNS_12SPIRVariableE, symObjAddr: 0x181D4, symBinAddr: 0x7C984, symSize: 0xB14 }
  - { offset: 0x442AEB, size: 0x8, addend: 0x0, symName: __ZN11spirv_cross12CompilerGLSL9statementIJRA55_KcEEEvDpOT_, symObjAddr: 0x285F0, symBinAddr: 0x8C968, symSize: 0x104 }
  - { offset: 0x442D00, size: 0x8, addend: 0x0, symName: __ZN11spirv_cross12CompilerGLSL9statementIJRA7_KcEEEvDpOT_, symObjAddr: 0xB14C, symBinAddr: 0x6FB78, symSize: 0x104 }
  - { offset: 0x442F23, size: 0x8, addend: 0x0, symName: __ZN11spirv_cross12CompilerGLSL9statementIJRA52_KcEEEvDpOT_, symObjAddr: 0xC53C, symBinAddr: 0x70F68, symSize: 0x104 }
  - { offset: 0x44318F, size: 0x8, addend: 0x0, symName: __ZN11spirv_cross12CompilerGLSL17add_resource_nameEj, symObjAddr: 0xF860, symBinAddr: 0x74208, symSize: 0xC0 }
  - { offset: 0x443774, size: 0x8, addend: 0x0, symName: __ZNK11spirv_cross12CompilerGLSL27ShaderSubgroupSupportHelper7resolveEv, symObjAddr: 0xD1D4, symBinAddr: 0x71C00, symSize: 0x770 }
  - { offset: 0x44558F, size: 0x8, addend: 0x0, symName: __ZN11spirv_cross12CompilerGLSL9statementIJPKcRA10_S2_RS3_RA2_S2_EEEvDpOT_, symObjAddr: 0x27448, symBinAddr: 0x8B7C0, symSize: 0x1A0 }
  - { offset: 0x44597F, size: 0x8, addend: 0x0, symName: __ZN11spirv_cross12CompilerGLSL9statementIJRA63_KcEEEvDpOT_, symObjAddr: 0xB96C, symBinAddr: 0x70398, symSize: 0x104 }
  - { offset: 0x445BA2, size: 0x8, addend: 0x0, symName: __ZN11spirv_cross12CompilerGLSL9statementIJRA43_KcEEEvDpOT_, symObjAddr: 0xEE6C, symBinAddr: 0x73814, symSize: 0x104 }
  - { offset: 0x445DC5, size: 0x8, addend: 0x0, symName: __ZN11spirv_cross12CompilerGLSL9statementIJRA50_KcEEEvDpOT_, symObjAddr: 0xB868, symBinAddr: 0x70294, symSize: 0x104 }
  - { offset: 0x445FE8, size: 0x8, addend: 0x0, symName: __ZN11spirv_cross12CompilerGLSL9statementIJRA57_KcEEEvDpOT_, symObjAddr: 0x275E8, symBinAddr: 0x8B960, symSize: 0x104 }
  - { offset: 0x44620B, size: 0x8, addend: 0x0, symName: __ZN11spirv_cross12CompilerGLSL9statementIJRA34_KcEEEvDpOT_, symObjAddr: 0x276EC, symBinAddr: 0x8BA64, symSize: 0x104 }
  - { offset: 0x44642E, size: 0x8, addend: 0x0, symName: __ZN11spirv_cross12CompilerGLSL9statementIJRPKcRA25_S2_S4_RA50_S2_EEEvDpOT_, symObjAddr: 0x27B30, symBinAddr: 0x8BEA8, symSize: 0x1A0 }
  - { offset: 0x446837, size: 0x8, addend: 0x0, symName: __ZN11spirv_cross12CompilerGLSL9statementIJRPKcRA20_S2_S4_RA58_S2_EEEvDpOT_, symObjAddr: 0x27CD0, symBinAddr: 0x8C048, symSize: 0x1A0 }
  - { offset: 0x446C27, size: 0x8, addend: 0x0, symName: __ZN11spirv_cross12CompilerGLSL9statementIJRPKcRA25_S2_S4_RA83_S2_EEEvDpOT_, symObjAddr: 0x277F0, symBinAddr: 0x8BB68, symSize: 0x1A0 }
  - { offset: 0x447017, size: 0x8, addend: 0x0, symName: __ZN11spirv_cross12CompilerGLSL9statementIJRPKcRA20_S2_S4_RA65_S2_EEEvDpOT_, symObjAddr: 0x27990, symBinAddr: 0x8BD08, symSize: 0x1A0 }
  - { offset: 0x447407, size: 0x8, addend: 0x0, symName: __ZN11spirv_cross12CompilerGLSL9statementIJRA69_KcEEEvDpOT_, symObjAddr: 0xBA70, symBinAddr: 0x7049C, symSize: 0x104 }
  - { offset: 0x44762A, size: 0x8, addend: 0x0, symName: __ZN11spirv_cross12CompilerGLSL9statementIJRA68_KcEEEvDpOT_, symObjAddr: 0x27E70, symBinAddr: 0x8C1E8, symSize: 0x104 }
  - { offset: 0x44784D, size: 0x8, addend: 0x0, symName: __ZN11spirv_cross12CompilerGLSL9statementIJRA77_KcEEEvDpOT_, symObjAddr: 0xCB54, symBinAddr: 0x71580, symSize: 0x104 }
  - { offset: 0x447A70, size: 0x8, addend: 0x0, symName: __ZN11spirv_cross12CompilerGLSL9statementIJRA66_KcEEEvDpOT_, symObjAddr: 0xBB74, symBinAddr: 0x705A0, symSize: 0x104 }
  - { offset: 0x447C93, size: 0x8, addend: 0x0, symName: __ZN11spirv_cross12CompilerGLSL9statementIJRA111_KcEEEvDpOT_, symObjAddr: 0x2817C, symBinAddr: 0x8C4F4, symSize: 0x104 }
  - { offset: 0x447E9D, size: 0x8, addend: 0x0, symName: __ZN11spirv_cross12CompilerGLSL9statementIJRA58_KcEEEvDpOT_, symObjAddr: 0xBC78, symBinAddr: 0x706A4, symSize: 0x104 }
  - { offset: 0x4480C0, size: 0x8, addend: 0x0, symName: __ZN11spirv_cross12CompilerGLSL9statementIJRA61_KcEEEvDpOT_, symObjAddr: 0xED68, symBinAddr: 0x73710, symSize: 0x104 }
  - { offset: 0x4482E3, size: 0x8, addend: 0x0, symName: __ZN11spirv_cross12CompilerGLSL9statementIJRA60_KcEEEvDpOT_, symObjAddr: 0x27F74, symBinAddr: 0x8C2EC, symSize: 0x104 }
  - { offset: 0x448506, size: 0x8, addend: 0x0, symName: __ZN11spirv_cross12CompilerGLSL9statementIJRA71_KcEEEvDpOT_, symObjAddr: 0x28078, symBinAddr: 0x8C3F0, symSize: 0x104 }
  - { offset: 0x44871B, size: 0x8, addend: 0x0, symName: __ZN11spirv_cross12CompilerGLSL9statementIJRA160_KcEEEvDpOT_, symObjAddr: 0x28280, symBinAddr: 0x8C5F8, symSize: 0x104 }
  - { offset: 0x44893E, size: 0x8, addend: 0x0, symName: __ZN11spirv_cross12CompilerGLSL9statementIJRA44_KcRPS2_RA2_S2_EEEvDpOT_, symObjAddr: 0x28384, symBinAddr: 0x8C6FC, symSize: 0x168 }
  - { offset: 0x448C8B, size: 0x8, addend: 0x0, symName: __ZN11spirv_cross12CompilerGLSL9statementIJRA85_KcEEEvDpOT_, symObjAddr: 0x284EC, symBinAddr: 0x8C864, symSize: 0x104 }
  - { offset: 0x448EAE, size: 0x8, addend: 0x0, symName: __ZN11spirv_cross12CompilerGLSL9statementIJRA21_KcEEEvDpOT_, symObjAddr: 0xEA5C, symBinAddr: 0x73404, symSize: 0x104 }
  - { offset: 0x4490D1, size: 0x8, addend: 0x0, symName: __ZN11spirv_cross12CompilerGLSL9statementIJRA41_KcEEEvDpOT_, symObjAddr: 0xBF84, symBinAddr: 0x709B0, symSize: 0x104 }
  - { offset: 0x4492F4, size: 0x8, addend: 0x0, symName: __ZN11spirv_cross12CompilerGLSL9statementIJRA45_KcEEEvDpOT_, symObjAddr: 0xB354, symBinAddr: 0x6FD80, symSize: 0x104 }
  - { offset: 0x449517, size: 0x8, addend: 0x0, symName: __ZN11spirv_cross12CompilerGLSL9statementIJRA62_KcEEEvDpOT_, symObjAddr: 0x286F4, symBinAddr: 0x8CA6C, symSize: 0x104 }
  - { offset: 0x449721, size: 0x8, addend: 0x0, symName: __ZN11spirv_cross12CompilerGLSL9statementIJRA33_KcEEEvDpOT_, symObjAddr: 0xB458, symBinAddr: 0x6FE84, symSize: 0x104 }
  - { offset: 0x449944, size: 0x8, addend: 0x0, symName: __ZN11spirv_cross12CompilerGLSL9statementIJRA18_KcEEEvDpOT_, symObjAddr: 0x21690, symBinAddr: 0x85DD8, symSize: 0x104 }
  - { offset: 0x449B4E, size: 0x8, addend: 0x0, symName: __ZN11spirv_cross12CompilerGLSL9statementIJRA24_KcEEEvDpOT_, symObjAddr: 0x2110C, symBinAddr: 0x85854, symSize: 0x104 }
  - { offset: 0x449D71, size: 0x8, addend: 0x0, symName: __ZN11spirv_cross12CompilerGLSL9statementIJRA30_KcEEEvDpOT_, symObjAddr: 0x27154, symBinAddr: 0x8B4CC, symSize: 0x104 }
  - { offset: 0x449F94, size: 0x8, addend: 0x0, symName: __ZN11spirv_cross12CompilerGLSL9statementIJRA54_KcEEEvDpOT_, symObjAddr: 0xCE60, symBinAddr: 0x7188C, symSize: 0x104 }
  - { offset: 0x44A1B7, size: 0x8, addend: 0x0, symName: __ZN11spirv_cross12CompilerGLSL9statementIJRA29_KcEEEvDpOT_, symObjAddr: 0x1EF4C, symBinAddr: 0x83694, symSize: 0x104 }
  - { offset: 0x44A3D1, size: 0x8, addend: 0x0, symName: '__ZZN11spirv_cross12CompilerGLSL26emit_extension_workaroundsEN3spv14ExecutionModelEENK3$_0clENS0_27ShaderSubgroupSupportHelper7FeatureENSt3__112basic_stringIcNS6_11char_traitsIcEENS6_9allocatorIcEEEENS1_2OpENS1_14GroupOperationE', symObjAddr: 0x287F8, symBinAddr: 0x8CB70, symSize: 0x35C }
  - { offset: 0x44AF57, size: 0x8, addend: 0x0, symName: __ZN11spirv_cross12CompilerGLSL9statementIJRA7_KcNSt3__112basic_stringIcNS5_11char_traitsIcEENS5_9allocatorIcEEEERA30_S2_SB_RA24_S2_EEEvDpOT_, symObjAddr: 0x28B54, symBinAddr: 0x8CECC, symSize: 0x1D4 }
  - { offset: 0x44B44D, size: 0x8, addend: 0x0, symName: __ZN11spirv_cross12CompilerGLSL9statementIJRA9_KcNSt3__112basic_stringIcNS5_11char_traitsIcEENS5_9allocatorIcEEEERA34_S2_SB_RA24_S2_EEEvDpOT_, symObjAddr: 0x28D28, symBinAddr: 0x8D0A0, symSize: 0x1D4 }
  - { offset: 0x44B943, size: 0x8, addend: 0x0, symName: __ZN11spirv_cross12CompilerGLSL9statementIJNSt3__112basic_stringIcNS2_11char_traitsIcEENS2_9allocatorIcEEEERA24_KcS8_SB_EEEvDpOT_, symObjAddr: 0x28EFC, symBinAddr: 0x8D274, symSize: 0x1A8 }
  - { offset: 0x44BDCE, size: 0x8, addend: 0x0, symName: __ZN11spirv_cross12CompilerGLSL9statementIJRPKcRA18_S2_S4_RA2_S2_S4_RA8_S2_EEEvDpOT_, symObjAddr: 0x290A4, symBinAddr: 0x8D41C, symSize: 0x140 }
  - { offset: 0x44C050, size: 0x8, addend: 0x0, symName: __ZN11spirv_cross12CompilerGLSL9statementIJRA49_KcEEEvDpOT_, symObjAddr: 0xCD5C, symBinAddr: 0x71788, symSize: 0x104 }
  - { offset: 0x44C273, size: 0x8, addend: 0x0, symName: __ZN11spirv_cross12CompilerGLSL9statementIJRA94_KcEEEvDpOT_, symObjAddr: 0x291E4, symBinAddr: 0x8D55C, symSize: 0x104 }
  - { offset: 0x44C496, size: 0x8, addend: 0x0, symName: __ZN11spirv_cross12CompilerGLSL9statementIJRA157_KcEEEvDpOT_, symObjAddr: 0x292E8, symBinAddr: 0x8D660, symSize: 0x104 }
  - { offset: 0x44C6A0, size: 0x8, addend: 0x0, symName: __ZN11spirv_cross12CompilerGLSL9statementIJRPKcRA21_S2_S4_RA2_S2_S4_RA8_S2_EEEvDpOT_, symObjAddr: 0x293EC, symBinAddr: 0x8D764, symSize: 0x140 }
  - { offset: 0x44C922, size: 0x8, addend: 0x0, symName: __ZN11spirv_cross12CompilerGLSL9statementIJRA46_KcEEEvDpOT_, symObjAddr: 0xEB60, symBinAddr: 0x73508, symSize: 0x104 }
  - { offset: 0x44CB45, size: 0x8, addend: 0x0, symName: __ZN11spirv_cross12CompilerGLSL9statementIJRA141_KcEEEvDpOT_, symObjAddr: 0x2952C, symBinAddr: 0x8D8A4, symSize: 0x104 }
  - { offset: 0x44CD69, size: 0x8, addend: 0x0, symName: __ZN11spirv_cross12CompilerGLSL9statementIJRA740_KcEEEvDpOT_, symObjAddr: 0x29630, symBinAddr: 0x8D9A8, symSize: 0x104 }
  - { offset: 0x44CF8C, size: 0x8, addend: 0x0, symName: __ZN11spirv_cross12CompilerGLSL9statementIJRPKcRA16_S2_S4_RA2_S2_S4_RA8_S2_EEEvDpOT_, symObjAddr: 0x29734, symBinAddr: 0x8DAAC, symSize: 0x140 }
  - { offset: 0x44D20E, size: 0x8, addend: 0x0, symName: __ZN11spirv_cross12CompilerGLSL9statementIJRA101_KcEEEvDpOT_, symObjAddr: 0x29874, symBinAddr: 0x8DBEC, symSize: 0x104 }
  - { offset: 0x44D431, size: 0x8, addend: 0x0, symName: __ZN11spirv_cross12CompilerGLSL9statementIJRPKcRA132_S2_EEEvDpOT_, symObjAddr: 0x29978, symBinAddr: 0x8DCF0, symSize: 0x13C }
  - { offset: 0x44D6E6, size: 0x8, addend: 0x0, symName: __ZN11spirv_cross12CompilerGLSL9statementIJRA288_KcEEEvDpOT_, symObjAddr: 0x29AB4, symBinAddr: 0x8DE2C, symSize: 0x104 }
  - { offset: 0x44D90A, size: 0x8, addend: 0x0, symName: __ZN11spirv_cross12CompilerGLSL9statementIJRPKcRA731_S2_EEEvDpOT_, symObjAddr: 0x29BB8, symBinAddr: 0x8DF30, symSize: 0x13C }
  - { offset: 0x44DBBF, size: 0x8, addend: 0x0, symName: __ZN11spirv_cross12CompilerGLSL9statementIJRA2208_KcEEEvDpOT_, symObjAddr: 0x29CF4, symBinAddr: 0x8E06C, symSize: 0x104 }
  - { offset: 0x44E80C, size: 0x8, addend: 0x0, symName: __ZN11spirv_cross12CompilerGLSL19emit_line_directiveEjj, symObjAddr: 0x67FF4, symBinAddr: 0xCBC94, symSize: 0xFC }
  - { offset: 0x44ECA5, size: 0x8, addend: 0x0, symName: __ZN11spirv_cross12CompilerGLSL19constant_expressionERKNS_12SPIRConstantEbb, symObjAddr: 0x1A104, symBinAddr: 0x7E8B4, symSize: 0xB34 }
  - { offset: 0x450C3B, size: 0x8, addend: 0x0, symName: __ZN11spirv_cross12CompilerGLSL9statementIJNSt3__112basic_stringIcNS2_11char_traitsIcEENS2_9allocatorIcEEEERA4_KcS8_RA2_S9_EEEvDpOT_, symObjAddr: 0x6DFC8, symBinAddr: 0xD1C68, symSize: 0x1A8 }
  - { offset: 0x45108A, size: 0x8, addend: 0x0, symName: __ZN11spirv_cross12CompilerGLSL23add_local_variable_nameEj, symObjAddr: 0x37DE4, symBinAddr: 0x9BB18, symSize: 0xC0 }
  - { offset: 0x45126B, size: 0x8, addend: 0x0, symName: __ZN11spirv_cross12CompilerGLSL9statementIJNSt3__112basic_stringIcNS2_11char_traitsIcEENS2_9allocatorIcEEEERA2_KcEEEvDpOT_, symObjAddr: 0x1EA34, symBinAddr: 0x8317C, symSize: 0x140 }
  - { offset: 0x4515B7, size: 0x8, addend: 0x0, symName: __ZN11spirv_cross12CompilerGLSL16emit_block_chainERNS_9SPIRBlockE, symObjAddr: 0x6E2E0, symBinAddr: 0xD1F80, symSize: 0x2DA4 }
  - { offset: 0x459931, size: 0x8, addend: 0x0, symName: __ZN11spirv_cross12CompilerGLSL11begin_scopeEv, symObjAddr: 0x7244, symBinAddr: 0x6BE7C, symSize: 0x34 }
  - { offset: 0x459A17, size: 0x8, addend: 0x0, symName: __ZN11spirv_cross12CompilerGLSL9end_scopeEv, symObjAddr: 0x7688, symBinAddr: 0x6C2C0, symSize: 0x64 }
  - { offset: 0x45A253, size: 0x8, addend: 0x0, symName: __ZN11spirv_cross12CompilerGLSL18get_partial_sourceEv, symObjAddr: 0x789C, symBinAddr: 0x6C324, symSize: 0x8 }
  - { offset: 0x45A634, size: 0x8, addend: 0x0, symName: __ZN11spirv_cross12CompilerGLSL24request_subgroup_featureENS0_27ShaderSubgroupSupportHelper7FeatureE, symObjAddr: 0x8240, symBinAddr: 0x6CC6C, symSize: 0x2C0 }
  - { offset: 0x45AF23, size: 0x8, addend: 0x0, symName: __ZNK11spirv_cross12CompilerGLSL27ShaderSubgroupSupportHelper20is_feature_requestedENS1_7FeatureE, symObjAddr: 0x8520, symBinAddr: 0x6CF4C, symSize: 0x10 }
  - { offset: 0x45AF4E, size: 0x8, addend: 0x0, symName: __ZN11spirv_cross12CompilerGLSL27ShaderSubgroupSupportHelper15request_featureENS1_7FeatureE, symObjAddr: 0x8530, symBinAddr: 0x6CF5C, symSize: 0x1B0 }
  - { offset: 0x45B3CB, size: 0x8, addend: 0x0, symName: __ZN11spirv_cross12CompilerGLSL11emit_headerEv, symObjAddr: 0x86E0, symBinAddr: 0x6D10C, symSize: 0x2758 }
  - { offset: 0x460EC5, size: 0x8, addend: 0x0, symName: __ZN11spirv_cross12CompilerGLSL9statementIJRA10_KcRjPS2_EEEvDpOT_, symObjAddr: 0xAE38, symBinAddr: 0x6F864, symSize: 0x10C }
  - { offset: 0x4610DB, size: 0x8, addend: 0x0, symName: __ZN11spirv_cross12CompilerGLSL9statementIJRA39_KcEEEvDpOT_, symObjAddr: 0xAF44, symBinAddr: 0x6F970, symSize: 0x104 }
  - { offset: 0x4612FE, size: 0x8, addend: 0x0, symName: __ZN11spirv_cross12CompilerGLSL9statementIJRA53_KcEEEvDpOT_, symObjAddr: 0xB048, symBinAddr: 0x6FA74, symSize: 0x104 }
  - { offset: 0x461521, size: 0x8, addend: 0x0, symName: __ZN11spirv_cross12CompilerGLSL9statementIJRA12_KcRNSt3__112basic_stringIcNS5_11char_traitsIcEENS5_9allocatorIcEEEERA11_S2_EEEvDpOT_, symObjAddr: 0xD068, symBinAddr: 0x71A94, symSize: 0x16C }
  - { offset: 0x4618AA, size: 0x8, addend: 0x0, symName: __ZN11spirv_cross12CompilerGLSL9statementIJRA42_KcEEEvDpOT_, symObjAddr: 0xB764, symBinAddr: 0x70190, symSize: 0x104 }
  - { offset: 0x461ACD, size: 0x8, addend: 0x0, symName: __ZN11spirv_cross12CompilerGLSL9statementIJRA67_KcEEEvDpOT_, symObjAddr: 0xBD7C, symBinAddr: 0x707A8, symSize: 0x104 }
  - { offset: 0x461CD7, size: 0x8, addend: 0x0, symName: __ZN11spirv_cross12CompilerGLSL9statementIJRA44_KcEEEvDpOT_, symObjAddr: 0xC438, symBinAddr: 0x70E64, symSize: 0x104 }
  - { offset: 0x461EFA, size: 0x8, addend: 0x0, symName: __ZN11spirv_cross12CompilerGLSL9statementIJRA28_KcEEEvDpOT_, symObjAddr: 0xC640, symBinAddr: 0x7106C, symSize: 0x104 }
  - { offset: 0x46211D, size: 0x8, addend: 0x0, symName: __ZN11spirv_cross12CompilerGLSL9statementIJRA27_KcEEEvDpOT_, symObjAddr: 0xC744, symBinAddr: 0x71170, symSize: 0x104 }
  - { offset: 0x462327, size: 0x8, addend: 0x0, symName: __ZN11spirv_cross12CompilerGLSL9statementIJRA25_KcEEEvDpOT_, symObjAddr: 0xC848, symBinAddr: 0x71274, symSize: 0x104 }
  - { offset: 0x46254A, size: 0x8, addend: 0x0, symName: __ZN11spirv_cross12CompilerGLSL9statementIJRA73_KcEEEvDpOT_, symObjAddr: 0xCC58, symBinAddr: 0x71684, symSize: 0x104 }
  - { offset: 0x46276D, size: 0x8, addend: 0x0, symName: __ZN11spirv_cross12CompilerGLSL9statementIJRA82_KcEEEvDpOT_, symObjAddr: 0xCF64, symBinAddr: 0x71990, symSize: 0x104 }
  - { offset: 0x462977, size: 0x8, addend: 0x0, symName: __ZN11spirv_cross12CompilerGLSL9statementIJRA8_KcRNSt3__112basic_stringIcNS5_11char_traitsIcEENS5_9allocatorIcEEEEEEEvDpOT_, symObjAddr: 0xC18C, symBinAddr: 0x70BB8, symSize: 0x140 }
  - { offset: 0x462C50, size: 0x8, addend: 0x0, symName: __ZN11spirv_cross12CompilerGLSL9statementIJRA12_KcRNSt3__112basic_stringIcNS5_11char_traitsIcEENS5_9allocatorIcEEEERA10_S2_EEEvDpOT_, symObjAddr: 0xC2CC, symBinAddr: 0x70CF8, symSize: 0x16C }
  - { offset: 0x462FD9, size: 0x8, addend: 0x0, symName: __ZN11spirv_cross12CompilerGLSL9statementIJRA51_KcEEEvDpOT_, symObjAddr: 0xB660, symBinAddr: 0x7008C, symSize: 0x104 }
  - { offset: 0x4631FC, size: 0x8, addend: 0x0, symName: __ZN11spirv_cross12CompilerGLSL9statementIJRA76_KcEEEvDpOT_, symObjAddr: 0xC94C, symBinAddr: 0x71378, symSize: 0x104 }
  - { offset: 0x46341F, size: 0x8, addend: 0x0, symName: __ZN11spirv_cross12CompilerGLSL9statementIJRA72_KcEEEvDpOT_, symObjAddr: 0xCA50, symBinAddr: 0x7147C, symSize: 0x104 }
  - { offset: 0x463642, size: 0x8, addend: 0x0, symName: __ZN11spirv_cross12CompilerGLSL9statementIJRA59_KcEEEvDpOT_, symObjAddr: 0xBE80, symBinAddr: 0x708AC, symSize: 0x104 }
  - { offset: 0x46384C, size: 0x8, addend: 0x0, symName: __ZN11spirv_cross11SmallVectorINSt3__112basic_stringIcNS1_11char_traitsIcEENS1_9allocatorIcEEEELm8EEC1IPKcEEPKT_SE_, symObjAddr: 0xA74D4, symBinAddr: 0xFC710, symSize: 0x130 }
  - { offset: 0x463B59, size: 0x8, addend: 0x0, symName: __ZN11spirv_cross12CompilerGLSL9statementIJPKcRA10_S2_RS3_RA2_S2_S3_S6_EEEvDpOT_, symObjAddr: 0xDB78, symBinAddr: 0x725A4, symSize: 0x140 }
  - { offset: 0x463DC2, size: 0x8, addend: 0x0, symName: __ZN11spirv_cross12CompilerGLSL9statementIJRA12_KcRKNSt3__112basic_stringIcNS5_11char_traitsIcEENS5_9allocatorIcEEEERA10_S2_EEEvDpOT_, symObjAddr: 0xDCB8, symBinAddr: 0x726E4, symSize: 0x16C }
  - { offset: 0x464132, size: 0x8, addend: 0x0, symName: __ZN11spirv_cross12CompilerGLSL9statementIJRA12_KcRPS2_RA11_S2_EEEvDpOT_, symObjAddr: 0xDE24, symBinAddr: 0x72850, symSize: 0x168 }
  - { offset: 0x46447F, size: 0x8, addend: 0x0, symName: __ZN11spirv_cross12CompilerGLSL9statementIJRA70_KcEEEvDpOT_, symObjAddr: 0xE020, symBinAddr: 0x729C8, symSize: 0x104 }
  - { offset: 0x464689, size: 0x8, addend: 0x0, symName: __ZN11spirv_cross12CompilerGLSL9statementIJRNSt3__112basic_stringIcNS2_11char_traitsIcEENS2_9allocatorIcEEEEEEEvDpOT_, symObjAddr: 0xE124, symBinAddr: 0x72ACC, symSize: 0x10C }
  - { offset: 0x4648EC, size: 0x8, addend: 0x0, symName: __ZN11spirv_cross12CompilerGLSL9statementIJRA22_KcEEEvDpOT_, symObjAddr: 0xE750, symBinAddr: 0x730F8, symSize: 0x104 }
  - { offset: 0x464AF6, size: 0x8, addend: 0x0, symName: __ZN11spirv_cross12CompilerGLSL9statementIJRA20_KcEEEvDpOT_, symObjAddr: 0xE958, symBinAddr: 0x73300, symSize: 0x104 }
  - { offset: 0x464D00, size: 0x8, addend: 0x0, symName: __ZN11spirv_cross12CompilerGLSL9statementIJRA8_KcNSt3__112basic_stringIcNS5_11char_traitsIcEENS5_9allocatorIcEEEERA7_S2_EEEvDpOT_, symObjAddr: 0xF2A8, symBinAddr: 0x73C50, symSize: 0x16C }
  - { offset: 0x46507A, size: 0x8, addend: 0x0, symName: __ZN11spirv_cross12CompilerGLSL15statement_innerIRA10_KcJRjPS2_EEEvOT_DpOT0_, symObjAddr: 0x7DDD0, symBinAddr: 0xDD350, symSize: 0xEC }
  - { offset: 0x465E05, size: 0x8, addend: 0x0, symName: __ZNSt3__112__hash_tableIjNS_4hashIjEENS_8equal_toIjEENS_9allocatorIjEEE21__emplace_unique_implIJRN11spirv_cross12CompilerGLSL27ShaderSubgroupSupportHelper9CandidateEEEENS_4pairINS_15__hash_iteratorIPNS_11__hash_nodeIjPvEEEEbEEDpOT_, symObjAddr: 0xA7604, symBinAddr: 0xFC840, symSize: 0x120 }
  - { offset: 0x46634F, size: 0x8, addend: 0x0, symName: __ZN11spirv_cross12CompilerGLSL27ShaderSubgroupSupportHelper26get_candidates_for_featureENS1_7FeatureERKNS1_6ResultE, symObjAddr: 0xD944, symBinAddr: 0x72370, symSize: 0x54 }
  - { offset: 0x4664C2, size: 0x8, addend: 0x0, symName: __ZN11spirv_cross12CompilerGLSL27ShaderSubgroupSupportHelper26get_candidates_for_featureENS1_7FeatureE, symObjAddr: 0x77300, symBinAddr: 0xDAEE8, symSize: 0x120 }
  - { offset: 0x4668C7, size: 0x8, addend: 0x0, symName: __ZN11spirv_cross12CompilerGLSL27ShaderSubgroupSupportHelper38get_extra_required_extension_predicateENS1_9CandidateE, symObjAddr: 0xDA9C, symBinAddr: 0x724C8, symSize: 0x2C }
  - { offset: 0x466901, size: 0x8, addend: 0x0, symName: __ZN11spirv_cross12CompilerGLSL27ShaderSubgroupSupportHelper34get_extra_required_extension_namesENS1_9CandidateE, symObjAddr: 0xDAC8, symBinAddr: 0x724F4, symSize: 0xB0 }
  - { offset: 0x4669FB, size: 0x8, addend: 0x0, symName: __ZN11spirv_cross12CompilerGLSL15statement_innerIPKcJRA10_S2_RS3_RA2_S2_S3_S6_EEEvOT_DpOT0_, symObjAddr: 0x80E4C, symBinAddr: 0xE03CC, symSize: 0x130 }
  - { offset: 0x467160, size: 0x8, addend: 0x0, symName: __ZN11spirv_cross12CompilerGLSL13type_is_emptyERKNS_8SPIRTypeE, symObjAddr: 0xF414, symBinAddr: 0x73DBC, symSize: 0x18 }
  - { offset: 0x4672DD, size: 0x8, addend: 0x0, symName: __ZN11spirv_cross12CompilerGLSL9statementIJPKcRNSt3__112basic_stringIcNS4_11char_traitsIcEENS4_9allocatorIcEEEEEEEvDpOT_, symObjAddr: 0xF920, symBinAddr: 0x742C8, symSize: 0x144 }
  - { offset: 0x4675B8, size: 0x8, addend: 0x0, symName: __ZN11spirv_cross12CompilerGLSL9statementIJRA3_KcEEEvDpOT_, symObjAddr: 0x743E4, symBinAddr: 0xD803C, symSize: 0x104 }
  - { offset: 0x467865, size: 0x8, addend: 0x0, symName: __ZN11spirv_cross12CompilerGLSL15add_member_nameERNS_8SPIRTypeEj, symObjAddr: 0xFA64, symBinAddr: 0x7440C, symSize: 0xA8 }
  - { offset: 0x4679AF, size: 0x8, addend: 0x0, symName: __ZN11spirv_cross12CompilerGLSL14end_scope_declEv, symObjAddr: 0xFB0C, symBinAddr: 0x744B4, symSize: 0x64 }
  - { offset: 0x467A46, size: 0x8, addend: 0x0, symName: __ZN11spirv_cross12CompilerGLSL27to_interpolation_qualifiersERKNS_6BitsetE, symObjAddr: 0xFB70, symBinAddr: 0x74518, symSize: 0x644 }
  - { offset: 0x469216, size: 0x8, addend: 0x0, symName: __ZN11spirv_cross12CompilerGLSL17layout_for_memberERKNS_8SPIRTypeEj, symObjAddr: 0x101B4, symBinAddr: 0x74B5C, symSize: 0x5E8 }
  - { offset: 0x46A60D, size: 0x8, addend: 0x0, symName: __ZN11spirv_cross12CompilerGLSL19can_use_io_locationEN3spv12StorageClassEb, symObjAddr: 0x1079C, symBinAddr: 0x75144, symSize: 0x12C }
  - { offset: 0x46A679, size: 0x8, addend: 0x0, symName: __ZN11spirv_cross12CompilerGLSL14format_to_glslEN3spv11ImageFormatE, symObjAddr: 0x10B58, symBinAddr: 0x75500, symSize: 0x8C }
  - { offset: 0x46A6E2, size: 0x8, addend: 0x0, symName: __ZN11spirv_cross12CompilerGLSL24type_to_packed_base_sizeERKNS_8SPIRTypeENS_21BufferPackingStandardE, symObjAddr: 0x10BE4, symBinAddr: 0x7558C, symSize: 0x74 }
  - { offset: 0x46A850, size: 0x8, addend: 0x0, symName: __ZN11spirv_cross12CompilerGLSL24type_to_packed_alignmentERKNS_8SPIRTypeERKNS_6BitsetENS_21BufferPackingStandardE, symObjAddr: 0x10C58, symBinAddr: 0x75600, symSize: 0x454 }
  - { offset: 0x46B24E, size: 0x8, addend: 0x0, symName: __ZN11spirv_cross12CompilerGLSL27type_to_packed_array_strideERKNS_8SPIRTypeERKNS_6BitsetENS_21BufferPackingStandardE, symObjAddr: 0x110AC, symBinAddr: 0x75A54, symSize: 0x88 }
  - { offset: 0x46B39B, size: 0x8, addend: 0x0, symName: __ZN11spirv_cross12CompilerGLSL19type_to_packed_sizeERKNS_8SPIRTypeERKNS_6BitsetENS_21BufferPackingStandardE, symObjAddr: 0x11134, symBinAddr: 0x75ADC, symSize: 0x454 }
  - { offset: 0x46BD6A, size: 0x8, addend: 0x0, symName: __ZNK11spirv_cross12CompilerGLSL21to_array_size_literalERKNS_8SPIRTypeE, symObjAddr: 0x11588, symBinAddr: 0x75F30, symSize: 0x28 }
  - { offset: 0x46BD9A, size: 0x8, addend: 0x0, symName: __ZNK11spirv_cross12CompilerGLSL21to_array_size_literalERKNS_8SPIRTypeE, symObjAddr: 0x11588, symBinAddr: 0x75F30, symSize: 0x28 }
  - { offset: 0x46BE41, size: 0x8, addend: 0x0, symName: __ZN11spirv_cross12CompilerGLSL26buffer_is_packing_standardERKNS_8SPIRTypeENS_21BufferPackingStandardEPjjj, symObjAddr: 0x115B0, symBinAddr: 0x75F58, symSize: 0x3EC }
  - { offset: 0x46C8A2, size: 0x8, addend: 0x0, symName: __ZN11spirv_cross12CompilerGLSL19layout_for_variableERKNS_12SPIRVariableE, symObjAddr: 0x1199C, symBinAddr: 0x76344, symSize: 0x160C }
  - { offset: 0x470AA8, size: 0x8, addend: 0x0, symName: __ZN11spirv_cross12CompilerGLSL26buffer_to_packing_standardERKNS_8SPIRTypeEbb, symObjAddr: 0x13A60, symBinAddr: 0x78408, symSize: 0x4B8 }
  - { offset: 0x471ADB, size: 0x8, addend: 0x0, symName: __ZNK11spirv_cross12CompilerGLSL34subpass_input_is_framebuffer_fetchEj, symObjAddr: 0x12FA8, symBinAddr: 0x77950, symSize: 0x78 }
  - { offset: 0x471BEB, size: 0x8, addend: 0x0, symName: __ZN11spirv_cross12CompilerGLSL24emit_push_constant_blockERKNS_12SPIRVariableE, symObjAddr: 0x13F18, symBinAddr: 0x788C0, symSize: 0xD4 }
  - { offset: 0x471C77, size: 0x8, addend: 0x0, symName: __ZN11spirv_cross12CompilerGLSL24emit_push_constant_blockERKNS_12SPIRVariableE, symObjAddr: 0x13F18, symBinAddr: 0x788C0, symSize: 0xD4 }
  - { offset: 0x471C98, size: 0x8, addend: 0x0, symName: __ZN11spirv_cross12CompilerGLSL24emit_push_constant_blockERKNS_12SPIRVariableE, symObjAddr: 0x13F18, symBinAddr: 0x788C0, symSize: 0xD4 }
  - { offset: 0x471E14, size: 0x8, addend: 0x0, symName: __ZN11spirv_cross12CompilerGLSL24emit_buffer_block_nativeERKNS_12SPIRVariableE, symObjAddr: 0x144D8, symBinAddr: 0x78DD4, symSize: 0x8B0 }
  - { offset: 0x4741E8, size: 0x8, addend: 0x0, symName: __ZN11spirv_cross12CompilerGLSL29emit_push_constant_block_glslERKNS_12SPIRVariableE, symObjAddr: 0x14D88, symBinAddr: 0x79684, symSize: 0xC8 }
  - { offset: 0x47431E, size: 0x8, addend: 0x0, symName: __ZN11spirv_cross12CompilerGLSL27emit_buffer_block_flattenedERKNS_12SPIRVariableE, symObjAddr: 0x14098, symBinAddr: 0x78994, symSize: 0x434 }
  - { offset: 0x475C06, size: 0x8, addend: 0x0, symName: __ZN11spirv_cross12CompilerGLSL24flags_to_qualifiers_glslERKNS_8SPIRTypeERKNS_6BitsetE, symObjAddr: 0x16FD0, symBinAddr: 0x7B780, symSize: 0x2D4 }
  - { offset: 0x4761C8, size: 0x8, addend: 0x0, symName: __ZN11spirv_cross12CompilerGLSL9statementIJRA9_KcNSt3__112basic_stringIcNS5_11char_traitsIcEENS5_9allocatorIcEEEESB_RA2_S2_RSB_SD_RmRA3_S2_EEEvDpOT_, symObjAddr: 0x16DC0, symBinAddr: 0x7B570, symSize: 0x210 }
  - { offset: 0x476B2C, size: 0x8, addend: 0x0, symName: __ZN11spirv_cross12CompilerGLSL31emit_push_constant_block_vulkanERKNS_12SPIRVariableE, symObjAddr: 0x144CC, symBinAddr: 0x78DC8, symSize: 0xC }
  - { offset: 0x477413, size: 0x8, addend: 0x0, symName: __ZNSt3__112__hash_tableINS_17__hash_value_typeIjNS_12basic_stringIcNS_11char_traitsIcEENS_9allocatorIcEEEEEENS_22__unordered_map_hasherIjNS_4pairIKjS7_EENS_4hashIjEENS_8equal_toIjEELb1EEENS_21__unordered_map_equalIjSC_SG_SE_Lb1EEENS5_ISC_EEE25__emplace_unique_key_argsIjJRKNS_21piecewise_construct_tENS_5tupleIJOjEEENSQ_IJEEEEEENSA_INS_15__hash_iteratorIPNS_11__hash_nodeIS8_PvEEEEbEERKT_DpOT0_, symObjAddr: 0x8435C, symBinAddr: 0xE31E0, symSize: 0x2D4 }
  - { offset: 0x477B93, size: 0x8, addend: 0x0, symName: __ZN11spirv_cross12CompilerGLSL9statementIJNSt3__112basic_stringIcNS2_11char_traitsIcEENS2_9allocatorIcEEEEPKcSA_SA_SA_SA_RS8_EEEvDpOT_, symObjAddr: 0x16B74, symBinAddr: 0x7B324, symSize: 0x174 }
  - { offset: 0x477EFB, size: 0x8, addend: 0x0, symName: __ZNSt3__112__hash_tableINS_17__hash_value_typeIjNS_12basic_stringIcNS_11char_traitsIcEENS_9allocatorIcEEEEEENS_22__unordered_map_hasherIjNS_4pairIKjS7_EENS_4hashIjEENS_8equal_toIjEELb1EEENS_21__unordered_map_equalIjSC_SG_SE_Lb1EEENS5_ISC_EEE25__emplace_unique_key_argsIjJRKNS_21piecewise_construct_tENS_5tupleIJRSB_EEENSQ_IJEEEEEENSA_INS_15__hash_iteratorIPNS_11__hash_nodeIS8_PvEEEEbEERKT_DpOT0_, symObjAddr: 0xA61A0, symBinAddr: 0xFB464, symSize: 0x2D4 }
  - { offset: 0x47867B, size: 0x8, addend: 0x0, symName: __ZN11spirv_cross12CompilerGLSL9statementIJRA3_KcRKNSt3__112basic_stringIcNS5_11char_traitsIcEENS5_9allocatorIcEEEERA2_S2_EEEvDpOT_, symObjAddr: 0x75554, symBinAddr: 0xD913C, symSize: 0x16C }
  - { offset: 0x4789EB, size: 0x8, addend: 0x0, symName: __ZN11spirv_cross12CompilerGLSL17emit_buffer_blockERKNS_12SPIRVariableE, symObjAddr: 0x14E50, symBinAddr: 0x7974C, symSize: 0x170 }
  - { offset: 0x478CAA, size: 0x8, addend: 0x0, symName: __ZN11spirv_cross12CompilerGLSL24emit_buffer_block_legacyERKNS_12SPIRVariableE, symObjAddr: 0x14FC0, symBinAddr: 0x798BC, symSize: 0x12C }
  - { offset: 0x479114, size: 0x8, addend: 0x0, symName: __ZN11spirv_cross12CompilerGLSL9statementIJRA8_KcNSt3__112basic_stringIcNS5_11char_traitsIcEENS5_9allocatorIcEEEERA2_S2_RSB_RA9_S2_SE_EEEvDpOT_, symObjAddr: 0x16254, symBinAddr: 0x7AA08, symSize: 0x140 }
  - { offset: 0x47938F, size: 0x8, addend: 0x0, symName: __ZN11spirv_cross12CompilerGLSL9statementIJRA33_KcRNSt3__112basic_stringIcNS5_11char_traitsIcEENS5_9allocatorIcEEEERA2_S2_EEEvDpOT_, symObjAddr: 0x16890, symBinAddr: 0x7B040, symSize: 0x16C }
  - { offset: 0x4796FF, size: 0x8, addend: 0x0, symName: __ZN11spirv_cross12CompilerGLSL9statementIJRA8_KcRNSt3__112basic_stringIcNS5_11char_traitsIcEENS5_9allocatorIcEEEERA44_S2_RjRA10_S2_SC_EEEvDpOT_, symObjAddr: 0x16398, symBinAddr: 0x7AB48, symSize: 0x1A8 }
  - { offset: 0x479B39, size: 0x8, addend: 0x0, symName: __ZN11spirv_cross12CompilerGLSL9statementIJRA8_KcRNSt3__112basic_stringIcNS5_11char_traitsIcEENS5_9allocatorIcEEEERA26_S2_SC_EEEvDpOT_, symObjAddr: 0x16540, symBinAddr: 0x7ACF0, symSize: 0x1A8 }
  - { offset: 0x479F88, size: 0x8, addend: 0x0, symName: __ZN11spirv_cross12CompilerGLSL9statementIJNSt3__112basic_stringIcNS2_11char_traitsIcEENS2_9allocatorIcEEEERA7_KcS8_RA2_S9_EEEvDpOT_, symObjAddr: 0x166E8, symBinAddr: 0x7AE98, symSize: 0x1A8 }
  - { offset: 0x47A3D7, size: 0x8, addend: 0x0, symName: __ZN11spirv_cross12CompilerGLSL12add_variableERNSt3__113unordered_setINS1_12basic_stringIcNS1_11char_traitsIcEENS1_9allocatorIcEEEENS1_4hashIS8_EENS1_8equal_toIS8_EENS6_IS8_EEEERKSE_RS8_, symObjAddr: 0x1606C, symBinAddr: 0x7A820, symSize: 0xA0 }
  - { offset: 0x47A556, size: 0x8, addend: 0x0, symName: __ZN11spirv_cross12CompilerGLSL15statement_innerIRA8_KcJNSt3__112basic_stringIcNS5_11char_traitsIcEENS5_9allocatorIcEEEERA2_S2_RSB_RA9_S2_SE_EEEvOT_DpOT0_, symObjAddr: 0x83764, symBinAddr: 0xE25E8, symSize: 0x13C }
  - { offset: 0x47AAD8, size: 0x8, addend: 0x0, symName: __ZN11spirv_cross12CompilerGLSL15statement_innerIRjJRA10_KcRNSt3__112basic_stringIcNS6_11char_traitsIcEENS6_9allocatorIcEEEEEEEvOT_DpOT0_, symObjAddr: 0x83C18, symBinAddr: 0xE2A9C, symSize: 0xEC }
  - { offset: 0x47B258, size: 0x8, addend: 0x0, symName: __ZN11spirv_cross12CompilerGLSL15statement_innerIPKcJS3_S3_S3_S3_RNSt3__112basic_stringIcNS4_11char_traitsIcEENS4_9allocatorIcEEEEEEEvOT_DpOT0_, symObjAddr: 0x84A48, symBinAddr: 0xE3794, symSize: 0x13C }
  - { offset: 0x47B60E, size: 0x8, addend: 0x0, symName: __ZN11spirv_cross12CompilerGLSL23preserve_alias_on_resetEj, symObjAddr: 0x16CE8, symBinAddr: 0x7B498, symSize: 0x68 }
  - { offset: 0x47B676, size: 0x8, addend: 0x0, symName: __ZN11spirv_cross12CompilerGLSL14end_scope_declERKNSt3__112basic_stringIcNS1_11char_traitsIcEENS1_9allocatorIcEEEE, symObjAddr: 0x16D50, symBinAddr: 0x7B500, symSize: 0x70 }
  - { offset: 0x47B97D, size: 0x8, addend: 0x0, symName: __ZN11spirv_cross12CompilerGLSL15statement_innerIRA2_KcJRmRA3_S2_EEEvOT_DpOT0_, symObjAddr: 0x84EB0, symBinAddr: 0xE3BFC, symSize: 0xE8 }
  - { offset: 0x47BD87, size: 0x8, addend: 0x0, symName: __ZN11spirv_cross12CompilerGLSL26to_storage_qualifiers_glslERKNS_12SPIRVariableE, symObjAddr: 0x172A4, symBinAddr: 0x7BA54, symSize: 0x274 }
  - { offset: 0x47C04B, size: 0x8, addend: 0x0, symName: __ZN11spirv_cross12CompilerGLSL30emit_flattened_io_block_memberERKNSt3__112basic_stringIcNS1_11char_traitsIcEENS1_9allocatorIcEEEERKNS_8SPIRTypeEPKcRKNS_11SmallVectorIjLm8EEE, symObjAddr: 0x17518, symBinAddr: 0x7BCC8, symSize: 0x350 }
  - { offset: 0x47D1E3, size: 0x8, addend: 0x0, symName: __ZN11spirv_cross12CompilerGLSL14to_member_nameERKNS_8SPIRTypeEj, symObjAddr: 0x17868, symBinAddr: 0x7C018, symSize: 0x11C }
  - { offset: 0x47D553, size: 0x8, addend: 0x0, symName: __ZN11spirv_cross12CompilerGLSL30emit_flattened_io_block_structERKNSt3__112basic_stringIcNS1_11char_traitsIcEENS1_9allocatorIcEEEERKNS_8SPIRTypeEPKcRKNS_11SmallVectorIjLm8EEE, symObjAddr: 0x17984, symBinAddr: 0x7C134, symSize: 0x430 }
